

Microchip MPLAB XC8 Assembler V2.10 build 88905656 
                                                                                               Mon Mar 20 15:40:22 2023

Microchip MPLAB XC8 C Compiler v2.10 (Free license) build 20190730164152 Og1 
     1                           	processor	18F45K50
     2                           	fnconf	rparam,??,?,0
     3                           	opt	pw 120
     4                           	opt	flic
     5                           	psect	smallconst,global,reloc=2,class=SMALLCONST,delta=1,noexec
     6                           	psect	cinit,global,reloc=2,class=CODE,delta=1
     7                           	psect	bssCOMRAM,global,class=COMRAM,space=1,delta=1,noexec
     8                           	psect	bssBANK0,global,class=BANK0,space=1,delta=1,lowdata,noexec
     9                           	psect	bssBANK1,global,class=BANK1,space=1,delta=1,lowdata,noexec
    10                           	psect	cstackBANK1,global,class=BANK1,space=1,delta=1,noexec
    11                           	psect	cstackBANK0,global,class=BANK0,space=1,delta=1,noexec
    12                           	psect	cstackCOMRAM,global,class=COMRAM,space=1,delta=1,noexec
    13                           	psect	text0,global,reloc=2,class=CODE,delta=1
    14                           	psect	text1,global,reloc=2,class=CODE,delta=1
    15                           	psect	text2,global,reloc=2,class=CODE,delta=1,group=2
    16                           	psect	text3,global,reloc=2,class=CODE,delta=1
    17                           	psect	text4,global,reloc=2,class=CODE,delta=1
    18                           	psect	text5,global,reloc=2,class=CODE,delta=1
    19                           	psect	text6,global,reloc=2,class=CODE,delta=1
    20                           	psect	text7,global,reloc=2,class=CODE,delta=1,group=2
    21                           	psect	text8,global,reloc=2,class=CODE,delta=1,group=2
    22                           	psect	text9,global,reloc=2,class=CODE,delta=1,group=2
    23                           	psect	text10,global,reloc=2,class=CODE,delta=1,group=2
    24                           	psect	text11,global,reloc=2,class=CODE,delta=1
    25                           	psect	text12,global,reloc=2,class=CODE,delta=1
    26                           	psect	text13,global,reloc=2,class=CODE,delta=1
    27                           	psect	text14,global,reloc=2,class=CODE,delta=1
    28                           	psect	text15,global,reloc=2,class=CODE,delta=1
    29                           	psect	text16,global,reloc=2,class=CODE,delta=1
    30                           	psect	text17,global,reloc=2,class=CODE,delta=1,group=2
    31                           	psect	text18,global,reloc=2,class=CODE,delta=1
    32                           	psect	text19,global,reloc=2,class=CODE,delta=1
    33                           	psect	text20,global,reloc=2,class=CODE,delta=1
    34                           	psect	text21,global,reloc=2,class=CODE,delta=1
    35                           	psect	intcodelo,global,reloc=2,class=CODE,delta=1
    36                           	psect	text23,global,reloc=2,class=CODE,delta=1
    37                           	psect	text24,global,reloc=2,class=CODE,delta=1
    38                           	psect	text25,global,reloc=2,class=CODE,delta=1
    39                           	psect	text26,global,reloc=2,class=CODE,delta=1
    40                           	psect	text27,global,reloc=2,class=CODE,delta=1
    41                           	psect	text28,global,reloc=2,class=CODE,delta=1
    42                           	psect	text29,global,reloc=2,class=CODE,delta=1
    43                           	psect	text30,global,reloc=2,class=CODE,delta=1
    44                           	psect	text31,global,reloc=2,class=CODE,delta=1
    45                           	psect	text32,global,reloc=2,class=CODE,delta=1
    46                           	psect	text33,global,reloc=2,class=CODE,delta=1
    47                           	psect	text34,global,reloc=2,class=CODE,delta=1
    48                           	psect	intcode,global,reloc=2,class=CODE,delta=1
    49                           	psect	intcode_body,global,reloc=2,class=CODE,delta=1
    50                           	psect	text36,global,reloc=2,class=CODE,delta=1
    51                           	psect	text37,global,reloc=2,class=CODE,delta=1
    52                           	psect	text38,global,reloc=2,class=CODE,delta=1
    53                           	psect	text39,global,reloc=2,class=CODE,delta=1
    54                           	psect	text40,global,reloc=2,class=CODE,delta=1
    55                           	psect	text41,global,reloc=2,class=CODE,delta=1
    56                           	psect	text42,global,reloc=2,class=CODE,delta=1
    57                           	psect	text43,global,reloc=2,class=CODE,delta=1,group=2
    58                           	psect	text44,global,reloc=2,class=CODE,delta=1
    59                           	psect	text45,global,reloc=2,class=CODE,delta=1
    60                           	psect	text46,global,reloc=2,class=CODE,delta=1
    61                           	psect	text47,global,reloc=2,class=CODE,delta=1
    62                           	psect	text48,global,reloc=2,class=CODE,delta=1
    63                           	psect	text49,global,reloc=2,class=CODE,delta=1
    64                           	psect	text50,global,reloc=2,class=CODE,delta=1
    65                           	psect	text51,global,reloc=2,class=CODE,delta=1
    66                           	psect	text52,global,reloc=2,class=CODE,delta=1
    67                           	psect	text53,global,reloc=2,class=CODE,delta=1
    68                           	psect	text54,global,reloc=2,class=CODE,delta=1
    69                           	psect	text55,global,reloc=2,class=CODE,delta=1
    70                           	psect	text56,global,reloc=2,class=CODE,delta=1
    71                           	psect	text57,global,reloc=2,class=CODE,delta=1
    72                           	psect	text58,global,reloc=2,class=CODE,delta=1
    73                           	psect	text59,global,reloc=2,class=CODE,delta=1
    74                           	psect	text60,global,reloc=2,class=CODE,delta=1
    75                           	psect	text61,global,reloc=2,class=CODE,delta=1
    76                           	psect	text62,global,reloc=2,class=CODE,delta=1
    77                           	psect	text63,global,reloc=2,class=CODE,delta=1
    78                           	psect	intsave_regs,global,class=BIGRAM,space=1,delta=1,noexec
    79                           	psect	rparam,global,class=COMRAM,space=1,delta=1,noexec
    80                           	psect	temp,global,ovrld,common,class=COMRAM,space=1,delta=1
    81                           	dabs	1,0x400,48,_BDT
    82                           	dabs	1,0x500,64,_cdc_data_tx
    83                           	dabs	1,0x438,8,_CtrlTrfData
    84                           	dabs	1,0x430,8,_SetupPkt
    85                           	dabs	1,0x540,64,_cdc_data_rx
    86  0000                     
    87                           ; Version 2.10
    88                           ; Generated 31/07/2019 GMT
    89                           ; 
    90                           ; Copyright © 2019, Microchip Technology Inc. and its subsidiaries ("Microchip")
    91                           ; All rights reserved.
    92                           ; 
    93                           ; This software is developed by Microchip Technology Inc. and its subsidiaries ("Microch
      +                          ip").
    94                           ; 
    95                           ; Redistribution and use in source and binary forms, with or without modification, are
    96                           ; permitted provided that the following conditions are met:
    97                           ; 
    98                           ;     1. Redistributions of source code must retain the above copyright notice, this lis
      +                          t of
    99                           ;        conditions and the following disclaimer.
   100                           ; 
   101                           ;     2. Redistributions in binary form must reproduce the above copyright notice, this 
      +                          list
   102                           ;        of conditions and the following disclaimer in the documentation and/or other
   103                           ;        materials provided with the distribution.
   104                           ; 
   105                           ;     3. Microchip's name may not be used to endorse or promote products derived from th
      +                          is
   106                           ;        software without specific prior written permission.
   107                           ; 
   108                           ; THIS SOFTWARE IS PROVIDED BY MICROCHIP "AS IS" AND ANY EXPRESS OR IMPLIED WARRANTIES,
   109                           ; INCLUDING, BUT NOT LIMITED TO, THE IMPLIED WARRANTIES OF MERCHANTABILITY AND FITNESS F
      +                          OR
   110                           ; PURPOSE ARE DISCLAIMED.  IN NO EVENT SHALL MICROCHIP BE LIABLE FOR ANY DIRECT, INDIREC
      +                          T,
   111                           ; INCIDENTAL, SPECIAL, EXEMPLARY, OR CONSEQUENTIAL DAMAGES (INCLUDING BUT NOT LIMITED TO
   112                           ; PROCUREMENT OF SUBSTITUTE GOODS OR SERVICES; LOSS OF USE, DATA OR PROFITS; OR BUSINESS
   113                           ; INTERRUPTION) HOWSOEVER CAUSED AND ON ANY THEORY OF LIABILITY, WHETHER IN CONTRACT, ST
      +                          RICT
   114                           ; LIABILITY, OR TORT (INCLUDING NEGLIGENCE OR OTHERWISE) ARISING IN ANY WAY OUT OF THE U
      +                          SE OF
   115                           ; THIS SOFTWARE, EVEN IF ADVISED OF THE POSSIBILITY OF SUCH DAMAGE.
   116                           ; 
   117                           ; 
   118                           ; Code-generator required, PIC18F45K50 Definitions
   119                           ; 
   120                           ; SFR Addresses
   121  0000                     
   122                           	psect	smallconst
   123  000800                     __psmallconst:
   124                           	opt callstack 0
   125  000800  00                 	db	0
   126  000801                     _USB_SD_Ptr:
   127                           	opt callstack 0
   128  000801  AA                 	db	low _sd000
   129  000802  08                 	db	high _sd000
   130  000803  4C                 	db	low _sd001
   131  000804  08                 	db	high _sd001
   132  000805  80                 	db	low _sd002
   133  000806  08                 	db	high _sd002
   134  000807                     __end_of_USB_SD_Ptr:
   135                           	opt callstack 0
   136  000807                     _USB_CD_Ptr:
   137                           	opt callstack 0
   138  000807  09                 	db	low _configDescriptor1
   139  000808  08                 	db	high _configDescriptor1
   140  000809                     __end_of_USB_CD_Ptr:
   141                           	opt callstack 0
   142  000809                     _configDescriptor1:
   143                           	opt callstack 0
   144  000809  09                 	db	9
   145  00080A  02                 	db	2
   146  00080B  43                 	db	67
   147  00080C  00                 	db	0
   148  00080D  02                 	db	2
   149  00080E  01                 	db	1
   150  00080F  00                 	db	0
   151  000810  C0                 	db	192
   152  000811  32                 	db	50
   153  000812  09                 	db	9
   154  000813  04                 	db	4
   155  000814  00                 	db	0
   156  000815  00                 	db	0
   157  000816  01                 	db	1
   158  000817  02                 	db	2
   159  000818  02                 	db	2
   160  000819  01                 	db	1
   161  00081A  00                 	db	0
   162  00081B  05                 	db	5
   163  00081C  24                 	db	36
   164  00081D  00                 	db	0
   165  00081E  10                 	db	16
   166  00081F  01                 	db	1
   167  000820  04                 	db	4
   168  000821  24                 	db	36
   169  000822  02                 	db	2
   170  000823  02                 	db	2
   171  000824  05                 	db	5
   172  000825  24                 	db	36
   173  000826  06                 	db	6
   174  000827  00                 	db	0
   175  000828  01                 	db	1
   176  000829  05                 	db	5
   177  00082A  24                 	db	36
   178  00082B  01                 	db	1
   179  00082C  00                 	db	0
   180  00082D  01                 	db	1
   181  00082E  07                 	db	7
   182  00082F  05                 	db	5
   183  000830  81                 	db	129
   184  000831  03                 	db	3
   185  000832  0A                 	db	10
   186  000833  00                 	db	0
   187  000834  02                 	db	2
   188  000835  09                 	db	9
   189  000836  04                 	db	4
   190  000837  01                 	db	1
   191  000838  00                 	db	0
   192  000839  02                 	db	2
   193  00083A  0A                 	db	10
   194  00083B  00                 	db	0
   195  00083C  00                 	db	0
   196  00083D  00                 	db	0
   197  00083E  07                 	db	7
   198  00083F  05                 	db	5
   199  000840  02                 	db	2
   200  000841  02                 	db	2
   201  000842  40                 	db	64
   202  000843  00                 	db	0
   203  000844  00                 	db	0
   204  000845  07                 	db	7
   205  000846  05                 	db	5
   206  000847  82                 	db	130
   207  000848  02                 	db	2
   208  000849  40                 	db	64
   209  00084A  00                 	db	0
   210  00084B  00                 	db	0
   211  00084C                     __end_of_configDescriptor1:
   212                           	opt callstack 0
   213  00084C                     _sd001:
   214                           	opt callstack 0
   215  00084C  34                 	db	52
   216  00084D  03                 	db	3
   217  00084E  004D               	dw	77
   218  000850  0069               	dw	105
   219  000852  0063               	dw	99
   220  000854  0072               	dw	114
   221  000856  006F               	dw	111
   222  000858  0063               	dw	99
   223  00085A  0068               	dw	104
   224  00085C  0069               	dw	105
   225  00085E  0070               	dw	112
   226  000860  0020               	dw	32
   227  000862  0054               	dw	84
   228  000864  0065               	dw	101
   229  000866  0063               	dw	99
   230  000868  0068               	dw	104
   231  00086A  006E               	dw	110
   232  00086C  006F               	dw	111
   233  00086E  006C               	dw	108
   234  000870  006F               	dw	111
   235  000872  0067               	dw	103
   236  000874  0079               	dw	121
   237  000876  0020               	dw	32
   238  000878  0049               	dw	73
   239  00087A  006E               	dw	110
   240  00087C  0063               	dw	99
   241  00087E  002E               	dw	46
   242  000880                     __end_of_sd001:
   243                           	opt callstack 0
   244  000880                     _sd002:
   245                           	opt callstack 0
   246  000880  18                 	db	24
   247  000881  03                 	db	3
   248  000882  0050               	dw	80
   249  000884  0049               	dw	73
   250  000886  0043               	dw	67
   251  000888  0031               	dw	49
   252  00088A  0038               	dw	56
   253  00088C  0046               	dw	70
   254  00088E  0034               	dw	52
   255  000890  0035               	dw	53
   256  000892  004B               	dw	75
   257  000894  0035               	dw	53
   258  000896  0030               	dw	48
   259  000898                     __end_of_sd002:
   260                           	opt callstack 0
   261  000898                     _device_dsc:
   262                           	opt callstack 0
   263  000898  12                 	db	18
   264  000899  01                 	db	1
   265  00089A  0200               	dw	512
   266  00089C  02                 	db	2
   267  00089D  00                 	db	0
   268  00089E  00                 	db	0
   269  00089F  08                 	db	8
   270  0008A0  04D8               	dw	1240
   271  0008A2  000A               	dw	10
   272  0008A4  0100               	dw	256
   273  0008A6  01                 	db	1
   274  0008A7  02                 	db	2
   275  0008A8  00                 	db	0
   276  0008A9  01                 	db	1
   277  0008AA                     __end_of_device_dsc:
   278                           	opt callstack 0
   279  0008AA                     _sd000:
   280                           	opt callstack 0
   281  0008AA  04                 	db	4
   282  0008AB  03                 	db	3
   283  0008AC  0409               	dw	1033
   284  0008AE                     __end_of_sd000:
   285                           	opt callstack 0
   286  0000                     _ANSELA	set	3931
   287  0000                     _ANSELE	set	3935
   288  0000                     _ANSELB	set	3932
   289  0000                     _ANSELC	set	3933
   290  0000                     _ANSELD	set	3934
   291  0000                     _ACTCON	set	4021
   292  0000                     _OSCTUNE	set	3995
   293  0000                     _OSCCON2	set	4050
   294  0000                     _OSCCON	set	4051
   295  0000                     _RCONbits	set	4048
   296  0000                     _TMR0H	set	4055
   297  0000                     _TMR0L	set	4054
   298  0000                     _T0CON	set	4053
   299  0000                     _UEP0bits	set	3946
   300  0000                     _IPR3bits	set	4005
   301  0000                     _UCON	set	3936
   302  0000                     _USTAT	set	3937
   303  0000                     _PIR3bits	set	4004
   304  0000                     _UIEbits	set	3940
   305  0000                     _UIRbits	set	3941
   306  0000                     _UADDR	set	3939
   307  0000                     _UCONbits	set	3936
   308  0000                     _UIE	set	3940
   309  0000                     _UEIE	set	3942
   310  0000                     _UCFG	set	3938
   311  0000                     _UIR	set	3941
   312  0000                     _UEIR	set	3943
   313  0000                     _PIE3bits	set	4003
   314  0000                     _INTCONbits	set	4082
   315  0000                     _INTCON2bits	set	4081
   316  0000                     _WPUB	set	3973
   317  0000                     _TRISD	set	3989
   318  0000                     _TRISC	set	3988
   319  0000                     _TRISB	set	3987
   320  0000                     _TRISA	set	3986
   321  0000                     _TRISE	set	3990
   322  0000                     _LATC	set	3979
   323  0000                     _LATB	set	3978
   324  0000                     _LATA	set	3977
   325  0000                     _LATD	set	3980
   326  0000                     _LATE	set	3981
   327  0000                     _UEP1	set	3947
   328  0000                     _UEP0	set	3946
   329  0000                     _PLLRDY	set	32407
   330  0000                     _USBIF	set	32034
   331  0000                     _GIE	set	32663
   332  0000                     _IPEN	set	32391
   333  0000                     _PEIE	set	32662
   334  0000                     _USBIP	set	32042
   335  0000                     _USBIE	set	32026
   336  0000                     _LATC0	set	31832
   337  0000                     _TMR0IE	set	32661
   338  0000                     _TMR0IP	set	32650
   339  0000                     _TMR0IF	set	32658
   340  0000                     _TMR0ON	set	32431
   341  0008AE                     STR_1:
   342                           
   343                           ; BSR set to: 0
   344  0008AE  74                 	db	116	;'t'
   345  0008AF  25                 	db	37
   346  0008B0  63                 	db	99	;'c'
   347  0008B1  20                 	db	32
   348  0008B2  68                 	db	104	;'h'
   349  0008B3  25                 	db	37
   350  0008B4  63                 	db	99	;'c'
   351  0008B5  20                 	db	32
   352  0008B6  0A                 	db	10
   353  0008B7  00                 	db	0
   354  0000                     
   355                           ; #config settings
   356  0008B8  00                 	db	0	; dummy byte at the end
   357  0000                     
   358                           	psect	cinit
   359  00381A                     __pcinit:
   360                           	opt callstack 0
   361  00381A                     start_initialization:
   362                           	opt callstack 0
   363  00381A                     __initialization:
   364                           	opt callstack 0
   365                           
   366                           ; Clear objects allocated to BANK1 (167 bytes)
   367  00381A  EE01  F000         	lfsr	0,__pbssBANK1
   368  00381E  0EA7               	movlw	167
   369  003820                     clear_0:
   370  003820  6AEE               	clrf	postinc0,c
   371  003822  06E8               	decf	wreg,f,c
   372  003824  E1FD               	bnz	clear_0
   373                           
   374                           ; Clear objects allocated to BANK0 (67 bytes)
   375  003826  EE00  F0B0         	lfsr	0,__pbssBANK0
   376  00382A  0E43               	movlw	67
   377  00382C                     clear_1:
   378  00382C  6AEE               	clrf	postinc0,c
   379  00382E  06E8               	decf	wreg,f,c
   380  003830  E1FD               	bnz	clear_1
   381                           
   382                           ; Clear objects allocated to COMRAM (40 bytes)
   383  003832  EE00  F02A         	lfsr	0,__pbssCOMRAM
   384  003836  0E28               	movlw	40
   385  003838                     clear_2:
   386  003838  6AEE               	clrf	postinc0,c
   387  00383A  06E8               	decf	wreg,f,c
   388  00383C  E1FD               	bnz	clear_2
   389  00383E                     end_of_initialization:
   390                           	opt callstack 0
   391  00383E                     __end_of__initialization:
   392                           	opt callstack 0
   393  00383E  9052               	bcf	int$flags,0,c	;clear compiler interrupt flag (level 1)
   394  003840  9252               	bcf	int$flags,1,c	;clear compiler interrupt flag (level 2)
   395  003842  0E00               	movlw	low (__Lmediumconst shr (0+16))
   396  003844  6EF8               	movwf	tblptru,c
   397  003846  0100               	movlb	0
   398  003848  EF3D  F01C         	goto	_main	;jump to C main() function
   399                           
   400                           	psect	bssCOMRAM
   401  00002A                     __pbssCOMRAM:
   402                           	opt callstack 0
   403  00002A                     _BaudRateGen:
   404                           	opt callstack 0
   405  00002A                     	ds	4
   406  00002E                     _USB1msTickCount:
   407                           	opt callstack 0
   408  00002E                     	ds	4
   409  000032                     _cont:
   410                           	opt callstack 0
   411  000032                     	ds	2
   412  000034                     _pDst:
   413                           	opt callstack 0
   414  000034                     	ds	2
   415  000036                     _pBDTEntryEP0OutNext:
   416                           	opt callstack 0
   417  000036                     	ds	2
   418  000038                     _pBDTEntryEP0OutCurrent:
   419                           	opt callstack 0
   420  000038                     	ds	2
   421  00003A                     _control_signal_bitmap:
   422                           	opt callstack 0
   423  00003A                     	ds	1
   424  00003B                     _USBDeferOUTDataStagePackets:
   425                           	opt callstack 0
   426  00003B                     	ds	1
   427  00003C                     _USBDeferINDataStagePackets:
   428                           	opt callstack 0
   429  00003C                     	ds	1
   430  00003D                     _USBStatusStageEnabledFlag2:
   431                           	opt callstack 0
   432  00003D                     	ds	1
   433  00003E                     _USBStatusStageEnabledFlag1:
   434                           	opt callstack 0
   435  00003E                     	ds	1
   436  00003F                     _USBDeferStatusStagePacket:
   437                           	opt callstack 0
   438  00003F                     	ds	1
   439  000040                     _USBStatusStageTimeoutCounter:
   440                           	opt callstack 0
   441  000040                     	ds	1
   442  000041                     _BothEP0OutUOWNsSet:
   443                           	opt callstack 0
   444  000041                     	ds	1
   445  000042                     _endpoint_number:
   446                           	opt callstack 0
   447  000042                     	ds	1
   448  000043                     _RemoteWakeup:
   449                           	opt callstack 0
   450  000043                     	ds	1
   451  000044                     _controlTransferState:
   452                           	opt callstack 0
   453  000044                     	ds	1
   454  000045                     _shortPacketStatus:
   455                           	opt callstack 0
   456  000045                     	ds	1
   457  000046                     _USBDeviceState:
   458                           	opt callstack 0
   459  000046                     	ds	1
   460  000047                     _line_coding:
   461                           	opt callstack 0
   462  000047                     	ds	7
   463  00004E                     _USBAlternateInterface:
   464                           	opt callstack 0
   465  00004E                     	ds	2
   466  000050                     _USTATcopy:
   467                           	opt callstack 0
   468  000050                     	ds	1
   469  000051                     _USBActiveConfiguration:
   470                           	opt callstack 0
   471  000051                     	ds	1
   472                           
   473                           	psect	bssBANK0
   474  0000B0                     __pbssBANK0:
   475                           	opt callstack 0
   476  0000B0                     _cdc_notice:
   477                           	opt callstack 0
   478  0000B0                     	ds	10
   479  0000BA                     _outPipes:
   480                           	opt callstack 0
   481  0000BA                     	ds	8
   482  0000C2                     _inPipes:
   483                           	opt callstack 0
   484  0000C2                     	ds	6
   485  0000C8                     _pBDTEntryIn:
   486                           	opt callstack 0
   487  0000C8                     	ds	6
   488  0000CE                     _pBDTEntryOut:
   489                           	opt callstack 0
   490  0000CE                     	ds	6
   491  0000D4                     _pCDCDst:
   492                           	opt callstack 0
   493  0000D4                     	ds	3
   494  0000D7                     _pCDCSrc:
   495                           	opt callstack 0
   496  0000D7                     	ds	3
   497  0000DA                     _ep_data_out:
   498                           	opt callstack 0
   499  0000DA                     	ds	3
   500  0000DD                     _ep_data_in:
   501                           	opt callstack 0
   502  0000DD                     	ds	3
   503  0000E0                     _flags:
   504                           	opt callstack 0
   505  0000E0                     	ds	2
   506  0000E2                     _CDCDataInHandle:
   507                           	opt callstack 0
   508  0000E2                     	ds	2
   509  0000E4                     _CDCDataOutHandle:
   510                           	opt callstack 0
   511  0000E4                     	ds	2
   512  0000E6                     _cdc_mem_type:
   513                           	opt callstack 0
   514  0000E6                     	ds	1
   515  0000E7                     _cdc_tx_len:
   516                           	opt callstack 0
   517  0000E7                     	ds	1
   518  0000E8                     _cdc_rx_len:
   519                           	opt callstack 0
   520  0000E8                     	ds	1
   521  0000E9                     _USBTicksSinceSuspendEnd:
   522                           	opt callstack 0
   523  0000E9                     	ds	1
   524  0000EA                     _USBBusIsSuspended:
   525                           	opt callstack 0
   526  0000EA                     	ds	1
   527  0000EB                     _dummy_encapsulated_cmd_response:
   528                           	opt callstack 0
   529  0000EB                     	ds	8
   530                           
   531                           	psect	bssBANK1
   532  000100                     __pbssBANK1:
   533                           	opt callstack 0
   534  000100                     _nout:
   535                           	opt callstack 0
   536  000100                     	ds	2
   537  000102                     _width:
   538                           	opt callstack 0
   539  000102                     	ds	2
   540  000104                     _prec:
   541                           	opt callstack 0
   542  000104                     	ds	2
   543  000106                     _cdc_trf_state:
   544                           	opt callstack 0
   545  000106                     	ds	1
   546  000107                     _buffer:
   547                           	opt callstack 0
   548  000107                     	ds	64
   549  000147                     _USB_Out_Buffer:
   550                           	opt callstack 0
   551  000147                     	ds	64
   552  000187                     _dbuf:
   553                           	opt callstack 0
   554  000187                     	ds	32
   555                           
   556                           	psect	cstackBANK1
   557  0001A7                     __pcstackBANK1:
   558                           	opt callstack 0
   559  0001A7                     ?_USBTransferOnePacket:
   560                           	opt callstack 0
   561  0001A7                     ?_strlen:
   562                           	opt callstack 0
   563  0001A7                     USBTransferOnePacket@dir:
   564                           	opt callstack 0
   565  0001A7                     putrsUSBUSART@data:
   566                           	opt callstack 0
   567  0001A7                     memset@dest:
   568                           	opt callstack 0
   569  0001A7                     fputc@c:
   570                           	opt callstack 0
   571  0001A7                     strlen@s:
   572                           	opt callstack 0
   573                           
   574                           ; 2 bytes @ 0x0
   575  0001A7                     	ds	1
   576  0001A8                     USBTransferOnePacket@data:
   577                           	opt callstack 0
   578                           
   579                           ; 2 bytes @ 0x1
   580  0001A8                     	ds	1
   581  0001A9                     putrsUSBUSART@pData:
   582                           	opt callstack 0
   583  0001A9                     memset@c:
   584                           	opt callstack 0
   585  0001A9                     fputc@fp:
   586                           	opt callstack 0
   587  0001A9                     strlen@a:
   588                           	opt callstack 0
   589                           
   590                           ; 2 bytes @ 0x2
   591  0001A9                     	ds	1
   592  0001AA                     USBTransferOnePacket@len:
   593                           	opt callstack 0
   594                           
   595                           ; 1 bytes @ 0x3
   596  0001AA                     	ds	1
   597  0001AB                     ??_USBTransferOnePacket:
   598  0001AB                     ??_fputc:
   599  0001AB                     putrsUSBUSART@len:
   600                           	opt callstack 0
   601  0001AB                     memset@n:
   602                           	opt callstack 0
   603                           
   604                           ; 2 bytes @ 0x4
   605  0001AB                     	ds	2
   606  0001AD                     ??_memset:
   607                           
   608                           ; 1 bytes @ 0x6
   609  0001AD                     	ds	2
   610  0001AF                     USBTransferOnePacket@ep:
   611                           	opt callstack 0
   612  0001AF                     memset@k:
   613                           	opt callstack 0
   614                           
   615                           ; 2 bytes @ 0x8
   616  0001AF                     	ds	1
   617  0001B0                     USBTransferOnePacket@handle:
   618                           	opt callstack 0
   619  0001B0                     fputs@s:
   620                           	opt callstack 0
   621                           
   622                           ; 2 bytes @ 0x9
   623  0001B0                     	ds	1
   624  0001B1                     memset@s:
   625                           	opt callstack 0
   626                           
   627                           ; 2 bytes @ 0xA
   628  0001B1                     	ds	1
   629  0001B2                     CDCTxService@i:
   630                           	opt callstack 0
   631  0001B2                     getsUSBUSART@buffer:
   632                           	opt callstack 0
   633  0001B2                     fputs@fp:
   634                           	opt callstack 0
   635                           
   636                           ; 2 bytes @ 0xB
   637  0001B2                     	ds	1
   638  0001B3                     USBDeviceInit@i:
   639                           	opt callstack 0
   640  0001B3                     CDCTxService@byte_to_send:
   641                           	opt callstack 0
   642                           
   643                           ; 1 bytes @ 0xC
   644  0001B3                     	ds	1
   645  0001B4                     getsUSBUSART@len:
   646                           	opt callstack 0
   647  0001B4                     fputs@c:
   648                           	opt callstack 0
   649                           
   650                           ; 1 bytes @ 0xD
   651  0001B4                     	ds	1
   652  0001B5                     fputs@i:
   653                           	opt callstack 0
   654                           
   655                           ; 2 bytes @ 0xE
   656  0001B5                     	ds	2
   657  0001B7                     ?_pad:
   658                           	opt callstack 0
   659  0001B7                     pad@fp:
   660                           	opt callstack 0
   661                           
   662                           ; 2 bytes @ 0x10
   663  0001B7                     	ds	2
   664  0001B9                     pad@buf:
   665                           	opt callstack 0
   666                           
   667                           ; 2 bytes @ 0x12
   668  0001B9                     	ds	2
   669  0001BB                     pad@p:
   670                           	opt callstack 0
   671                           
   672                           ; 2 bytes @ 0x14
   673  0001BB                     	ds	2
   674  0001BD                     ??_pad:
   675                           
   676                           ; 1 bytes @ 0x16
   677  0001BD                     	ds	1
   678  0001BE                     pad@i:
   679                           	opt callstack 0
   680                           
   681                           ; 2 bytes @ 0x17
   682  0001BE                     	ds	2
   683  0001C0                     pad@w:
   684                           	opt callstack 0
   685                           
   686                           ; 2 bytes @ 0x19
   687  0001C0                     	ds	2
   688  0001C2                     ?_ctoa:
   689                           	opt callstack 0
   690  0001C2                     ctoa@fp:
   691                           	opt callstack 0
   692                           
   693                           ; 2 bytes @ 0x1B
   694  0001C2                     	ds	2
   695  0001C4                     ctoa@c:
   696                           	opt callstack 0
   697                           
   698                           ; 1 bytes @ 0x1D
   699  0001C4                     	ds	1
   700  0001C5                     ctoa@w:
   701                           	opt callstack 0
   702                           
   703                           ; 2 bytes @ 0x1E
   704  0001C5                     	ds	2
   705  0001C7                     ?_vfpfcnvrt:
   706                           	opt callstack 0
   707  0001C7                     vfpfcnvrt@fp:
   708                           	opt callstack 0
   709                           
   710                           ; 2 bytes @ 0x20
   711  0001C7                     	ds	2
   712  0001C9                     vfpfcnvrt@fmt:
   713                           	opt callstack 0
   714                           
   715                           ; 2 bytes @ 0x22
   716  0001C9                     	ds	2
   717  0001CB                     vfpfcnvrt@ap:
   718                           	opt callstack 0
   719                           
   720                           ; 2 bytes @ 0x24
   721  0001CB                     	ds	2
   722  0001CD                     ??_vfpfcnvrt:
   723                           
   724                           ; 1 bytes @ 0x26
   725  0001CD                     	ds	2
   726  0001CF                     vfpfcnvrt@c:
   727                           	opt callstack 0
   728                           
   729                           ; 1 bytes @ 0x28
   730  0001CF                     	ds	1
   731  0001D0                     ?_vfprintf:
   732                           	opt callstack 0
   733  0001D0                     vfprintf@fp:
   734                           	opt callstack 0
   735                           
   736                           ; 2 bytes @ 0x29
   737  0001D0                     	ds	2
   738  0001D2                     vfprintf@fmt:
   739                           	opt callstack 0
   740                           
   741                           ; 2 bytes @ 0x2B
   742  0001D2                     	ds	2
   743  0001D4                     vfprintf@ap:
   744                           	opt callstack 0
   745                           
   746                           ; 2 bytes @ 0x2D
   747  0001D4                     	ds	2
   748  0001D6                     vfprintf@cfmt:
   749                           	opt callstack 0
   750                           
   751                           ; 2 bytes @ 0x2F
   752  0001D6                     	ds	2
   753  0001D8                     ?_sprintf:
   754                           	opt callstack 0
   755  0001D8                     sprintf@s:
   756                           	opt callstack 0
   757                           
   758                           ; 2 bytes @ 0x31
   759  0001D8                     	ds	2
   760  0001DA                     sprintf@fmt:
   761                           	opt callstack 0
   762                           
   763                           ; 2 bytes @ 0x33
   764  0001DA                     	ds	6
   765  0001E0                     
   766                           ; 1 bytes @ 0x39
   767  0001E0                     	ds	2
   768  0001E2                     sprintf@ap:
   769                           	opt callstack 0
   770                           
   771                           ; 2 bytes @ 0x3B
   772  0001E2                     	ds	2
   773  0001E4                     sprintf@f:
   774                           	opt callstack 0
   775                           
   776                           ; 6 bytes @ 0x3D
   777  0001E4                     	ds	6
   778  0001EA                     ??_USBTask:
   779                           
   780                           ; 1 bytes @ 0x43
   781  0001EA                     	ds	2
   782  0001EC                     USBTask@READ:
   783                           	opt callstack 0
   784                           
   785                           ; 1 bytes @ 0x45
   786  0001EC                     	ds	1
   787  0001ED                     
   788                           ; 1 bytes @ 0x46
   789                           
   790                           	psect	cstackBANK0
   791  000060                     __pcstackBANK0:
   792                           	opt callstack 0
   793  000060                     ?i1_USBTransferOnePacket:
   794                           	opt callstack 0
   795  000060                     ?i1_strlen:
   796                           	opt callstack 0
   797  000060                     i1USBTransferOnePacket@dir:
   798                           	opt callstack 0
   799  000060                     i1putrsUSBUSART@data:
   800                           	opt callstack 0
   801  000060                     i1fputc@c:
   802                           	opt callstack 0
   803  000060                     i1strlen@s:
   804                           	opt callstack 0
   805                           
   806                           ; 2 bytes @ 0x0
   807  000060                     	ds	1
   808  000061                     i1USBTransferOnePacket@data:
   809                           	opt callstack 0
   810                           
   811                           ; 2 bytes @ 0x1
   812  000061                     	ds	1
   813  000062                     i1putrsUSBUSART@pData:
   814                           	opt callstack 0
   815  000062                     i1fputc@fp:
   816                           	opt callstack 0
   817  000062                     i1strlen@a:
   818                           	opt callstack 0
   819                           
   820                           ; 2 bytes @ 0x2
   821  000062                     	ds	1
   822  000063                     i1USBTransferOnePacket@len:
   823                           	opt callstack 0
   824                           
   825                           ; 1 bytes @ 0x3
   826  000063                     	ds	1
   827  000064                     ??i1_USBTransferOnePacket:
   828  000064                     ??i1_fputc:
   829  000064                     i1putrsUSBUSART@len:
   830                           	opt callstack 0
   831                           
   832                           ; 1 bytes @ 0x4
   833  000064                     	ds	4
   834  000068                     i1USBTransferOnePacket@ep:
   835                           	opt callstack 0
   836                           
   837                           ; 1 bytes @ 0x8
   838  000068                     	ds	1
   839  000069                     i1USBTransferOnePacket@handle:
   840                           	opt callstack 0
   841  000069                     i1fputs@s:
   842                           	opt callstack 0
   843                           
   844                           ; 2 bytes @ 0x9
   845  000069                     	ds	2
   846  00006B                     i1CDCTxService@i:
   847                           	opt callstack 0
   848  00006B                     i1fputs@fp:
   849                           	opt callstack 0
   850                           
   851                           ; 2 bytes @ 0xB
   852  00006B                     	ds	1
   853  00006C                     i1CDCTxService@byte_to_send:
   854                           	opt callstack 0
   855                           
   856                           ; 1 bytes @ 0xC
   857  00006C                     	ds	1
   858  00006D                     i1fputs@c:
   859                           	opt callstack 0
   860                           
   861                           ; 1 bytes @ 0xD
   862  00006D                     	ds	1
   863  00006E                     i1fputs@i:
   864                           	opt callstack 0
   865                           
   866                           ; 2 bytes @ 0xE
   867  00006E                     	ds	2
   868  000070                     ?i1_pad:
   869                           	opt callstack 0
   870  000070                     i1pad@fp:
   871                           	opt callstack 0
   872                           
   873                           ; 2 bytes @ 0x10
   874  000070                     	ds	2
   875  000072                     i1pad@buf:
   876                           	opt callstack 0
   877                           
   878                           ; 2 bytes @ 0x12
   879  000072                     	ds	2
   880  000074                     i1pad@p:
   881                           	opt callstack 0
   882                           
   883                           ; 2 bytes @ 0x14
   884  000074                     	ds	2
   885  000076                     ??i1_pad:
   886                           
   887                           ; 1 bytes @ 0x16
   888  000076                     	ds	1
   889  000077                     i1pad@i:
   890                           	opt callstack 0
   891                           
   892                           ; 2 bytes @ 0x17
   893  000077                     	ds	2
   894  000079                     i1pad@w:
   895                           	opt callstack 0
   896                           
   897                           ; 2 bytes @ 0x19
   898  000079                     	ds	2
   899  00007B                     ?i1_ctoa:
   900                           	opt callstack 0
   901  00007B                     i1ctoa@fp:
   902                           	opt callstack 0
   903                           
   904                           ; 2 bytes @ 0x1B
   905  00007B                     	ds	2
   906  00007D                     i1ctoa@c:
   907                           	opt callstack 0
   908                           
   909                           ; 1 bytes @ 0x1D
   910  00007D                     	ds	1
   911  00007E                     i1ctoa@w:
   912                           	opt callstack 0
   913                           
   914                           ; 2 bytes @ 0x1E
   915  00007E                     	ds	2
   916  000080                     ?i1_vfpfcnvrt:
   917                           	opt callstack 0
   918  000080                     i1vfpfcnvrt@fp:
   919                           	opt callstack 0
   920                           
   921                           ; 2 bytes @ 0x20
   922  000080                     	ds	2
   923  000082                     i1vfpfcnvrt@fmt:
   924                           	opt callstack 0
   925                           
   926                           ; 2 bytes @ 0x22
   927  000082                     	ds	2
   928  000084                     i1vfpfcnvrt@ap:
   929                           	opt callstack 0
   930                           
   931                           ; 2 bytes @ 0x24
   932  000084                     	ds	2
   933  000086                     ??i1_vfpfcnvrt:
   934                           
   935                           ; 1 bytes @ 0x26
   936  000086                     	ds	2
   937  000088                     i1vfpfcnvrt@c:
   938                           	opt callstack 0
   939                           
   940                           ; 1 bytes @ 0x28
   941  000088                     	ds	1
   942  000089                     ?i1_vfprintf:
   943                           	opt callstack 0
   944  000089                     i1vfprintf@fp:
   945                           	opt callstack 0
   946                           
   947                           ; 2 bytes @ 0x29
   948  000089                     	ds	2
   949  00008B                     i1vfprintf@fmt:
   950                           	opt callstack 0
   951                           
   952                           ; 2 bytes @ 0x2B
   953  00008B                     	ds	2
   954  00008D                     i1vfprintf@ap:
   955                           	opt callstack 0
   956                           
   957                           ; 2 bytes @ 0x2D
   958  00008D                     	ds	2
   959  00008F                     i1vfprintf@cfmt:
   960                           	opt callstack 0
   961                           
   962                           ; 2 bytes @ 0x2F
   963  00008F                     	ds	2
   964  000091                     ?i1_sprintf:
   965                           	opt callstack 0
   966  000091                     i1sprintf@s:
   967                           	opt callstack 0
   968                           
   969                           ; 2 bytes @ 0x31
   970  000091                     	ds	2
   971  000093                     i1sprintf@fmt:
   972                           	opt callstack 0
   973                           
   974                           ; 2 bytes @ 0x33
   975  000093                     	ds	6
   976  000099                     i1sprintf@ret:
   977                           	opt callstack 0
   978                           
   979                           ; 2 bytes @ 0x39
   980  000099                     	ds	2
   981  00009B                     i1sprintf@ap:
   982                           	opt callstack 0
   983                           
   984                           ; 2 bytes @ 0x3B
   985  00009B                     	ds	2
   986  00009D                     i1sprintf@f:
   987                           	opt callstack 0
   988                           
   989                           ; 6 bytes @ 0x3D
   990  00009D                     	ds	6
   991  0000A3                     ??_ISR:
   992                           
   993                           ; 1 bytes @ 0x43
   994  0000A3                     	ds	13
   995                           
   996                           	psect	cstackCOMRAM
   997  000001                     __pcstackCOMRAM:
   998                           	opt callstack 0
   999  000001                     ??_USBStdGetDscHandler:
  1000  000001                     ??_USBStdGetStatusHandler:
  1001  000001                     ??_USBCheckCDCRequest:
  1002  000001                     ?i2_USBTransferOnePacket:
  1003                           	opt callstack 0
  1004  000001                     USBConfigureEndpoint@direction:
  1005                           	opt callstack 0
  1006  000001                     USBCtrlTrfTxService@byteToSend:
  1007                           	opt callstack 0
  1008  000001                     USBCtrlTrfRxService@i:
  1009                           	opt callstack 0
  1010  000001                     i2USBTransferOnePacket@dir:
  1011                           	opt callstack 0
  1012  000001                     memcpy@d1:
  1013                           	opt callstack 0
  1014  000001                     i2memset@dest:
  1015                           	opt callstack 0
  1016                           
  1017                           ; 2 bytes @ 0x0
  1018  000001                     	ds	1
  1019  000002                     ??_USBConfigureEndpoint:
  1020  000002                     USBCtrlTrfRxService@byteToRead:
  1021                           	opt callstack 0
  1022  000002                     USBCtrlTrfInHandler@lastDTS:
  1023                           	opt callstack 0
  1024  000002                     i2USBTransferOnePacket@data:
  1025                           	opt callstack 0
  1026                           
  1027                           ; 2 bytes @ 0x1
  1028  000002                     	ds	1
  1029  000003                     USBStdGetStatusHandler@p:
  1030                           	opt callstack 0
  1031  000003                     memcpy@s1:
  1032                           	opt callstack 0
  1033  000003                     i2memset@c:
  1034                           	opt callstack 0
  1035                           
  1036                           ; 2 bytes @ 0x2
  1037  000003                     	ds	1
  1038  000004                     i2USBTransferOnePacket@len:
  1039                           	opt callstack 0
  1040                           
  1041                           ; 1 bytes @ 0x3
  1042  000004                     	ds	1
  1043  000005                     ??i2_USBTransferOnePacket:
  1044  000005                     memcpy@n:
  1045                           	opt callstack 0
  1046  000005                     i2memset@n:
  1047                           	opt callstack 0
  1048                           
  1049                           ; 2 bytes @ 0x4
  1050  000005                     	ds	1
  1051  000006                     USBConfigureEndpoint@EPNum:
  1052                           	opt callstack 0
  1053                           
  1054                           ; 1 bytes @ 0x5
  1055  000006                     	ds	1
  1056  000007                     ??i2_memset:
  1057  000007                     USBConfigureEndpoint@handle:
  1058                           	opt callstack 0
  1059  000007                     memcpy@d:
  1060                           	opt callstack 0
  1061                           
  1062                           ; 2 bytes @ 0x6
  1063  000007                     	ds	2
  1064  000009                     USBEnableEndpoint@options:
  1065                           	opt callstack 0
  1066  000009                     i2USBTransferOnePacket@ep:
  1067                           	opt callstack 0
  1068  000009                     memcpy@s:
  1069                           	opt callstack 0
  1070  000009                     i2memset@k:
  1071                           	opt callstack 0
  1072                           
  1073                           ; 2 bytes @ 0x8
  1074  000009                     	ds	1
  1075  00000A                     USBEnableEndpoint@p:
  1076                           	opt callstack 0
  1077  00000A                     i2USBTransferOnePacket@handle:
  1078                           	opt callstack 0
  1079                           
  1080                           ; 2 bytes @ 0x9
  1081  00000A                     	ds	1
  1082  00000B                     memcpy@tmp:
  1083                           	opt callstack 0
  1084  00000B                     i2memset@s:
  1085                           	opt callstack 0
  1086                           
  1087                           ; 2 bytes @ 0xA
  1088  00000B                     	ds	1
  1089  00000C                     USBEnableEndpoint@ep:
  1090                           	opt callstack 0
  1091                           
  1092                           ; 1 bytes @ 0xB
  1093  00000C                     	ds	1
  1094  00000D                     i2USBDeviceInit@i:
  1095                           	opt callstack 0
  1096  00000D                     USER_USB_CALLBACK_EVENT_HANDLER@event:
  1097                           	opt callstack 0
  1098                           
  1099                           ; 2 bytes @ 0xC
  1100  00000D                     	ds	2
  1101  00000F                     USER_USB_CALLBACK_EVENT_HANDLER@pdata:
  1102                           	opt callstack 0
  1103                           
  1104                           ; 2 bytes @ 0xE
  1105  00000F                     	ds	2
  1106  000011                     USER_USB_CALLBACK_EVENT_HANDLER@size:
  1107                           	opt callstack 0
  1108                           
  1109                           ; 2 bytes @ 0x10
  1110  000011                     	ds	2
  1111  000013                     ??_USER_USB_CALLBACK_EVENT_HANDLER:
  1112                           
  1113                           ; 1 bytes @ 0x12
  1114  000013                     	ds	2
  1115  000015                     ??_USBStdFeatureReqHandler:
  1116  000015                     USBStdSetCfgHandler@i:
  1117                           	opt callstack 0
  1118                           
  1119                           ; 1 bytes @ 0x14
  1120  000015                     	ds	2
  1121  000017                     USBStdFeatureReqHandler@pUEP:
  1122                           	opt callstack 0
  1123                           
  1124                           ; 2 bytes @ 0x16
  1125  000017                     	ds	2
  1126  000019                     USBStdFeatureReqHandler@current_ep_data:
  1127                           	opt callstack 0
  1128                           
  1129                           ; 1 bytes @ 0x18
  1130  000019                     	ds	1
  1131  00001A                     USBStdFeatureReqHandler@p:
  1132                           	opt callstack 0
  1133                           
  1134                           ; 2 bytes @ 0x19
  1135  00001A                     	ds	2
  1136  00001C                     ??_USBCheckStdRequest:
  1137                           
  1138                           ; 1 bytes @ 0x1B
  1139  00001C                     	ds	2
  1140  00001E                     ??_USBCtrlEPService:
  1141  00001E                     
  1142                           ; 1 bytes @ 0x1D
  1143  00001E                     	ds	1
  1144  00001F                     USBDeviceTasks@i:
  1145                           	opt callstack 0
  1146                           
  1147                           ; 1 bytes @ 0x1E
  1148  00001F                     	ds	1
  1149  000020                     ??_INTERRUPT_InterruptManagerHigh:
  1150                           
  1151                           ; 1 bytes @ 0x1F
  1152  000020                     	ds	10
  1153                           
  1154 ;;
  1155 ;;Main: autosize = 0, tempsize = 0, incstack = 0, save=0
  1156 ;;
  1157 ;; *************** function _main *****************
  1158 ;; Defined at:
  1159 ;;		line 59 in file "main.c"
  1160 ;; Parameters:    Size  Location     Type
  1161 ;;		None
  1162 ;; Auto vars:     Size  Location     Type
  1163 ;;		None
  1164 ;; Return value:  Size  Location     Type
  1165 ;;                  1    wreg      void 
  1166 ;; Registers used:
  1167 ;;		wreg, fsr1l, fsr1h, fsr2l, fsr2h, status,2, status,0, tblptrl, tblptrh, tblptru, prodl, prodh, cstack
  1168 ;; Tracked objects:
  1169 ;;		On entry : 0/0
  1170 ;;		On exit  : 0/0
  1171 ;;		Unchanged: 0/0
  1172 ;; Data sizes:     COMRAM   BANK0   BANK1   BANK2   BANK3   BANK4   BANK5   BANK6   BANK7
  1173 ;;      Params:         0       0       0       0       0       0       0       0       0
  1174 ;;      Locals:         0       0       0       0       0       0       0       0       0
  1175 ;;      Temps:          0       0       0       0       0       0       0       0       0
  1176 ;;      Totals:         0       0       0       0       0       0       0       0       0
  1177 ;;Total ram usage:        0 bytes
  1178 ;; Hardware stack levels required when called:   28
  1179 ;; This function calls:
  1180 ;;		_SYSTEM_Initialize
  1181 ;;		_USBTask
  1182 ;; This function is called by:
  1183 ;;		Startup code after reset
  1184 ;; This function uses a non-reentrant model
  1185 ;;
  1186                           
  1187                           	psect	text0
  1188  00387A                     __ptext0:
  1189                           	opt callstack 0
  1190  00387A                     _main:
  1191                           	opt callstack 3
  1192  00387A                     
  1193                           ;main.c: 64:  SYSTEM_Initialize();
  1194  00387A  EC5F  F01C         	call	_SYSTEM_Initialize	;wreg free
  1195  00387E                     
  1196                           ;main.c: 79:     T0CON=0b00000110;
  1197  00387E  0E06               	movlw	6
  1198  003880  6ED5               	movwf	213,c	;volatile
  1199  003882                     
  1200                           ;main.c: 89:     TMR0L=18661 & 255;
  1201  003882  0EE5               	movlw	229
  1202  003884  6ED6               	movwf	214,c	;volatile
  1203  003886                     
  1204                           ;main.c: 90:     TMR0H=18661 >> 8;
  1205  003886  0E48               	movlw	72
  1206  003888  6ED7               	movwf	215,c	;volatile
  1207  00388A                     
  1208                           ;main.c: 91:     TMR0ON=1;
  1209  00388A  8ED5               	bsf	4053,7,c	;volatile
  1210  00388C                     
  1211                           ;main.c: 93:     TMR0IF=0;
  1212  00388C  94F2               	bcf	4082,2,c	;volatile
  1213  00388E                     
  1214                           ;main.c: 94:     TMR0IP=0;
  1215  00388E  94F1               	bcf	4081,2,c	;volatile
  1216  003890                     
  1217                           ;main.c: 95:     TMR0IE=1;
  1218  003890  8AF2               	bsf	4082,5,c	;volatile
  1219  003892                     l6029:
  1220                           
  1221                           ;main.c: 99:     USBTask();
  1222  003892  EC7B  F017         	call	_USBTask	;wreg free
  1223  003896  EF49  F01C         	goto	l6029
  1224  00389A  EF8E  F000         	goto	start
  1225  00389E                     __end_of_main:
  1226                           	opt callstack 0
  1227                           
  1228 ;; *************** function _USBTask *****************
  1229 ;; Defined at:
  1230 ;;		line 104 in file "main.c"
  1231 ;; Parameters:    Size  Location     Type
  1232 ;;		None
  1233 ;; Auto vars:     Size  Location     Type
  1234 ;;  READ            1   69[BANK1 ] unsigned char 
  1235 ;; Return value:  Size  Location     Type
  1236 ;;                  1    wreg      void 
  1237 ;; Registers used:
  1238 ;;		wreg, fsr1l, fsr1h, fsr2l, fsr2h, status,2, status,0, tblptrl, tblptrh, tblptru, prodl, prodh, cstack
  1239 ;; Tracked objects:
  1240 ;;		On entry : 0/0
  1241 ;;		On exit  : 0/0
  1242 ;;		Unchanged: 0/0
  1243 ;; Data sizes:     COMRAM   BANK0   BANK1   BANK2   BANK3   BANK4   BANK5   BANK6   BANK7
  1244 ;;      Params:         0       0       0       0       0       0       0       0       0
  1245 ;;      Locals:         0       0       1       0       0       0       0       0       0
  1246 ;;      Temps:          0       0       2       0       0       0       0       0       0
  1247 ;;      Totals:         0       0       3       0       0       0       0       0       0
  1248 ;;Total ram usage:        3 bytes
  1249 ;; Hardware stack levels used:    1
  1250 ;; Hardware stack levels required when called:   27
  1251 ;; This function calls:
  1252 ;;		_CDCTxService
  1253 ;;		_getsUSBUSART
  1254 ;;		_putrsUSBUSART
  1255 ;;		_sprintf
  1256 ;; This function is called by:
  1257 ;;		_main
  1258 ;; This function uses a non-reentrant model
  1259 ;;
  1260                           
  1261                           	psect	text1
  1262  002EF6                     __ptext1:
  1263                           	opt callstack 0
  1264  002EF6                     _USBTask:
  1265                           	opt callstack 3
  1266  002EF6                     
  1267                           ;main.c: 105:  if(USBDeviceState < CONFIGURED_STATE || (UCONbits.SUSPND == 1))
  1268  002EF6  0E1F               	movlw	31
  1269  002EF8  6446               	cpfsgt	_USBDeviceState^0,c	;volatile
  1270  002EFA  EF81  F017         	goto	u5041
  1271  002EFE  EF83  F017         	goto	u5040
  1272  002F02                     u5041:
  1273  002F02  EFCE  F017         	goto	l492
  1274  002F06                     u5040:
  1275  002F06  A260               	btfss	96,1,c	;volatile
  1276  002F08  EF88  F017         	goto	u5051
  1277  002F0C  EF8A  F017         	goto	u5050
  1278  002F10                     u5051:
  1279  002F10  EF8C  F017         	goto	l5893
  1280  002F14                     u5050:
  1281  002F14  EFCE  F017         	goto	l492
  1282  002F18                     l5893:
  1283                           
  1284                           ;main.c: 107:  uint8_t READ = getsUSBUSART(USB_Out_Buffer,64);
  1285  002F18  0E47               	movlw	low _USB_Out_Buffer
  1286  002F1A  0101               	movlb	1	; () banked
  1287  002F1C  6FB2               	movwf	getsUSBUSART@buffer& (0+255),b
  1288  002F1E  0E01               	movlw	high _USB_Out_Buffer
  1289  002F20  6FB3               	movwf	(getsUSBUSART@buffer+1)& (0+255),b
  1290  002F22  0E40               	movlw	64
  1291  002F24  6FB4               	movwf	getsUSBUSART@len& (0+255),b
  1292  002F26  EC71  F014         	call	_getsUSBUSART	;wreg free
  1293  002F2A  0101               	movlb	1	; () banked
  1294  002F2C  6FEC               	movwf	USBTask@READ& (0+255),b
  1295  002F2E                     
  1296                           ; BSR set to: 1
  1297                           ;main.c: 108:  if((cdc_trf_state == 0))
  1298  002F2E  5106               	movf	_cdc_trf_state& (0+255),w,b
  1299  002F30  A4D8               	btfss	status,2,c
  1300  002F32  EF9D  F017         	goto	u5061
  1301  002F36  EF9F  F017         	goto	u5060
  1302  002F3A                     u5061:
  1303  002F3A  EFCC  F017         	goto	l5905
  1304  002F3E                     u5060:
  1305  002F3E                     
  1306                           ; BSR set to: 1
  1307                           ;main.c: 109:  {;main.c: 110:  if(READ != 0){
  1308  002F3E  51EC               	movf	USBTask@READ& (0+255),w,b
  1309  002F40  B4D8               	btfsc	status,2,c
  1310  002F42  EFA5  F017         	goto	u5071
  1311  002F46  EFA7  F017         	goto	u5070
  1312  002F4A                     u5071:
  1313  002F4A  EFC0  F017         	goto	l5903
  1314  002F4E                     u5070:
  1315  002F4E                     
  1316                           ; BSR set to: 1
  1317                           ;main.c: 111:     sprintf(buffer,"t%c h%c \n",'i','o');
  1318  002F4E  0E07               	movlw	low _buffer
  1319  002F50  6FD8               	movwf	sprintf@s& (0+255),b
  1320  002F52  0E01               	movlw	high _buffer
  1321  002F54  6FD9               	movwf	(sprintf@s+1)& (0+255),b
  1322  002F56  0EAE               	movlw	low STR_1
  1323  002F58  6FDA               	movwf	sprintf@fmt& (0+255),b
  1324  002F5A  0E08               	movlw	high STR_1
  1325  002F5C  6FDB               	movwf	(sprintf@fmt+1)& (0+255),b
  1326  002F5E  0E00               	movlw	0
  1327  002F60  6FDD               	movwf	(?_sprintf+5)& (0+255),b
  1328  002F62  0E69               	movlw	105
  1329  002F64  6FDC               	movwf	(?_sprintf+4)& (0+255),b
  1330  002F66  0E00               	movlw	0
  1331  002F68  6FDF               	movwf	(?_sprintf+7)& (0+255),b
  1332  002F6A  0E6F               	movlw	111
  1333  002F6C  6FDE               	movwf	(?_sprintf+6)& (0+255),b
  1334  002F6E  EC99  F01A         	call	_sprintf	;wreg free
  1335  002F72                     
  1336                           ;main.c: 112:     putrsUSBUSART(buffer);
  1337  002F72  0E07               	movlw	low _buffer
  1338  002F74  0101               	movlb	1	; () banked
  1339  002F76  6FA7               	movwf	putrsUSBUSART@data& (0+255),b
  1340  002F78  0E01               	movlw	high _buffer
  1341  002F7A  6FA8               	movwf	(putrsUSBUSART@data+1)& (0+255),b
  1342  002F7C  EC96  F018         	call	_putrsUSBUSART	;wreg free
  1343  002F80                     l5903:
  1344                           
  1345                           ;main.c: 114:  _delay((unsigned long)((20)*(48000000/4000.0)));
  1346  002F80  0E02               	movlw	2
  1347  002F82  0101               	movlb	1	; () banked
  1348  002F84  6FEB               	movwf	(??_USBTask+1)& (0+255),b
  1349  002F86  0E38               	movlw	56
  1350  002F88  6FEA               	movwf	??_USBTask& (0+255),b
  1351  002F8A  0EAD               	movlw	173
  1352  002F8C                     u5317:
  1353  002F8C  2EE8               	decfsz	wreg,f,c
  1354  002F8E  D7FE               	bra	u5317
  1355  002F90  2FEA               	decfsz	??_USBTask& (0+255),f,b
  1356  002F92  D7FC               	bra	u5317
  1357  002F94  2FEB               	decfsz	(??_USBTask+1)& (0+255),f,b
  1358  002F96  D7FA               	bra	u5317
  1359  002F98                     l5905:
  1360                           
  1361                           ;main.c: 117:  CDCTxService();
  1362  002F98  EC1F  F007         	call	_CDCTxService	;wreg free
  1363  002F9C                     l492:
  1364  002F9C  0012               	return		;funcret
  1365  002F9E                     __end_of_USBTask:
  1366                           	opt callstack 0
  1367                           
  1368 ;; *************** function _sprintf *****************
  1369 ;; Defined at:
  1370 ;;		line 9 in file "C:\Program Files (x86)\Microchip\xc8\v2.10\pic\sources\c99\common\nf_sprintf.c"
  1371 ;; Parameters:    Size  Location     Type
  1372 ;;  s               2   49[BANK1 ] PTR unsigned char 
  1373 ;;		 -> buffer(64), 
  1374 ;;  fmt             2   51[BANK1 ] PTR const unsigned char 
  1375 ;;		 -> STR_2(10), STR_1(10), 
  1376 ;; Auto vars:     Size  Location     Type
  1377 ;;  f               6   61[BANK1 ] struct _IO_FILE
  1378 ;;  ap              2   59[BANK1 ] PTR void [1]
  1379 ;;		 -> ?_sprintf(2), 
  1380 ;;  ret             2    0        int 
  1381 ;; Return value:  Size  Location     Type
  1382 ;;                  2   49[BANK1 ] int 
  1383 ;; Registers used:
  1384 ;;		wreg, fsr1l, fsr1h, fsr2l, fsr2h, status,2, status,0, tblptrl, tblptrh, tblptru, cstack
  1385 ;; Tracked objects:
  1386 ;;		On entry : 0/0
  1387 ;;		On exit  : 0/0
  1388 ;;		Unchanged: 0/0
  1389 ;; Data sizes:     COMRAM   BANK0   BANK1   BANK2   BANK3   BANK4   BANK5   BANK6   BANK7
  1390 ;;      Params:         0       0       8       0       0       0       0       0       0
  1391 ;;      Locals:         0       0      10       0       0       0       0       0       0
  1392 ;;      Temps:          0       0       0       0       0       0       0       0       0
  1393 ;;      Totals:         0       0      18       0       0       0       0       0       0
  1394 ;;Total ram usage:       18 bytes
  1395 ;; Hardware stack levels used:    1
  1396 ;; Hardware stack levels required when called:   26
  1397 ;; This function calls:
  1398 ;;		_vfprintf
  1399 ;; This function is called by:
  1400 ;;		_USBTask
  1401 ;; This function uses a non-reentrant model
  1402 ;;
  1403                           
  1404                           	psect	text2
  1405  003532                     __ptext2:
  1406                           	opt callstack 0
  1407  003532                     _sprintf:
  1408                           	opt callstack 3
  1409  003532  0EDC               	movlw	low (?_sprintf+4)
  1410  003534  0101               	movlb	1	; () banked
  1411  003536  6FE2               	movwf	sprintf@ap& (0+255),b
  1412  003538  0E01               	movlw	high (?_sprintf+4)
  1413  00353A  6FE3               	movwf	(sprintf@ap+1)& (0+255),b
  1414  00353C  C1D8  F1E4         	movff	sprintf@s,sprintf@f
  1415  003540  C1D9  F1E5         	movff	sprintf@s+1,sprintf@f+1
  1416  003544                     
  1417                           ; BSR set to: 1
  1418  003544  0E00               	movlw	0
  1419  003546  6FE7               	movwf	(sprintf@f+3)& (0+255),b
  1420  003548  0E00               	movlw	0
  1421  00354A  6FE6               	movwf	(sprintf@f+2)& (0+255),b
  1422  00354C                     
  1423                           ; BSR set to: 1
  1424  00354C  0E00               	movlw	0
  1425  00354E  6FE9               	movwf	(sprintf@f+5)& (0+255),b
  1426  003550  0E00               	movlw	0
  1427  003552  6FE8               	movwf	(sprintf@f+4)& (0+255),b
  1428  003554                     
  1429                           ; BSR set to: 1
  1430  003554  0EE4               	movlw	low sprintf@f
  1431  003556  6FD0               	movwf	vfprintf@fp& (0+255),b
  1432  003558  0E01               	movlw	high sprintf@f
  1433  00355A  6FD1               	movwf	(vfprintf@fp+1)& (0+255),b
  1434  00355C  C1DA  F1D2         	movff	sprintf@fmt,vfprintf@fmt
  1435  003560  C1DB  F1D3         	movff	sprintf@fmt+1,vfprintf@fmt+1
  1436  003564  0EE2               	movlw	low sprintf@ap
  1437  003566  6FD4               	movwf	vfprintf@ap& (0+255),b
  1438  003568  0E01               	movlw	high sprintf@ap
  1439  00356A  6FD5               	movwf	(vfprintf@ap+1)& (0+255),b
  1440  00356C  ECDE  F019         	call	_vfprintf	;wreg free
  1441  003570  0101               	movlb	1	; () banked
  1442  003572  51E6               	movf	(sprintf@f+2)& (0+255),w,b
  1443  003574  25D8               	addwf	sprintf@s& (0+255),w,b
  1444  003576  6ED9               	movwf	fsr2l,c
  1445  003578  51E7               	movf	(sprintf@f+3)& (0+255),w,b
  1446  00357A  21D9               	addwfc	(sprintf@s+1)& (0+255),w,b
  1447  00357C  6EDA               	movwf	fsr2h,c
  1448  00357E  0E00               	movlw	0
  1449  003580  6EDF               	movwf	indf2,c
  1450  003582                     
  1451                           ; BSR set to: 1
  1452  003582  0012               	return		;funcret
  1453  003584                     __end_of_sprintf:
  1454                           	opt callstack 0
  1455                           
  1456 ;; *************** function _vfprintf *****************
  1457 ;; Defined at:
  1458 ;;		line 1368 in file "C:\Program Files (x86)\Microchip\xc8\v2.10\pic\sources\c99\common\doprnt.c"
  1459 ;; Parameters:    Size  Location     Type
  1460 ;;  fp              2   41[BANK1 ] PTR struct _IO_FILE
  1461 ;;		 -> sprintf@f(6), 
  1462 ;;  fmt             2   43[BANK1 ] PTR const unsigned char 
  1463 ;;		 -> STR_2(10), STR_1(10), 
  1464 ;;  ap              2   45[BANK1 ] PTR PTR void 
  1465 ;;		 -> sprintf@ap(2), 
  1466 ;; Auto vars:     Size  Location     Type
  1467 ;;  cfmt            2   47[BANK1 ] PTR unsigned char 
  1468 ;;		 -> STR_2(10), STR_1(10), 
  1469 ;; Return value:  Size  Location     Type
  1470 ;;                  2   41[BANK1 ] int 
  1471 ;; Registers used:
  1472 ;;		wreg, fsr1l, fsr1h, fsr2l, fsr2h, status,2, status,0, tblptrl, tblptrh, tblptru, cstack
  1473 ;; Tracked objects:
  1474 ;;		On entry : 0/0
  1475 ;;		On exit  : 0/0
  1476 ;;		Unchanged: 0/0
  1477 ;; Data sizes:     COMRAM   BANK0   BANK1   BANK2   BANK3   BANK4   BANK5   BANK6   BANK7
  1478 ;;      Params:         0       0       6       0       0       0       0       0       0
  1479 ;;      Locals:         0       0       2       0       0       0       0       0       0
  1480 ;;      Temps:          0       0       0       0       0       0       0       0       0
  1481 ;;      Totals:         0       0       8       0       0       0       0       0       0
  1482 ;;Total ram usage:        8 bytes
  1483 ;; Hardware stack levels used:    1
  1484 ;; Hardware stack levels required when called:   25
  1485 ;; This function calls:
  1486 ;;		_vfpfcnvrt
  1487 ;; This function is called by:
  1488 ;;		_sprintf
  1489 ;; This function uses a non-reentrant model
  1490 ;;
  1491                           
  1492                           	psect	text3
  1493  0033BC                     __ptext3:
  1494                           	opt callstack 0
  1495  0033BC                     _vfprintf:
  1496                           	opt callstack 3
  1497  0033BC                     
  1498                           ;C:\Program Files (x86)\Microchip\xc8\v2.10\pic\sources\c99\common\doprnt.c: 1368: int v
      +                          fprintf(FILE *fp, const char *fmt, va_list ap);C:\Program Files (x86)\Microchip\xc8\v2.1
      +                          0\pic\sources\c99\common\doprnt.c: 1369: {;C:\Program Files (x86)\Microchip\xc8\v2.10\pi
      +                          c\sources\c99\common\doprnt.c: 1371:     char *cfmt;;C:\Program Files (x86)\Microchip\xc
      +                          8\v2.10\pic\sources\c99\common\doprnt.c: 1373:     cfmt = (char *)fmt;
  1499  0033BC  C1D2  F1D6         	movff	vfprintf@fmt,vfprintf@cfmt
  1500  0033C0  C1D3  F1D7         	movff	vfprintf@fmt+1,vfprintf@cfmt+1
  1501  0033C4                     
  1502                           ;C:\Program Files (x86)\Microchip\xc8\v2.10\pic\sources\c99\common\doprnt.c: 1374:     n
      +                          out = 0;
  1503  0033C4  0E00               	movlw	0
  1504  0033C6  0101               	movlb	1	; () banked
  1505  0033C8  6F01               	movwf	(_nout+1)& (0+255),b
  1506  0033CA  0E00               	movlw	0
  1507  0033CC  6F00               	movwf	_nout& (0+255),b
  1508                           
  1509                           ;C:\Program Files (x86)\Microchip\xc8\v2.10\pic\sources\c99\common\doprnt.c: 1375:     w
      +                          hile (*cfmt) {
  1510  0033CE  EFFC  F019         	goto	l5567
  1511  0033D2                     l5565:
  1512                           
  1513                           ; BSR set to: 1
  1514                           ;C:\Program Files (x86)\Microchip\xc8\v2.10\pic\sources\c99\common\doprnt.c: 1376:      
      +                             nout += vfpfcnvrt(fp, &cfmt, ap);
  1515  0033D2  C1D0  F1C7         	movff	vfprintf@fp,vfpfcnvrt@fp
  1516  0033D6  C1D1  F1C8         	movff	vfprintf@fp+1,vfpfcnvrt@fp+1
  1517  0033DA  0ED6               	movlw	low vfprintf@cfmt
  1518  0033DC  6FC9               	movwf	vfpfcnvrt@fmt& (0+255),b
  1519  0033DE  0E01               	movlw	high vfprintf@cfmt
  1520  0033E0  6FCA               	movwf	(vfpfcnvrt@fmt+1)& (0+255),b
  1521  0033E2  C1D4  F1CB         	movff	vfprintf@ap,vfpfcnvrt@ap
  1522  0033E6  C1D5  F1CC         	movff	vfprintf@ap+1,vfpfcnvrt@ap+1
  1523  0033EA  ECB2  F00B         	call	_vfpfcnvrt	;wreg free
  1524  0033EE  0101               	movlb	1	; () banked
  1525  0033F0  51C7               	movf	?_vfpfcnvrt& (0+255),w,b
  1526  0033F2  2700               	addwf	_nout& (0+255),f,b
  1527  0033F4  51C8               	movf	(?_vfpfcnvrt+1)& (0+255),w,b
  1528  0033F6  2301               	addwfc	(_nout+1)& (0+255),f,b
  1529  0033F8                     l5567:
  1530                           
  1531                           ; BSR set to: 1
  1532                           ;C:\Program Files (x86)\Microchip\xc8\v2.10\pic\sources\c99\common\doprnt.c: 1375:     w
      +                          hile (*cfmt) {
  1533  0033F8  C1D6  FFF6         	movff	vfprintf@cfmt,tblptrl
  1534  0033FC  C1D7  FFF7         	movff	vfprintf@cfmt+1,tblptrh
  1535  003400                     	if	0	;tblptru may be non-zero
  1536  003400                     	endif
  1537  003400                     	if	0	;tblptru may be non-zero
  1538  003400                     	endif
  1539  003400  0008               	tblrd		*
  1540  003402  50F5               	movf	tablat,w,c
  1541  003404  0900               	iorlw	0
  1542  003406  A4D8               	btfss	status,2,c
  1543  003408  EF08  F01A         	goto	u4711
  1544  00340C  EF0A  F01A         	goto	u4710
  1545  003410                     u4711:
  1546  003410  EFE9  F019         	goto	l5565
  1547  003414                     u4710:
  1548  003414                     
  1549                           ; BSR set to: 1
  1550                           ;C:\Program Files (x86)\Microchip\xc8\v2.10\pic\sources\c99\common\doprnt.c: 1378:     r
      +                          eturn nout;
  1551  003414  C100  F1D0         	movff	_nout,?_vfprintf
  1552  003418  C101  F1D1         	movff	_nout+1,?_vfprintf+1
  1553  00341C                     
  1554                           ; BSR set to: 1
  1555  00341C  0012               	return		;funcret
  1556  00341E                     __end_of_vfprintf:
  1557                           	opt callstack 0
  1558                           
  1559 ;; *************** function _vfpfcnvrt *****************
  1560 ;; Defined at:
  1561 ;;		line 670 in file "C:\Program Files (x86)\Microchip\xc8\v2.10\pic\sources\c99\common\doprnt.c"
  1562 ;; Parameters:    Size  Location     Type
  1563 ;;  fp              2   32[BANK1 ] PTR struct _IO_FILE
  1564 ;;		 -> sprintf@f(6), 
  1565 ;;  fmt             2   34[BANK1 ] PTR PTR unsigned char 
  1566 ;;		 -> vfprintf@cfmt(2), 
  1567 ;;  ap              2   36[BANK1 ] PTR PTR void 
  1568 ;;		 -> sprintf@ap(2), 
  1569 ;; Auto vars:     Size  Location     Type
  1570 ;;  llu             8    0        unsigned long long 
  1571 ;;  ll              8    0        long long 
  1572 ;;  f               4    0        long long 
  1573 ;;  vp              3    0        PTR void 
  1574 ;;  ct              3    0        unsigned char [3]
  1575 ;;  cp              3    0        PTR unsigned char 
  1576 ;;  i               2    0        int 
  1577 ;;  done            2    0        int 
  1578 ;;  c               1   40[BANK1 ] unsigned char 
  1579 ;; Return value:  Size  Location     Type
  1580 ;;                  2   32[BANK1 ] int 
  1581 ;; Registers used:
  1582 ;;		wreg, fsr1l, fsr1h, fsr2l, fsr2h, status,2, status,0, tblptrl, tblptrh, tblptru, cstack
  1583 ;; Tracked objects:
  1584 ;;		On entry : 0/0
  1585 ;;		On exit  : 0/0
  1586 ;;		Unchanged: 0/0
  1587 ;; Data sizes:     COMRAM   BANK0   BANK1   BANK2   BANK3   BANK4   BANK5   BANK6   BANK7
  1588 ;;      Params:         0       0       6       0       0       0       0       0       0
  1589 ;;      Locals:         0       0       1       0       0       0       0       0       0
  1590 ;;      Temps:          0       0       2       0       0       0       0       0       0
  1591 ;;      Totals:         0       0       9       0       0       0       0       0       0
  1592 ;;Total ram usage:        9 bytes
  1593 ;; Hardware stack levels used:    1
  1594 ;; Hardware stack levels required when called:   24
  1595 ;; This function calls:
  1596 ;;		_ctoa
  1597 ;;		_fputc
  1598 ;; This function is called by:
  1599 ;;		_vfprintf
  1600 ;; This function uses a non-reentrant model
  1601 ;;
  1602                           
  1603                           	psect	text4
  1604  001764                     __ptext4:
  1605                           	opt callstack 0
  1606  001764                     _vfpfcnvrt:
  1607                           	opt callstack 3
  1608  001764                     
  1609                           ;C:\Program Files (x86)\Microchip\xc8\v2.10\pic\sources\c99\common\doprnt.c: 670: static
      +                           int vfpfcnvrt(FILE *fp, char *fmt[], va_list ap);C:\Program Files (x86)\Microchip\xc8\v
      +                          2.10\pic\sources\c99\common\doprnt.c: 671: {;C:\Program Files (x86)\Microchip\xc8\v2.10\
      +                          pic\sources\c99\common\doprnt.c: 672:     char c, *cp, ct[3];;C:\Program Files (x86)\Mic
      +                          rochip\xc8\v2.10\pic\sources\c99\common\doprnt.c: 673:     int done, i;;C:\Program Files
      +                           (x86)\Microchip\xc8\v2.10\pic\sources\c99\common\doprnt.c: 674:     long long ll;
  1610  001764  C1C9  FFD9         	movff	vfpfcnvrt@fmt,fsr2l
  1611  001768  C1CA  FFDA         	movff	vfpfcnvrt@fmt+1,fsr2h
  1612  00176C  CFDE FFF6          	movff	postinc2,tblptrl
  1613  001770  CFDD FFF7          	movff	postdec2,tblptrh
  1614  001774                     	if	0	;tblptru may be non-zero
  1615  001774                     	endif
  1616  001774                     	if	0	;tblptru may be non-zero
  1617  001774                     	endif
  1618  001774  0008               	tblrd		*
  1619  001776  50F5               	movf	tablat,w,c
  1620  001778  0A25               	xorlw	37
  1621  00177A  A4D8               	btfss	status,2,c
  1622  00177C  EFC2  F00B         	goto	u4591
  1623  001780  EFC4  F00B         	goto	u4590
  1624  001784                     u4591:
  1625  001784  EF46  F00C         	goto	l5477
  1626  001788                     u4590:
  1627  001788                     
  1628                           ;C:\Program Files (x86)\Microchip\xc8\v2.10\pic\sources\c99\common\doprnt.c: 681:       
      +                            ++*fmt;
  1629  001788  C1C9  FFD9         	movff	vfpfcnvrt@fmt,fsr2l
  1630  00178C  C1CA  FFDA         	movff	vfpfcnvrt@fmt+1,fsr2h
  1631  001790  2ADE               	incf	postinc2,f,c
  1632  001792  0E00               	movlw	0
  1633  001794  22DD               	addwfc	postdec2,f,c
  1634  001796                     
  1635                           ;C:\Program Files (x86)\Microchip\xc8\v2.10\pic\sources\c99\common\doprnt.c: 683:       
      +                            flags = width = 0;
  1636  001796  0E00               	movlw	0
  1637  001798  0101               	movlb	1	; () banked
  1638  00179A  6F03               	movwf	(_width+1)& (0+255),b
  1639  00179C  0E00               	movlw	0
  1640  00179E  6F02               	movwf	_width& (0+255),b
  1641  0017A0  C102  F0E0         	movff	_width,_flags
  1642  0017A4  C103  F0E1         	movff	_width+1,_flags+1
  1643  0017A8                     
  1644                           ; BSR set to: 1
  1645                           ;C:\Program Files (x86)\Microchip\xc8\v2.10\pic\sources\c99\common\doprnt.c: 684:       
      +                            prec = -1;
  1646  0017A8  6904               	setf	_prec& (0+255),b
  1647  0017AA  6905               	setf	(_prec+1)& (0+255),b
  1648  0017AC                     
  1649                           ; BSR set to: 1
  1650                           ;C:\Program Files (x86)\Microchip\xc8\v2.10\pic\sources\c99\common\doprnt.c: 792:       
      +                            if (*fmt[0] == 'c') {
  1651  0017AC  C1C9  FFD9         	movff	vfpfcnvrt@fmt,fsr2l
  1652  0017B0  C1CA  FFDA         	movff	vfpfcnvrt@fmt+1,fsr2h
  1653  0017B4  CFDE FFF6          	movff	postinc2,tblptrl
  1654  0017B8  CFDD FFF7          	movff	postdec2,tblptrh
  1655  0017BC                     	if	0	;tblptru may be non-zero
  1656  0017BC                     	endif
  1657  0017BC                     	if	0	;tblptru may be non-zero
  1658  0017BC                     	endif
  1659  0017BC  0008               	tblrd		*
  1660  0017BE  50F5               	movf	tablat,w,c
  1661  0017C0  0A63               	xorlw	99
  1662  0017C2  A4D8               	btfss	status,2,c
  1663  0017C4  EFE6  F00B         	goto	u4601
  1664  0017C8  EFE8  F00B         	goto	u4600
  1665  0017CC                     u4601:
  1666  0017CC  EF0F  F00C         	goto	l5461
  1667  0017D0                     u4600:
  1668  0017D0                     
  1669                           ; BSR set to: 1
  1670                           ;C:\Program Files (x86)\Microchip\xc8\v2.10\pic\sources\c99\common\doprnt.c: 793:       
      +                                ++*fmt;
  1671  0017D0  C1C9  FFD9         	movff	vfpfcnvrt@fmt,fsr2l
  1672  0017D4  C1CA  FFDA         	movff	vfpfcnvrt@fmt+1,fsr2h
  1673  0017D8  2ADE               	incf	postinc2,f,c
  1674  0017DA  0E00               	movlw	0
  1675  0017DC  22DD               	addwfc	postdec2,f,c
  1676                           
  1677                           ;C:\Program Files (x86)\Microchip\xc8\v2.10\pic\sources\c99\common\doprnt.c: 794:       
      +                                c = (unsigned char)(*(int *)__va_arg(*(int **)ap, (int)0));
  1678  0017DE  C1CB  FFD9         	movff	vfpfcnvrt@ap,fsr2l
  1679  0017E2  C1CC  FFDA         	movff	vfpfcnvrt@ap+1,fsr2h
  1680  0017E6  CFDF F1CD          	movff	indf2,??_vfpfcnvrt
  1681  0017EA  0E02               	movlw	2
  1682  0017EC  26DE               	addwf	postinc2,f,c
  1683  0017EE  CFDF F1CE          	movff	indf2,??_vfpfcnvrt+1
  1684  0017F2  0E00               	movlw	0
  1685  0017F4  22DD               	addwfc	postdec2,f,c
  1686  0017F6  C1CD  FFD9         	movff	??_vfpfcnvrt,fsr2l
  1687  0017FA  C1CE  FFDA         	movff	??_vfpfcnvrt+1,fsr2h
  1688  0017FE  50DF               	movf	indf2,w,c
  1689  001800  6FCF               	movwf	vfpfcnvrt@c& (0+255),b
  1690  001802                     
  1691                           ; BSR set to: 1
  1692                           ;C:\Program Files (x86)\Microchip\xc8\v2.10\pic\sources\c99\common\doprnt.c: 795:       
      +                                return ctoa(fp, c);
  1693  001802  C1C7  F1C2         	movff	vfpfcnvrt@fp,ctoa@fp
  1694  001806  C1C8  F1C3         	movff	vfpfcnvrt@fp+1,ctoa@fp+1
  1695  00180A  C1CF  F1C4         	movff	vfpfcnvrt@c,ctoa@c
  1696  00180E  EC3F  F01A         	call	_ctoa	;wreg free
  1697  001812  C1C2  F1C7         	movff	?_ctoa,?_vfpfcnvrt
  1698  001816  C1C3  F1C8         	movff	?_ctoa+1,?_vfpfcnvrt+1
  1699  00181A  EF62  F00C         	goto	l758
  1700  00181E                     l5461:
  1701                           
  1702                           ; BSR set to: 1
  1703                           ;C:\Program Files (x86)\Microchip\xc8\v2.10\pic\sources\c99\common\doprnt.c: 1350:      
      +                             if ((*fmt)[0] == '%') {
  1704  00181E  C1C9  FFD9         	movff	vfpfcnvrt@fmt,fsr2l
  1705  001822  C1CA  FFDA         	movff	vfpfcnvrt@fmt+1,fsr2h
  1706  001826  CFDE FFF6          	movff	postinc2,tblptrl
  1707  00182A  CFDD FFF7          	movff	postdec2,tblptrh
  1708  00182E                     	if	0	;tblptru may be non-zero
  1709  00182E                     	endif
  1710  00182E                     	if	0	;tblptru may be non-zero
  1711  00182E                     	endif
  1712  00182E  0008               	tblrd		*
  1713  001830  50F5               	movf	tablat,w,c
  1714  001832  0A25               	xorlw	37
  1715  001834  A4D8               	btfss	status,2,c
  1716  001836  EF1F  F00C         	goto	u4611
  1717  00183A  EF21  F00C         	goto	u4610
  1718  00183E                     u4611:
  1719  00183E  EF39  F00C         	goto	l5471
  1720  001842                     u4610:
  1721  001842                     
  1722                           ; BSR set to: 1
  1723                           ;C:\Program Files (x86)\Microchip\xc8\v2.10\pic\sources\c99\common\doprnt.c: 1351:      
      +                                 ++*fmt;
  1724  001842  C1C9  FFD9         	movff	vfpfcnvrt@fmt,fsr2l
  1725  001846  C1CA  FFDA         	movff	vfpfcnvrt@fmt+1,fsr2h
  1726  00184A  2ADE               	incf	postinc2,f,c
  1727  00184C  0E00               	movlw	0
  1728  00184E  22DD               	addwfc	postdec2,f,c
  1729  001850                     
  1730                           ; BSR set to: 1
  1731                           ;C:\Program Files (x86)\Microchip\xc8\v2.10\pic\sources\c99\common\doprnt.c: 1352:      
      +                                 fputc((int)'%', fp);
  1732  001850  0E00               	movlw	0
  1733  001852  6FA8               	movwf	(fputc@c+1)& (0+255),b
  1734  001854  0E25               	movlw	37
  1735  001856  6FA7               	movwf	fputc@c& (0+255),b
  1736  001858  C1C7  F1A9         	movff	vfpfcnvrt@fp,fputc@fp
  1737  00185C  C1C8  F1AA         	movff	vfpfcnvrt@fp+1,fputc@fp+1
  1738  001860  EC3E  F015         	call	_fputc	;wreg free
  1739  001864                     l5467:
  1740                           
  1741                           ;C:\Program Files (x86)\Microchip\xc8\v2.10\pic\sources\c99\common\doprnt.c: 1353:      
      +                                 return 1;
  1742  001864  0E00               	movlw	0
  1743  001866  0101               	movlb	1	; () banked
  1744  001868  6FC8               	movwf	(?_vfpfcnvrt+1)& (0+255),b
  1745  00186A  0E01               	movlw	1
  1746  00186C  6FC7               	movwf	?_vfpfcnvrt& (0+255),b
  1747  00186E  EF62  F00C         	goto	l758
  1748  001872                     l5471:
  1749                           
  1750                           ; BSR set to: 1
  1751                           ;C:\Program Files (x86)\Microchip\xc8\v2.10\pic\sources\c99\common\doprnt.c: 1357:      
      +                             ++*fmt;
  1752  001872  C1C9  FFD9         	movff	vfpfcnvrt@fmt,fsr2l
  1753  001876  C1CA  FFDA         	movff	vfpfcnvrt@fmt+1,fsr2h
  1754  00187A  2ADE               	incf	postinc2,f,c
  1755  00187C  0E00               	movlw	0
  1756  00187E  22DD               	addwfc	postdec2,f,c
  1757  001880                     
  1758                           ; BSR set to: 1
  1759                           ;C:\Program Files (x86)\Microchip\xc8\v2.10\pic\sources\c99\common\doprnt.c: 1358:      
      +                             return 0;
  1760  001880  0E00               	movlw	0
  1761  001882  6FC8               	movwf	(?_vfpfcnvrt+1)& (0+255),b
  1762  001884  0E00               	movlw	0
  1763  001886  6FC7               	movwf	?_vfpfcnvrt& (0+255),b
  1764  001888  EF62  F00C         	goto	l758
  1765  00188C                     l5477:
  1766                           
  1767                           ;C:\Program Files (x86)\Microchip\xc8\v2.10\pic\sources\c99\common\doprnt.c: 1362:     f
      +                          putc((int)(*fmt)[0], fp);
  1768  00188C  C1C9  FFD9         	movff	vfpfcnvrt@fmt,fsr2l
  1769  001890  C1CA  FFDA         	movff	vfpfcnvrt@fmt+1,fsr2h
  1770  001894  CFDE FFF6          	movff	postinc2,tblptrl
  1771  001898  CFDD FFF7          	movff	postdec2,tblptrh
  1772  00189C                     	if	0	;tblptru may be non-zero
  1773  00189C                     	endif
  1774  00189C                     	if	0	;tblptru may be non-zero
  1775  00189C                     	endif
  1776  00189C  0008               	tblrd		*
  1777  00189E  50F5               	movf	tablat,w,c
  1778  0018A0  0101               	movlb	1	; () banked
  1779  0018A2  6FA7               	movwf	fputc@c& (0+255),b
  1780  0018A4  6BA8               	clrf	(fputc@c+1)& (0+255),b
  1781  0018A6  C1C7  F1A9         	movff	vfpfcnvrt@fp,fputc@fp
  1782  0018AA  C1C8  F1AA         	movff	vfpfcnvrt@fp+1,fputc@fp+1
  1783  0018AE  EC3E  F015         	call	_fputc	;wreg free
  1784  0018B2                     
  1785                           ;C:\Program Files (x86)\Microchip\xc8\v2.10\pic\sources\c99\common\doprnt.c: 1363:     +
      +                          +*fmt;
  1786  0018B2  C1C9  FFD9         	movff	vfpfcnvrt@fmt,fsr2l
  1787  0018B6  C1CA  FFDA         	movff	vfpfcnvrt@fmt+1,fsr2h
  1788  0018BA  2ADE               	incf	postinc2,f,c
  1789  0018BC  0E00               	movlw	0
  1790  0018BE  22DD               	addwfc	postdec2,f,c
  1791  0018C0  EF32  F00C         	goto	l5467
  1792  0018C4                     l758:
  1793  0018C4  0012               	return		;funcret
  1794  0018C6                     __end_of_vfpfcnvrt:
  1795                           	opt callstack 0
  1796                           
  1797 ;; *************** function _ctoa *****************
  1798 ;; Defined at:
  1799 ;;		line 259 in file "C:\Program Files (x86)\Microchip\xc8\v2.10\pic\sources\c99\common\doprnt.c"
  1800 ;; Parameters:    Size  Location     Type
  1801 ;;  fp              2   27[BANK1 ] PTR struct _IO_FILE
  1802 ;;		 -> sprintf@f(6), 
  1803 ;;  c               1   29[BANK1 ] unsigned char 
  1804 ;; Auto vars:     Size  Location     Type
  1805 ;;  w               2   30[BANK1 ] int 
  1806 ;;  l               2    0        int 
  1807 ;; Return value:  Size  Location     Type
  1808 ;;                  2   27[BANK1 ] int 
  1809 ;; Registers used:
  1810 ;;		wreg, fsr1l, fsr1h, fsr2l, fsr2h, status,2, status,0, cstack
  1811 ;; Tracked objects:
  1812 ;;		On entry : 0/0
  1813 ;;		On exit  : 0/0
  1814 ;;		Unchanged: 0/0
  1815 ;; Data sizes:     COMRAM   BANK0   BANK1   BANK2   BANK3   BANK4   BANK5   BANK6   BANK7
  1816 ;;      Params:         0       0       3       0       0       0       0       0       0
  1817 ;;      Locals:         0       0       2       0       0       0       0       0       0
  1818 ;;      Temps:          0       0       0       0       0       0       0       0       0
  1819 ;;      Totals:         0       0       5       0       0       0       0       0       0
  1820 ;;Total ram usage:        5 bytes
  1821 ;; Hardware stack levels used:    1
  1822 ;; Hardware stack levels required when called:   23
  1823 ;; This function calls:
  1824 ;;		_pad
  1825 ;; This function is called by:
  1826 ;;		_vfpfcnvrt
  1827 ;; This function uses a non-reentrant model
  1828 ;;
  1829                           
  1830                           	psect	text5
  1831  00347E                     __ptext5:
  1832                           	opt callstack 0
  1833  00347E                     _ctoa:
  1834                           	opt callstack 3
  1835  00347E                     
  1836                           ;C:\Program Files (x86)\Microchip\xc8\v2.10\pic\sources\c99\common\doprnt.c: 259: static
      +                           int ctoa(FILE *fp, char c);C:\Program Files (x86)\Microchip\xc8\v2.10\pic\sources\c99\c
      +                          ommon\doprnt.c: 260: {;C:\Program Files (x86)\Microchip\xc8\v2.10\pic\sources\c99\common
      +                          \doprnt.c: 261:     int l, w;;C:\Program Files (x86)\Microchip\xc8\v2.10\pic\sources\c99
      +                          \common\doprnt.c: 264:     w = width ? width - 1 : width;
  1837  00347E  0101               	movlb	1	; () banked
  1838  003480  5102               	movf	_width& (0+255),w,b
  1839  003482  1103               	iorwf	(_width+1)& (0+255),w,b
  1840  003484  A4D8               	btfss	status,2,c
  1841  003486  EF47  F01A         	goto	u4541
  1842  00348A  EF49  F01A         	goto	u4540
  1843  00348E                     u4541:
  1844  00348E  EF4F  F01A         	goto	l5413
  1845  003492                     u4540:
  1846  003492                     
  1847                           ; BSR set to: 1
  1848  003492  C102  F1C5         	movff	_width,ctoa@w
  1849  003496  C103  F1C6         	movff	_width+1,ctoa@w+1
  1850  00349A  EF55  F01A         	goto	l5415
  1851  00349E                     l5413:
  1852                           
  1853                           ; BSR set to: 1
  1854  00349E  0EFF               	movlw	255
  1855  0034A0  2502               	addwf	_width& (0+255),w,b
  1856  0034A2  6FC5               	movwf	ctoa@w& (0+255),b
  1857  0034A4  0EFF               	movlw	255
  1858  0034A6  2103               	addwfc	(_width+1)& (0+255),w,b
  1859  0034A8  6FC6               	movwf	(ctoa@w+1)& (0+255),b
  1860  0034AA                     l5415:
  1861                           
  1862                           ; BSR set to: 1
  1863                           ;C:\Program Files (x86)\Microchip\xc8\v2.10\pic\sources\c99\common\doprnt.c: 267:     db
      +                          uf[0] = c;
  1864  0034AA  C1C4  F187         	movff	ctoa@c,_dbuf
  1865  0034AE                     
  1866                           ; BSR set to: 1
  1867                           ;C:\Program Files (x86)\Microchip\xc8\v2.10\pic\sources\c99\common\doprnt.c: 268:     db
      +                          uf[1] = '\0';
  1868  0034AE  0E00               	movlw	0
  1869  0034B0  6F88               	movwf	(_dbuf+1)& (0+255),b
  1870  0034B2                     
  1871                           ; BSR set to: 1
  1872                           ;C:\Program Files (x86)\Microchip\xc8\v2.10\pic\sources\c99\common\doprnt.c: 269:     re
      +                          turn pad(fp, &dbuf[0], w);
  1873  0034B2  C1C2  F1B7         	movff	ctoa@fp,pad@fp
  1874  0034B6  C1C3  F1B8         	movff	ctoa@fp+1,pad@fp+1
  1875  0034BA  0E87               	movlw	low _dbuf
  1876  0034BC  6FB9               	movwf	pad@buf& (0+255),b
  1877  0034BE  0E01               	movlw	high _dbuf
  1878  0034C0  6FBA               	movwf	(pad@buf+1)& (0+255),b
  1879  0034C2  C1C5  F1BB         	movff	ctoa@w,pad@p
  1880  0034C6  C1C6  F1BC         	movff	ctoa@w+1,pad@p+1
  1881  0034CA  ECD8  F014         	call	_pad	;wreg free
  1882  0034CE  C1B7  F1C2         	movff	?_pad,?_ctoa
  1883  0034D2  C1B8  F1C3         	movff	?_pad+1,?_ctoa+1
  1884  0034D6  0012               	return		;funcret
  1885  0034D8                     __end_of_ctoa:
  1886                           	opt callstack 0
  1887                           
  1888 ;; *************** function _pad *****************
  1889 ;; Defined at:
  1890 ;;		line 72 in file "C:\Program Files (x86)\Microchip\xc8\v2.10\pic\sources\c99\common\doprnt.c"
  1891 ;; Parameters:    Size  Location     Type
  1892 ;;  fp              2   16[BANK1 ] PTR struct _IO_FILE
  1893 ;;		 -> sprintf@f(6), 
  1894 ;;  buf             2   18[BANK1 ] PTR unsigned char 
  1895 ;;		 -> dbuf(32), 
  1896 ;;  p               2   20[BANK1 ] int 
  1897 ;; Auto vars:     Size  Location     Type
  1898 ;;  w               2   25[BANK1 ] int 
  1899 ;;  i               2   23[BANK1 ] int 
  1900 ;; Return value:  Size  Location     Type
  1901 ;;                  2   16[BANK1 ] int 
  1902 ;; Registers used:
  1903 ;;		wreg, fsr1l, fsr1h, fsr2l, fsr2h, status,2, status,0, cstack
  1904 ;; Tracked objects:
  1905 ;;		On entry : 0/0
  1906 ;;		On exit  : 0/0
  1907 ;;		Unchanged: 0/0
  1908 ;; Data sizes:     COMRAM   BANK0   BANK1   BANK2   BANK3   BANK4   BANK5   BANK6   BANK7
  1909 ;;      Params:         0       0       6       0       0       0       0       0       0
  1910 ;;      Locals:         0       0       4       0       0       0       0       0       0
  1911 ;;      Temps:          0       0       1       0       0       0       0       0       0
  1912 ;;      Totals:         0       0      11       0       0       0       0       0       0
  1913 ;;Total ram usage:       11 bytes
  1914 ;; Hardware stack levels used:    1
  1915 ;; Hardware stack levels required when called:   22
  1916 ;; This function calls:
  1917 ;;		_fputc
  1918 ;;		_fputs
  1919 ;;		_strlen
  1920 ;; This function is called by:
  1921 ;;		_ctoa
  1922 ;; This function uses a non-reentrant model
  1923 ;;
  1924                           
  1925                           	psect	text6
  1926  0029B0                     __ptext6:
  1927                           	opt callstack 0
  1928  0029B0                     _pad:
  1929                           	opt callstack 3
  1930  0029B0                     
  1931                           ;C:\Program Files (x86)\Microchip\xc8\v2.10\pic\sources\c99\common\doprnt.c: 72: static 
      +                          int pad(FILE *fp, char *buf, int p);C:\Program Files (x86)\Microchip\xc8\v2.10\pic\sourc
      +                          es\c99\common\doprnt.c: 73: {;C:\Program Files (x86)\Microchip\xc8\v2.10\pic\sources\c99
      +                          \common\doprnt.c: 74:     int i, w;;C:\Program Files (x86)\Microchip\xc8\v2.10\pic\sourc
      +                          es\c99\common\doprnt.c: 77:     if (flags & (1 << 0)) {
  1932  0029B0  0100               	movlb	0	; () banked
  1933  0029B2  A1E0               	btfss	_flags& (0+255),0,b
  1934  0029B4  EFDE  F014         	goto	u4481
  1935  0029B8  EFE0  F014         	goto	u4480
  1936  0029BC                     u4481:
  1937  0029BC  EFEA  F014         	goto	l5373
  1938  0029C0                     u4480:
  1939  0029C0                     
  1940                           ; BSR set to: 0
  1941                           ;C:\Program Files (x86)\Microchip\xc8\v2.10\pic\sources\c99\common\doprnt.c: 78:        
      +                           fputs((const char *)buf, fp);
  1942  0029C0  C1B9  F1B0         	movff	pad@buf,fputs@s
  1943  0029C4  C1BA  F1B1         	movff	pad@buf+1,fputs@s+1
  1944  0029C8  C1B7  F1B2         	movff	pad@fp,fputs@fp
  1945  0029CC  C1B8  F1B3         	movff	pad@fp+1,fputs@fp+1
  1946  0029D0  EC10  F01B         	call	_fputs	;wreg free
  1947  0029D4                     l5373:
  1948                           
  1949                           ;C:\Program Files (x86)\Microchip\xc8\v2.10\pic\sources\c99\common\doprnt.c: 82:     w =
      +                           (p < 0) ? 0 : p;
  1950  0029D4  0101               	movlb	1	; () banked
  1951  0029D6  BFBC               	btfsc	(pad@p+1)& (0+255),7,b
  1952  0029D8  EFF0  F014         	goto	u4491
  1953  0029DC  EFF2  F014         	goto	u4490
  1954  0029E0                     u4491:
  1955  0029E0  EFF8  F014         	goto	l5377
  1956  0029E4                     u4490:
  1957  0029E4                     
  1958                           ; BSR set to: 1
  1959  0029E4  C1BB  F1C0         	movff	pad@p,pad@w
  1960  0029E8  C1BC  F1C1         	movff	pad@p+1,pad@w+1
  1961  0029EC  EFFC  F014         	goto	l741
  1962  0029F0                     l5377:
  1963                           
  1964                           ; BSR set to: 1
  1965  0029F0  0E00               	movlw	0
  1966  0029F2  6FC1               	movwf	(pad@w+1)& (0+255),b
  1967  0029F4  0E00               	movlw	0
  1968  0029F6  6FC0               	movwf	pad@w& (0+255),b
  1969  0029F8                     l741:
  1970                           
  1971                           ; BSR set to: 1
  1972                           ;C:\Program Files (x86)\Microchip\xc8\v2.10\pic\sources\c99\common\doprnt.c: 83:     i =
      +                           0;
  1973  0029F8  0E00               	movlw	0
  1974  0029FA  6FBF               	movwf	(pad@i+1)& (0+255),b
  1975  0029FC  0E00               	movlw	0
  1976  0029FE  6FBE               	movwf	pad@i& (0+255),b
  1977                           
  1978                           ;C:\Program Files (x86)\Microchip\xc8\v2.10\pic\sources\c99\common\doprnt.c: 84:     whi
      +                          le (i < w) {
  1979  002A00  EF0F  F015         	goto	l5383
  1980  002A04                     l5379:
  1981                           
  1982                           ; BSR set to: 1
  1983                           ;C:\Program Files (x86)\Microchip\xc8\v2.10\pic\sources\c99\common\doprnt.c: 85:        
      +                           fputc(' ', fp);
  1984  002A04  0E00               	movlw	0
  1985  002A06  6FA8               	movwf	(fputc@c+1)& (0+255),b
  1986  002A08  0E20               	movlw	32
  1987  002A0A  6FA7               	movwf	fputc@c& (0+255),b
  1988  002A0C  C1B7  F1A9         	movff	pad@fp,fputc@fp
  1989  002A10  C1B8  F1AA         	movff	pad@fp+1,fputc@fp+1
  1990  002A14  EC3E  F015         	call	_fputc	;wreg free
  1991  002A18                     
  1992                           ;C:\Program Files (x86)\Microchip\xc8\v2.10\pic\sources\c99\common\doprnt.c: 86:        
      +                           ++i;
  1993  002A18  0101               	movlb	1	; () banked
  1994  002A1A  4BBE               	infsnz	pad@i& (0+255),f,b
  1995  002A1C  2BBF               	incf	(pad@i+1)& (0+255),f,b
  1996  002A1E                     l5383:
  1997                           
  1998                           ; BSR set to: 1
  1999                           ;C:\Program Files (x86)\Microchip\xc8\v2.10\pic\sources\c99\common\doprnt.c: 84:     whi
      +                          le (i < w) {
  2000  002A1E  51C0               	movf	pad@w& (0+255),w,b
  2001  002A20  5DBE               	subwf	pad@i& (0+255),w,b
  2002  002A22  51BF               	movf	(pad@i+1)& (0+255),w,b
  2003  002A24  0A80               	xorlw	128
  2004  002A26  6FBD               	movwf	??_pad& (0+255),b
  2005  002A28  51C1               	movf	(pad@w+1)& (0+255),w,b
  2006  002A2A  0A80               	xorlw	128
  2007  002A2C  59BD               	subwfb	??_pad& (0+255),w,b
  2008  002A2E  A0D8               	btfss	status,0,c
  2009  002A30  EF1C  F015         	goto	u4501
  2010  002A34  EF1E  F015         	goto	u4500
  2011  002A38                     u4501:
  2012  002A38  EF02  F015         	goto	l5379
  2013  002A3C                     u4500:
  2014  002A3C                     
  2015                           ; BSR set to: 1
  2016                           ;C:\Program Files (x86)\Microchip\xc8\v2.10\pic\sources\c99\common\doprnt.c: 90:     if 
      +                          (!(flags & (1 << 0))) {
  2017  002A3C  0100               	movlb	0	; () banked
  2018  002A3E  B1E0               	btfsc	_flags& (0+255),0,b
  2019  002A40  EF24  F015         	goto	u4511
  2020  002A44  EF26  F015         	goto	u4510
  2021  002A48                     u4511:
  2022  002A48  EF30  F015         	goto	l5387
  2023  002A4C                     u4510:
  2024  002A4C                     
  2025                           ; BSR set to: 0
  2026                           ;C:\Program Files (x86)\Microchip\xc8\v2.10\pic\sources\c99\common\doprnt.c: 91:        
      +                           fputs((const char *)buf, fp);
  2027  002A4C  C1B9  F1B0         	movff	pad@buf,fputs@s
  2028  002A50  C1BA  F1B1         	movff	pad@buf+1,fputs@s+1
  2029  002A54  C1B7  F1B2         	movff	pad@fp,fputs@fp
  2030  002A58  C1B8  F1B3         	movff	pad@fp+1,fputs@fp+1
  2031  002A5C  EC10  F01B         	call	_fputs	;wreg free
  2032  002A60                     l5387:
  2033                           
  2034                           ;C:\Program Files (x86)\Microchip\xc8\v2.10\pic\sources\c99\common\doprnt.c: 94:     ret
      +                          urn strlen(buf) + w;
  2035  002A60  C1B9  F1A7         	movff	pad@buf,strlen@s
  2036  002A64  C1BA  F1A8         	movff	pad@buf+1,strlen@s+1
  2037  002A68  ECB9  F01B         	call	_strlen	;wreg free
  2038  002A6C  0101               	movlb	1	; () banked
  2039  002A6E  51C0               	movf	pad@w& (0+255),w,b
  2040  002A70  25A7               	addwf	?_strlen& (0+255),w,b
  2041  002A72  6FB7               	movwf	?_pad& (0+255),b
  2042  002A74  51C1               	movf	(pad@w+1)& (0+255),w,b
  2043  002A76  21A8               	addwfc	(?_strlen+1)& (0+255),w,b
  2044  002A78  6FB8               	movwf	(?_pad+1)& (0+255),b
  2045  002A7A                     
  2046                           ; BSR set to: 1
  2047  002A7A  0012               	return		;funcret
  2048  002A7C                     __end_of_pad:
  2049                           	opt callstack 0
  2050                           
  2051 ;; *************** function _strlen *****************
  2052 ;; Defined at:
  2053 ;;		line 5 in file "C:\Program Files (x86)\Microchip\xc8\v2.10\pic\sources\c99\common\strlen.c"
  2054 ;; Parameters:    Size  Location     Type
  2055 ;;  s               2    0[BANK1 ] PTR const unsigned char 
  2056 ;;		 -> dbuf(32), 
  2057 ;; Auto vars:     Size  Location     Type
  2058 ;;  a               2    2[BANK1 ] PTR const unsigned char 
  2059 ;;		 -> dbuf(32), 
  2060 ;; Return value:  Size  Location     Type
  2061 ;;                  2    0[BANK1 ] unsigned int 
  2062 ;; Registers used:
  2063 ;;		wreg, fsr2l, fsr2h, status,2, status,0
  2064 ;; Tracked objects:
  2065 ;;		On entry : 0/0
  2066 ;;		On exit  : 0/0
  2067 ;;		Unchanged: 0/0
  2068 ;; Data sizes:     COMRAM   BANK0   BANK1   BANK2   BANK3   BANK4   BANK5   BANK6   BANK7
  2069 ;;      Params:         0       0       2       0       0       0       0       0       0
  2070 ;;      Locals:         0       0       2       0       0       0       0       0       0
  2071 ;;      Temps:          0       0       0       0       0       0       0       0       0
  2072 ;;      Totals:         0       0       4       0       0       0       0       0       0
  2073 ;;Total ram usage:        4 bytes
  2074 ;; Hardware stack levels used:    1
  2075 ;; Hardware stack levels required when called:   19
  2076 ;; This function calls:
  2077 ;;		Nothing
  2078 ;; This function is called by:
  2079 ;;		_pad
  2080 ;; This function uses a non-reentrant model
  2081 ;;
  2082                           
  2083                           	psect	text7
  2084  003772                     __ptext7:
  2085                           	opt callstack 0
  2086  003772                     _strlen:
  2087                           	opt callstack 5
  2088  003772  C1A7  F1A9         	movff	strlen@s,strlen@a
  2089  003776  C1A8  F1AA         	movff	strlen@s+1,strlen@a+1
  2090  00377A  EFC2  F01B         	goto	l5349
  2091  00377E                     l5347:
  2092  00377E  0101               	movlb	1	; () banked
  2093  003780  4BA7               	infsnz	strlen@s& (0+255),f,b
  2094  003782  2BA8               	incf	(strlen@s+1)& (0+255),f,b
  2095  003784                     l5349:
  2096  003784  C1A7  FFD9         	movff	strlen@s,fsr2l
  2097  003788  C1A8  FFDA         	movff	strlen@s+1,fsr2h
  2098  00378C  50DF               	movf	indf2,w,c
  2099  00378E  A4D8               	btfss	status,2,c
  2100  003790  EFCC  F01B         	goto	u4431
  2101  003794  EFCE  F01B         	goto	u4430
  2102  003798                     u4431:
  2103  003798  EFBF  F01B         	goto	l5347
  2104  00379C                     u4430:
  2105  00379C  0101               	movlb	1	; () banked
  2106  00379E  51A9               	movf	strlen@a& (0+255),w,b
  2107  0037A0  5DA7               	subwf	strlen@s& (0+255),w,b
  2108  0037A2  6FA7               	movwf	?_strlen& (0+255),b
  2109  0037A4  51AA               	movf	(strlen@a+1)& (0+255),w,b
  2110  0037A6  59A8               	subwfb	(strlen@s+1)& (0+255),w,b
  2111  0037A8  6FA8               	movwf	(?_strlen+1)& (0+255),b
  2112  0037AA                     
  2113                           ; BSR set to: 1
  2114  0037AA  0012               	return		;funcret
  2115  0037AC                     __end_of_strlen:
  2116                           	opt callstack 0
  2117                           
  2118 ;; *************** function _fputs *****************
  2119 ;; Defined at:
  2120 ;;		line 8 in file "C:\Program Files (x86)\Microchip\xc8\v2.10\pic\sources\c99\common\nf_fputs.c"
  2121 ;; Parameters:    Size  Location     Type
  2122 ;;  s               2    9[BANK1 ] PTR const unsigned char 
  2123 ;;		 -> dbuf(32), 
  2124 ;;  fp              2   11[BANK1 ] PTR struct _IO_FILE
  2125 ;;		 -> sprintf@f(6), 
  2126 ;; Auto vars:     Size  Location     Type
  2127 ;;  i               2   14[BANK1 ] int 
  2128 ;;  c               1   13[BANK1 ] unsigned char 
  2129 ;; Return value:  Size  Location     Type
  2130 ;;                  2    9[BANK1 ] int 
  2131 ;; Registers used:
  2132 ;;		wreg, fsr1l, fsr1h, fsr2l, fsr2h, status,2, status,0, cstack
  2133 ;; Tracked objects:
  2134 ;;		On entry : 0/0
  2135 ;;		On exit  : 0/0
  2136 ;;		Unchanged: 0/0
  2137 ;; Data sizes:     COMRAM   BANK0   BANK1   BANK2   BANK3   BANK4   BANK5   BANK6   BANK7
  2138 ;;      Params:         0       0       4       0       0       0       0       0       0
  2139 ;;      Locals:         0       0       3       0       0       0       0       0       0
  2140 ;;      Temps:          0       0       0       0       0       0       0       0       0
  2141 ;;      Totals:         0       0       7       0       0       0       0       0       0
  2142 ;;Total ram usage:        7 bytes
  2143 ;; Hardware stack levels used:    1
  2144 ;; Hardware stack levels required when called:   21
  2145 ;; This function calls:
  2146 ;;		_fputc
  2147 ;; This function is called by:
  2148 ;;		_pad
  2149 ;; This function uses a non-reentrant model
  2150 ;;
  2151                           
  2152                           	psect	text8
  2153  003620                     __ptext8:
  2154                           	opt callstack 0
  2155  003620                     _fputs:
  2156                           	opt callstack 3
  2157  003620  0E00               	movlw	0
  2158  003622  0101               	movlb	1	; () banked
  2159  003624  6FB6               	movwf	(fputs@i+1)& (0+255),b
  2160  003626  0E00               	movlw	0
  2161  003628  6FB5               	movwf	fputs@i& (0+255),b
  2162  00362A  EF23  F01B         	goto	l5343
  2163  00362E                     l5339:
  2164                           
  2165                           ; BSR set to: 1
  2166  00362E  C1B4  F1A7         	movff	fputs@c,fputc@c
  2167  003632  6BA8               	clrf	(fputc@c+1)& (0+255),b
  2168  003634  C1B2  F1A9         	movff	fputs@fp,fputc@fp
  2169  003638  C1B3  F1AA         	movff	fputs@fp+1,fputc@fp+1
  2170  00363C  EC3E  F015         	call	_fputc	;wreg free
  2171  003640  0101               	movlb	1	; () banked
  2172  003642  4BB5               	infsnz	fputs@i& (0+255),f,b
  2173  003644  2BB6               	incf	(fputs@i+1)& (0+255),f,b
  2174  003646                     l5343:
  2175                           
  2176                           ; BSR set to: 1
  2177  003646  51B5               	movf	fputs@i& (0+255),w,b
  2178  003648  25B0               	addwf	fputs@s& (0+255),w,b
  2179  00364A  6ED9               	movwf	fsr2l,c
  2180  00364C  51B6               	movf	(fputs@i+1)& (0+255),w,b
  2181  00364E  21B1               	addwfc	(fputs@s+1)& (0+255),w,b
  2182  003650  6EDA               	movwf	fsr2h,c
  2183  003652  50DF               	movf	indf2,w,c
  2184  003654  6FB4               	movwf	fputs@c& (0+255),b
  2185  003656  51B4               	movf	fputs@c& (0+255),w,b
  2186  003658  A4D8               	btfss	status,2,c
  2187  00365A  EF31  F01B         	goto	u4421
  2188  00365E  EF33  F01B         	goto	u4420
  2189  003662                     u4421:
  2190  003662  EF17  F01B         	goto	l5339
  2191  003666                     u4420:
  2192  003666                     
  2193                           ; BSR set to: 1
  2194  003666  0012               	return		;funcret
  2195  003668                     __end_of_fputs:
  2196                           	opt callstack 0
  2197                           
  2198 ;; *************** function _fputc *****************
  2199 ;; Defined at:
  2200 ;;		line 8 in file "C:\Program Files (x86)\Microchip\xc8\v2.10\pic\sources\c99\common\nf_fputc.c"
  2201 ;; Parameters:    Size  Location     Type
  2202 ;;  c               2    0[BANK1 ] int 
  2203 ;;  fp              2    2[BANK1 ] PTR struct _IO_FILE
  2204 ;;		 -> sprintf@f(6), 
  2205 ;; Auto vars:     Size  Location     Type
  2206 ;;		None
  2207 ;; Return value:  Size  Location     Type
  2208 ;;                  2    0[BANK1 ] int 
  2209 ;; Registers used:
  2210 ;;		wreg, fsr1l, fsr1h, fsr2l, fsr2h, status,2, status,0, cstack
  2211 ;; Tracked objects:
  2212 ;;		On entry : 0/0
  2213 ;;		On exit  : 0/0
  2214 ;;		Unchanged: 0/0
  2215 ;; Data sizes:     COMRAM   BANK0   BANK1   BANK2   BANK3   BANK4   BANK5   BANK6   BANK7
  2216 ;;      Params:         0       0       4       0       0       0       0       0       0
  2217 ;;      Locals:         0       0       0       0       0       0       0       0       0
  2218 ;;      Temps:          0       0       5       0       0       0       0       0       0
  2219 ;;      Totals:         0       0       9       0       0       0       0       0       0
  2220 ;;Total ram usage:        9 bytes
  2221 ;; Hardware stack levels used:    1
  2222 ;; Hardware stack levels required when called:   20
  2223 ;; This function calls:
  2224 ;;		_putch
  2225 ;; This function is called by:
  2226 ;;		_pad
  2227 ;;		_vfpfcnvrt
  2228 ;;		_fputs
  2229 ;; This function uses a non-reentrant model
  2230 ;;
  2231                           
  2232                           	psect	text9
  2233  002A7C                     __ptext9:
  2234                           	opt callstack 0
  2235  002A7C                     _fputc:
  2236                           	opt callstack 6
  2237  002A7C  0101               	movlb	1	; () banked
  2238  002A7E  51A9               	movf	fputc@fp& (0+255),w,b
  2239  002A80  11AA               	iorwf	(fputc@fp+1)& (0+255),w,b
  2240  002A82  B4D8               	btfsc	status,2,c
  2241  002A84  EF46  F015         	goto	u4381
  2242  002A88  EF48  F015         	goto	u4380
  2243  002A8C                     u4381:
  2244  002A8C  EF51  F015         	goto	l5327
  2245  002A90                     u4380:
  2246  002A90                     
  2247                           ; BSR set to: 1
  2248  002A90  51A9               	movf	fputc@fp& (0+255),w,b
  2249  002A92  11AA               	iorwf	(fputc@fp+1)& (0+255),w,b
  2250  002A94  A4D8               	btfss	status,2,c
  2251  002A96  EF4F  F015         	goto	u4391
  2252  002A9A  EF51  F015         	goto	u4390
  2253  002A9E                     u4391:
  2254  002A9E  EF56  F015         	goto	l5329
  2255  002AA2                     u4390:
  2256  002AA2                     l5327:
  2257                           
  2258                           ; BSR set to: 1
  2259  002AA2  51A7               	movf	fputc@c& (0+255),w,b
  2260  002AA4  EC72  F01C         	call	_putch
  2261  002AA8  EFA3  F015         	goto	l1467
  2262  002AAC                     l5329:
  2263                           
  2264                           ; BSR set to: 1
  2265  002AAC  EE20 F004          	lfsr	2,4
  2266  002AB0  51A9               	movf	fputc@fp& (0+255),w,b
  2267  002AB2  26D9               	addwf	fsr2l,f,c
  2268  002AB4  51AA               	movf	(fputc@fp+1)& (0+255),w,b
  2269  002AB6  22DA               	addwfc	fsr2h,f,c
  2270  002AB8  50DE               	movf	postinc2,w,c
  2271  002ABA  10DE               	iorwf	postinc2,w,c
  2272  002ABC  B4D8               	btfsc	status,2,c
  2273  002ABE  EF63  F015         	goto	u4401
  2274  002AC2  EF65  F015         	goto	u4400
  2275  002AC6                     u4401:
  2276  002AC6  EF80  F015         	goto	l5333
  2277  002ACA                     u4400:
  2278  002ACA                     
  2279                           ; BSR set to: 1
  2280  002ACA  EE20 F004          	lfsr	2,4
  2281  002ACE  51A9               	movf	fputc@fp& (0+255),w,b
  2282  002AD0  26D9               	addwf	fsr2l,f,c
  2283  002AD2  51AA               	movf	(fputc@fp+1)& (0+255),w,b
  2284  002AD4  22DA               	addwfc	fsr2h,f,c
  2285  002AD6  EE10 F002          	lfsr	1,2
  2286  002ADA  51A9               	movf	fputc@fp& (0+255),w,b
  2287  002ADC  26E1               	addwf	fsr1l,f,c
  2288  002ADE  51AA               	movf	(fputc@fp+1)& (0+255),w,b
  2289  002AE0  22E2               	addwfc	fsr1h,f,c
  2290  002AE2  50DE               	movf	postinc2,w,c
  2291  002AE4  5CE6               	subwf	postinc1,w,c
  2292  002AE6  50E6               	movf	postinc1,w,c
  2293  002AE8  0A80               	xorlw	128
  2294  002AEA  6FAF               	movwf	(??_fputc+4)& (0+255),b
  2295  002AEC  50DE               	movf	postinc2,w,c
  2296  002AEE  0A80               	xorlw	128
  2297  002AF0  59AF               	subwfb	(??_fputc+4)& (0+255),w,b
  2298  002AF2  B0D8               	btfsc	status,0,c
  2299  002AF4  EF7E  F015         	goto	u4411
  2300  002AF8  EF80  F015         	goto	u4410
  2301  002AFC                     u4411:
  2302  002AFC  EFA3  F015         	goto	l1467
  2303  002B00                     u4410:
  2304  002B00                     l5333:
  2305                           
  2306                           ; BSR set to: 1
  2307  002B00  EE20 F002          	lfsr	2,2
  2308  002B04  51A9               	movf	fputc@fp& (0+255),w,b
  2309  002B06  26D9               	addwf	fsr2l,f,c
  2310  002B08  51AA               	movf	(fputc@fp+1)& (0+255),w,b
  2311  002B0A  22DA               	addwfc	fsr2h,f,c
  2312  002B0C  CFDE F1AB          	movff	postinc2,??_fputc
  2313  002B10  CFDD F1AC          	movff	postdec2,??_fputc+1
  2314  002B14  C1A9  FFD9         	movff	fputc@fp,fsr2l
  2315  002B18  C1AA  FFDA         	movff	fputc@fp+1,fsr2h
  2316  002B1C  CFDE F1AD          	movff	postinc2,??_fputc+2
  2317  002B20  CFDD F1AE          	movff	postdec2,??_fputc+3
  2318  002B24  51AB               	movf	??_fputc& (0+255),w,b
  2319  002B26  25AD               	addwf	(??_fputc+2)& (0+255),w,b
  2320  002B28  6ED9               	movwf	fsr2l,c
  2321  002B2A  51AC               	movf	(??_fputc+1)& (0+255),w,b
  2322  002B2C  21AE               	addwfc	(??_fputc+3)& (0+255),w,b
  2323  002B2E  6EDA               	movwf	fsr2h,c
  2324  002B30  C1A7  FFDF         	movff	fputc@c,indf2
  2325  002B34  EE20 F002          	lfsr	2,2
  2326  002B38  51A9               	movf	fputc@fp& (0+255),w,b
  2327  002B3A  26D9               	addwf	fsr2l,f,c
  2328  002B3C  51AA               	movf	(fputc@fp+1)& (0+255),w,b
  2329  002B3E  22DA               	addwfc	fsr2h,f,c
  2330  002B40  2ADE               	incf	postinc2,f,c
  2331  002B42  0E00               	movlw	0
  2332  002B44  22DD               	addwfc	postdec2,f,c
  2333  002B46                     l1467:
  2334  002B46  0012               	return		;funcret
  2335  002B48                     __end_of_fputc:
  2336                           	opt callstack 0
  2337                           
  2338 ;; *************** function _putch *****************
  2339 ;; Defined at:
  2340 ;;		line 7 in file "C:\Program Files (x86)\Microchip\xc8\v2.10\pic\sources\c99\common\putch.c"
  2341 ;; Parameters:    Size  Location     Type
  2342 ;;  c               1    wreg     unsigned char 
  2343 ;; Auto vars:     Size  Location     Type
  2344 ;;  c               1    0[COMRAM] unsigned char 
  2345 ;; Return value:  Size  Location     Type
  2346 ;;                  1    wreg      void 
  2347 ;; Registers used:
  2348 ;;		wreg
  2349 ;; Tracked objects:
  2350 ;;		On entry : 0/0
  2351 ;;		On exit  : 0/0
  2352 ;;		Unchanged: 0/0
  2353 ;; Data sizes:     COMRAM   BANK0   BANK1   BANK2   BANK3   BANK4   BANK5   BANK6   BANK7
  2354 ;;      Params:         0       0       0       0       0       0       0       0       0
  2355 ;;      Locals:         0       0       0       0       0       0       0       0       0
  2356 ;;      Temps:          0       0       0       0       0       0       0       0       0
  2357 ;;      Totals:         0       0       0       0       0       0       0       0       0
  2358 ;;Total ram usage:        0 bytes
  2359 ;; Hardware stack levels used:    1
  2360 ;; Hardware stack levels required when called:   19
  2361 ;; This function calls:
  2362 ;;		Nothing
  2363 ;; This function is called by:
  2364 ;;		_fputc
  2365 ;; This function uses a non-reentrant model
  2366 ;;
  2367                           
  2368                           	psect	text10
  2369  0038E4                     __ptext10:
  2370                           	opt callstack 0
  2371  0038E4                     _putch:
  2372                           	opt callstack 6
  2373  0038E4  0012               	return		;funcret
  2374  0038E6                     __end_of_putch:
  2375                           	opt callstack 0
  2376                           
  2377 ;; *************** function _putrsUSBUSART *****************
  2378 ;; Defined at:
  2379 ;;		line 744 in file "mcc_generated_files/usb/usb_device_cdc.c"
  2380 ;; Parameters:    Size  Location     Type
  2381 ;;  data            2    0[BANK1 ] PTR const unsigned char 
  2382 ;;		 -> buffer(64), 
  2383 ;; Auto vars:     Size  Location     Type
  2384 ;;  pData           2    2[BANK1 ] PTR const unsigned char 
  2385 ;;		 -> buffer(64), 
  2386 ;;  len             1    4[BANK1 ] unsigned char 
  2387 ;; Return value:  Size  Location     Type
  2388 ;;                  1    wreg      void 
  2389 ;; Registers used:
  2390 ;;		wreg, fsr2l, fsr2h, status,2, status,0
  2391 ;; Tracked objects:
  2392 ;;		On entry : 0/0
  2393 ;;		On exit  : 0/0
  2394 ;;		Unchanged: 0/0
  2395 ;; Data sizes:     COMRAM   BANK0   BANK1   BANK2   BANK3   BANK4   BANK5   BANK6   BANK7
  2396 ;;      Params:         0       0       2       0       0       0       0       0       0
  2397 ;;      Locals:         0       0       3       0       0       0       0       0       0
  2398 ;;      Temps:          0       0       0       0       0       0       0       0       0
  2399 ;;      Totals:         0       0       5       0       0       0       0       0       0
  2400 ;;Total ram usage:        5 bytes
  2401 ;; Hardware stack levels used:    1
  2402 ;; Hardware stack levels required when called:   19
  2403 ;; This function calls:
  2404 ;;		Nothing
  2405 ;; This function is called by:
  2406 ;;		_USBTask
  2407 ;; This function uses a non-reentrant model
  2408 ;;
  2409                           
  2410                           	psect	text11
  2411  00312C                     __ptext11:
  2412                           	opt callstack 0
  2413  00312C                     _putrsUSBUSART:
  2414                           	opt callstack 10
  2415  00312C                     
  2416                           ;mcc_generated_files/usb/usb_device_cdc.c: 744: void putrsUSBUSART(const char *data);mcc
      +                          _generated_files/usb/usb_device_cdc.c: 745: {;mcc_generated_files/usb/usb_device_cdc.c: 
      +                          746:     uint8_t len;;mcc_generated_files/usb/usb_device_cdc.c: 747:     const char *pDa
      +                          ta;;mcc_generated_files/usb/usb_device_cdc.c: 772:     {PIE3bits.USBIE = 0;};
  2417  00312C  94A3               	bcf	163,2,c	;volatile
  2418  00312E                     
  2419                           ;mcc_generated_files/usb/usb_device_cdc.c: 773:     if(cdc_trf_state != 0)
  2420  00312E  0101               	movlb	1	; () banked
  2421  003130  5106               	movf	_cdc_trf_state& (0+255),w,b
  2422  003132  B4D8               	btfsc	status,2,c
  2423  003134  EF9E  F018         	goto	u4841
  2424  003138  EFA0  F018         	goto	u4840
  2425  00313C                     u4841:
  2426  00313C  EFA3  F018         	goto	l5749
  2427  003140                     u4840:
  2428  003140                     
  2429                           ; BSR set to: 1
  2430                           ;mcc_generated_files/usb/usb_device_cdc.c: 774:     {;mcc_generated_files/usb/usb_device
      +                          _cdc.c: 775:         {PIE3bits.USBIE = 1;};
  2431  003140  84A3               	bsf	163,2,c	;volatile
  2432                           
  2433                           ;mcc_generated_files/usb/usb_device_cdc.c: 776:         return;
  2434  003142  EFCF  F018         	goto	l597
  2435  003146                     l5749:
  2436                           
  2437                           ; BSR set to: 1
  2438                           ;mcc_generated_files/usb/usb_device_cdc.c: 783:     len = 0;
  2439  003146  0E00               	movlw	0
  2440  003148  6FAB               	movwf	putrsUSBUSART@len& (0+255),b
  2441  00314A                     
  2442                           ; BSR set to: 1
  2443                           ;mcc_generated_files/usb/usb_device_cdc.c: 784:     pData = data;
  2444  00314A  C1A7  F1A9         	movff	putrsUSBUSART@data,putrsUSBUSART@pData
  2445  00314E  C1A8  F1AA         	movff	putrsUSBUSART@data+1,putrsUSBUSART@pData+1
  2446  003152                     l5753:
  2447                           
  2448                           ; BSR set to: 1
  2449                           ;mcc_generated_files/usb/usb_device_cdc.c: 786:     {;mcc_generated_files/usb/usb_device
      +                          _cdc.c: 787:         len++;
  2450  003152  2BAB               	incf	putrsUSBUSART@len& (0+255),f,b
  2451  003154                     
  2452                           ; BSR set to: 1
  2453                           ;mcc_generated_files/usb/usb_device_cdc.c: 788:         if(len == 255) break;
  2454  003154  29AB               	incf	putrsUSBUSART@len& (0+255),w,b
  2455  003156  A4D8               	btfss	status,2,c
  2456  003158  EFB0  F018         	goto	u4851
  2457  00315C  EFB2  F018         	goto	u4850
  2458  003160                     u4851:
  2459  003160  EFB4  F018         	goto	l5759
  2460  003164                     u4850:
  2461  003164  EFC2  F018         	goto	l5761
  2462  003168                     l5759:
  2463                           
  2464                           ; BSR set to: 1
  2465                           ;mcc_generated_files/usb/usb_device_cdc.c: 789:     }while(*pData++);
  2466  003168  C1A9  FFD9         	movff	putrsUSBUSART@pData,fsr2l
  2467  00316C  C1AA  FFDA         	movff	putrsUSBUSART@pData+1,fsr2h
  2468  003170  4BA9               	infsnz	putrsUSBUSART@pData& (0+255),f,b
  2469  003172  2BAA               	incf	(putrsUSBUSART@pData+1)& (0+255),f,b
  2470  003174  50DF               	movf	indf2,w,c
  2471  003176  A4D8               	btfss	status,2,c
  2472  003178  EFC0  F018         	goto	u4861
  2473  00317C  EFC2  F018         	goto	u4860
  2474  003180                     u4861:
  2475  003180  EFA9  F018         	goto	l5753
  2476  003184                     u4860:
  2477  003184                     l5761:
  2478                           
  2479                           ; BSR set to: 1
  2480                           ;mcc_generated_files/usb/usb_device_cdc.c: 798:     { pCDCSrc.bRom = (const uint8_t*)dat
      +                          a; cdc_tx_len = len; cdc_mem_type = 0x00; cdc_trf_state = 1; };
  2481  003184  C1A7  F0D7         	movff	putrsUSBUSART@data,_pCDCSrc
  2482  003188  C1A8  F0D8         	movff	putrsUSBUSART@data+1,_pCDCSrc+1
  2483  00318C                     
  2484                           ; BSR set to: 1
  2485  00318C  C1AB  F0E7         	movff	putrsUSBUSART@len,_cdc_tx_len
  2486  003190                     
  2487                           ; BSR set to: 1
  2488  003190  0E00               	movlw	0
  2489  003192  0100               	movlb	0	; () banked
  2490  003194  6FE6               	movwf	_cdc_mem_type& (0+255),b
  2491  003196                     
  2492                           ; BSR set to: 0
  2493  003196  0E01               	movlw	1
  2494  003198  0101               	movlb	1	; () banked
  2495  00319A  6F06               	movwf	_cdc_trf_state& (0+255),b
  2496  00319C                     
  2497                           ; BSR set to: 1
  2498                           ;mcc_generated_files/usb/usb_device_cdc.c: 799:     {PIE3bits.USBIE = 1;};
  2499  00319C  84A3               	bsf	163,2,c	;volatile
  2500  00319E                     l597:
  2501                           
  2502                           ; BSR set to: 1
  2503  00319E  0012               	return		;funcret
  2504  0031A0                     __end_of_putrsUSBUSART:
  2505                           	opt callstack 0
  2506                           
  2507 ;; *************** function _getsUSBUSART *****************
  2508 ;; Defined at:
  2509 ;;		line 503 in file "mcc_generated_files/usb/usb_device_cdc.c"
  2510 ;; Parameters:    Size  Location     Type
  2511 ;;  buffer          2   11[BANK1 ] PTR unsigned char 
  2512 ;;		 -> USB_Out_Buffer(64), 
  2513 ;;  len             1   13[BANK1 ] unsigned char 
  2514 ;; Auto vars:     Size  Location     Type
  2515 ;;		None
  2516 ;; Return value:  Size  Location     Type
  2517 ;;                  1    wreg      unsigned char 
  2518 ;; Registers used:
  2519 ;;		wreg, fsr1l, fsr1h, fsr2l, fsr2h, status,2, status,0, prodl, prodh, cstack
  2520 ;; Tracked objects:
  2521 ;;		On entry : 0/0
  2522 ;;		On exit  : 0/0
  2523 ;;		Unchanged: 0/0
  2524 ;; Data sizes:     COMRAM   BANK0   BANK1   BANK2   BANK3   BANK4   BANK5   BANK6   BANK7
  2525 ;;      Params:         0       0       3       0       0       0       0       0       0
  2526 ;;      Locals:         0       0       0       0       0       0       0       0       0
  2527 ;;      Temps:          0       0       1       0       0       0       0       0       0
  2528 ;;      Totals:         0       0       4       0       0       0       0       0       0
  2529 ;;Total ram usage:        4 bytes
  2530 ;; Hardware stack levels used:    1
  2531 ;; Hardware stack levels required when called:   20
  2532 ;; This function calls:
  2533 ;;		_USBTransferOnePacket
  2534 ;; This function is called by:
  2535 ;;		_USBTask
  2536 ;; This function uses a non-reentrant model
  2537 ;;
  2538                           
  2539                           	psect	text12
  2540  0028E2                     __ptext12:
  2541                           	opt callstack 0
  2542  0028E2                     _getsUSBUSART:
  2543                           	opt callstack 9
  2544  0028E2                     
  2545                           ;mcc_generated_files/usb/usb_device_cdc.c: 503: uint8_t getsUSBUSART(uint8_t *buffer, ui
      +                          nt8_t len);mcc_generated_files/usb/usb_device_cdc.c: 504: {;mcc_generated_files/usb/usb_
      +                          device_cdc.c: 505:     cdc_rx_len = 0;
  2546  0028E2  0E00               	movlw	0
  2547  0028E4  0100               	movlb	0	; () banked
  2548  0028E6  6FE8               	movwf	_cdc_rx_len& (0+255),b
  2549  0028E8                     
  2550                           ; BSR set to: 0
  2551                           ;mcc_generated_files/usb/usb_device_cdc.c: 507:     if(!((CDCDataOutHandle != 0x0000) &&
      +                           ((*(volatile uint8_t*)CDCDataOutHandle & 0x80) != 0x00)))
  2552  0028E8  51E4               	movf	_CDCDataOutHandle& (0+255),w,b
  2553  0028EA  11E5               	iorwf	(_CDCDataOutHandle+1)& (0+255),w,b
  2554  0028EC  B4D8               	btfsc	status,2,c
  2555  0028EE  EF7B  F014         	goto	u4801
  2556  0028F2  EF7D  F014         	goto	u4800
  2557  0028F6                     u4801:
  2558  0028F6  EF88  F014         	goto	l5713
  2559  0028FA                     u4800:
  2560  0028FA                     
  2561                           ; BSR set to: 0
  2562  0028FA  C0E4  FFD9         	movff	_CDCDataOutHandle,fsr2l
  2563  0028FE  C0E5  FFDA         	movff	_CDCDataOutHandle+1,fsr2h
  2564  002902  BEDF               	btfsc	indf2,7,c
  2565  002904  EF86  F014         	goto	u4811
  2566  002908  EF88  F014         	goto	u4810
  2567  00290C                     u4811:
  2568  00290C  EFD5  F014         	goto	l5727
  2569  002910                     u4810:
  2570  002910                     l5713:
  2571                           
  2572                           ; BSR set to: 0
  2573                           ;mcc_generated_files/usb/usb_device_cdc.c: 508:     {;mcc_generated_files/usb/usb_device
      +                          _cdc.c: 513:         if(len > (((volatile BDT_ENTRY*)CDCDataOutHandle)->CNT))
  2574  002910  EE20 F001          	lfsr	2,1
  2575  002914  51E4               	movf	_CDCDataOutHandle& (0+255),w,b
  2576  002916  26D9               	addwf	fsr2l,f,c
  2577  002918  51E5               	movf	(_CDCDataOutHandle+1)& (0+255),w,b
  2578  00291A  22DA               	addwfc	fsr2h,f,c
  2579  00291C  0101               	movlb	1	; () banked
  2580  00291E  51B4               	movf	getsUSBUSART@len& (0+255),w,b
  2581  002920  5CDE               	subwf	postinc2,w,c
  2582  002922  B0D8               	btfsc	status,0,c
  2583  002924  EF96  F014         	goto	u4821
  2584  002928  EF98  F014         	goto	u4820
  2585  00292C                     u4821:
  2586  00292C  EFA2  F014         	goto	l5717
  2587  002930                     u4820:
  2588  002930                     
  2589                           ; BSR set to: 1
  2590                           ;mcc_generated_files/usb/usb_device_cdc.c: 514:             len = (((volatile BDT_ENTRY*
      +                          )CDCDataOutHandle)->CNT);
  2591  002930  0100               	movlb	0	; () banked
  2592  002932  EE20 F001          	lfsr	2,1
  2593  002936  51E4               	movf	_CDCDataOutHandle& (0+255),w,b
  2594  002938  26D9               	addwf	fsr2l,f,c
  2595  00293A  51E5               	movf	(_CDCDataOutHandle+1)& (0+255),w,b
  2596  00293C  22DA               	addwfc	fsr2h,f,c
  2597  00293E  50DF               	movf	indf2,w,c
  2598  002940  0101               	movlb	1	; () banked
  2599  002942  6FB4               	movwf	getsUSBUSART@len& (0+255),b
  2600  002944                     l5717:
  2601                           
  2602                           ; BSR set to: 1
  2603                           ;mcc_generated_files/usb/usb_device_cdc.c: 519:         for(cdc_rx_len = 0; cdc_rx_len <
      +                           len; cdc_rx_len++)
  2604  002944  0E00               	movlw	0
  2605  002946  0100               	movlb	0	; () banked
  2606  002948  6FE8               	movwf	_cdc_rx_len& (0+255),b
  2607  00294A  EFBA  F014         	goto	l5723
  2608  00294E                     l5719:
  2609                           
  2610                           ; BSR set to: 0
  2611                           ;mcc_generated_files/usb/usb_device_cdc.c: 520:             buffer[cdc_rx_len] = cdc_dat
      +                          a_rx[cdc_rx_len];
  2612  00294E  0E40               	movlw	64
  2613  002950  25E8               	addwf	_cdc_rx_len& (0+255),w,b
  2614  002952  6ED9               	movwf	fsr2l,c
  2615  002954  6ADA               	clrf	fsr2h,c
  2616  002956  0E05               	movlw	5
  2617  002958  22DA               	addwfc	fsr2h,f,c
  2618  00295A  51E8               	movf	_cdc_rx_len& (0+255),w,b
  2619  00295C  0101               	movlb	1	; () banked
  2620  00295E  25B2               	addwf	getsUSBUSART@buffer& (0+255),w,b
  2621  002960  6EE1               	movwf	fsr1l,c
  2622  002962  0100               	movlb	0	; () banked
  2623  002964  0E00               	movlw	0
  2624  002966  0101               	movlb	1	; () banked
  2625  002968  21B3               	addwfc	(getsUSBUSART@buffer+1)& (0+255),w,b
  2626  00296A  6EE2               	movwf	fsr1h,c
  2627  00296C  CFDF FFE7          	movff	indf2,indf1
  2628  002970                     
  2629                           ; BSR set to: 1
  2630  002970  0100               	movlb	0	; () banked
  2631  002972  2BE8               	incf	_cdc_rx_len& (0+255),f,b
  2632  002974                     l5723:
  2633                           
  2634                           ; BSR set to: 0
  2635  002974  0101               	movlb	1	; () banked
  2636  002976  51B4               	movf	getsUSBUSART@len& (0+255),w,b
  2637  002978  0100               	movlb	0	; () banked
  2638  00297A  5DE8               	subwf	_cdc_rx_len& (0+255),w,b
  2639  00297C  A0D8               	btfss	status,0,c
  2640  00297E  EFC3  F014         	goto	u4831
  2641  002982  EFC5  F014         	goto	u4830
  2642  002986                     u4831:
  2643  002986  EFA7  F014         	goto	l5719
  2644  00298A                     u4830:
  2645  00298A                     
  2646                           ; BSR set to: 0
  2647                           ;mcc_generated_files/usb/usb_device_cdc.c: 526:         CDCDataOutHandle = USBTransferOn
      +                          ePacket(2,0,(uint8_t*)&cdc_data_rx,sizeof(cdc_data_rx));
  2648  00298A  0E00               	movlw	0
  2649  00298C  0101               	movlb	1	; () banked
  2650  00298E  6FA7               	movwf	USBTransferOnePacket@dir& (0+255),b
  2651  002990  0E40               	movlw	64
  2652  002992  6FA8               	movwf	USBTransferOnePacket@data& (0+255),b
  2653  002994  0E05               	movlw	5
  2654  002996  6FA9               	movwf	(USBTransferOnePacket@data+1)& (0+255),b
  2655  002998  0E40               	movlw	64
  2656  00299A  6FAA               	movwf	USBTransferOnePacket@len& (0+255),b
  2657  00299C  0E02               	movlw	2
  2658  00299E  EC54  F00E         	call	_USBTransferOnePacket
  2659  0029A2  C1A7  F0E4         	movff	?_USBTransferOnePacket,_CDCDataOutHandle
  2660  0029A6  C1A8  F0E5         	movff	?_USBTransferOnePacket+1,_CDCDataOutHandle+1
  2661  0029AA                     l5727:
  2662                           
  2663                           ;mcc_generated_files/usb/usb_device_cdc.c: 530:     return cdc_rx_len;
  2664  0029AA  0100               	movlb	0	; () banked
  2665  0029AC  51E8               	movf	_cdc_rx_len& (0+255),w,b
  2666  0029AE                     
  2667                           ; BSR set to: 0
  2668  0029AE  0012               	return		;funcret
  2669  0029B0                     __end_of_getsUSBUSART:
  2670                           	opt callstack 0
  2671                           
  2672 ;; *************** function _CDCTxService *****************
  2673 ;; Defined at:
  2674 ;;		line 854 in file "mcc_generated_files/usb/usb_device_cdc.c"
  2675 ;; Parameters:    Size  Location     Type
  2676 ;;		None
  2677 ;; Auto vars:     Size  Location     Type
  2678 ;;  byte_to_send    1   12[BANK1 ] unsigned char 
  2679 ;;  i               1   11[BANK1 ] unsigned char 
  2680 ;; Return value:  Size  Location     Type
  2681 ;;                  1    wreg      void 
  2682 ;; Registers used:
  2683 ;;		wreg, fsr1l, fsr1h, fsr2l, fsr2h, status,2, status,0, prodl, prodh, cstack
  2684 ;; Tracked objects:
  2685 ;;		On entry : 0/0
  2686 ;;		On exit  : 0/0
  2687 ;;		Unchanged: 0/0
  2688 ;; Data sizes:     COMRAM   BANK0   BANK1   BANK2   BANK3   BANK4   BANK5   BANK6   BANK7
  2689 ;;      Params:         0       0       0       0       0       0       0       0       0
  2690 ;;      Locals:         0       0       2       0       0       0       0       0       0
  2691 ;;      Temps:          0       0       0       0       0       0       0       0       0
  2692 ;;      Totals:         0       0       2       0       0       0       0       0       0
  2693 ;;Total ram usage:        2 bytes
  2694 ;; Hardware stack levels used:    1
  2695 ;; Hardware stack levels required when called:   20
  2696 ;; This function calls:
  2697 ;;		_USBTransferOnePacket
  2698 ;; This function is called by:
  2699 ;;		_USBTask
  2700 ;; This function uses a non-reentrant model
  2701 ;;
  2702                           
  2703                           	psect	text13
  2704  000E3E                     __ptext13:
  2705                           	opt callstack 0
  2706  000E3E                     _CDCTxService:
  2707                           	opt callstack 9
  2708  000E3E                     
  2709                           ;mcc_generated_files/usb/usb_device_cdc.c: 856:     uint8_t byte_to_send;;mcc_generated_
      +                          files/usb/usb_device_cdc.c: 857:     uint8_t i;;mcc_generated_files/usb/usb_device_cdc.c
      +                          : 859:     {PIE3bits.USBIE = 0;};
  2710  000E3E  94A3               	bcf	163,2,c	;volatile
  2711  000E40                     
  2712                           ;mcc_generated_files/usb/usb_device_cdc.c: 861:     {};;mcc_generated_files/usb/usb_devi
      +                          ce_cdc.c: 863:     if(((CDCDataInHandle != 0x0000) && ((*(volatile uint8_t*)CDCDataInHan
      +                          dle & 0x80) != 0x00)))
  2713  000E40  0100               	movlb	0	; () banked
  2714  000E42  51E2               	movf	_CDCDataInHandle& (0+255),w,b
  2715  000E44  11E3               	iorwf	(_CDCDataInHandle+1)& (0+255),w,b
  2716  000E46  B4D8               	btfsc	status,2,c
  2717  000E48  EF28  F007         	goto	u4871
  2718  000E4C  EF2A  F007         	goto	u4870
  2719  000E50                     u4871:
  2720  000E50  EF38  F007         	goto	l5779
  2721  000E54                     u4870:
  2722  000E54                     
  2723                           ; BSR set to: 0
  2724  000E54  C0E2  FFD9         	movff	_CDCDataInHandle,fsr2l
  2725  000E58  C0E3  FFDA         	movff	_CDCDataInHandle+1,fsr2h
  2726  000E5C  AEDF               	btfss	indf2,7,c
  2727  000E5E  EF33  F007         	goto	u4881
  2728  000E62  EF35  F007         	goto	u4880
  2729  000E66                     u4881:
  2730  000E66  EF38  F007         	goto	l5779
  2731  000E6A                     u4880:
  2732  000E6A                     
  2733                           ; BSR set to: 0
  2734                           ;mcc_generated_files/usb/usb_device_cdc.c: 864:     {;mcc_generated_files/usb/usb_device
      +                          _cdc.c: 865:         {PIE3bits.USBIE = 1;};
  2735  000E6A  84A3               	bsf	163,2,c	;volatile
  2736                           
  2737                           ;mcc_generated_files/usb/usb_device_cdc.c: 866:         return;
  2738  000E6C  EFF9  F007         	goto	l604
  2739  000E70                     l5779:
  2740                           
  2741                           ; BSR set to: 0
  2742                           ;mcc_generated_files/usb/usb_device_cdc.c: 874:     if(cdc_trf_state == 3)
  2743  000E70  0E03               	movlw	3
  2744  000E72  0101               	movlb	1	; () banked
  2745  000E74  1906               	xorwf	_cdc_trf_state& (0+255),w,b
  2746  000E76  A4D8               	btfss	status,2,c
  2747  000E78  EF40  F007         	goto	u4891
  2748  000E7C  EF42  F007         	goto	u4890
  2749  000E80                     u4891:
  2750  000E80  EF44  F007         	goto	l605
  2751  000E84                     u4890:
  2752  000E84                     
  2753                           ; BSR set to: 1
  2754                           ;mcc_generated_files/usb/usb_device_cdc.c: 875:         cdc_trf_state = 0;
  2755  000E84  0E00               	movlw	0
  2756  000E86  6F06               	movwf	_cdc_trf_state& (0+255),b
  2757  000E88                     l605:
  2758                           
  2759                           ; BSR set to: 1
  2760                           ;mcc_generated_files/usb/usb_device_cdc.c: 880:     if(cdc_trf_state == 0)
  2761  000E88  5106               	movf	_cdc_trf_state& (0+255),w,b
  2762  000E8A  A4D8               	btfss	status,2,c
  2763  000E8C  EF4A  F007         	goto	u4901
  2764  000E90  EF4C  F007         	goto	u4900
  2765  000E94                     u4901:
  2766  000E94  EF4F  F007         	goto	l5785
  2767  000E98                     u4900:
  2768  000E98                     
  2769                           ; BSR set to: 1
  2770                           ;mcc_generated_files/usb/usb_device_cdc.c: 881:     {;mcc_generated_files/usb/usb_device
      +                          _cdc.c: 882:         {PIE3bits.USBIE = 1;};
  2771  000E98  84A3               	bsf	163,2,c	;volatile
  2772                           
  2773                           ;mcc_generated_files/usb/usb_device_cdc.c: 883:         return;
  2774  000E9A  EFF9  F007         	goto	l604
  2775  000E9E                     l5785:
  2776                           
  2777                           ; BSR set to: 1
  2778                           ;mcc_generated_files/usb/usb_device_cdc.c: 889:     if(cdc_trf_state == 2)
  2779  000E9E  0E02               	movlw	2
  2780  000EA0  1906               	xorwf	_cdc_trf_state& (0+255),w,b
  2781  000EA2  A4D8               	btfss	status,2,c
  2782  000EA4  EF56  F007         	goto	u4911
  2783  000EA8  EF58  F007         	goto	u4910
  2784  000EAC                     u4911:
  2785  000EAC  EF6C  F007         	goto	l5791
  2786  000EB0                     u4910:
  2787  000EB0                     
  2788                           ; BSR set to: 1
  2789                           ;mcc_generated_files/usb/usb_device_cdc.c: 890:     {;mcc_generated_files/usb/usb_device
      +                          _cdc.c: 891:         CDCDataInHandle = USBTransferOnePacket(2,1,((void*)0),0);
  2790  000EB0  0E01               	movlw	1
  2791  000EB2  6FA7               	movwf	USBTransferOnePacket@dir& (0+255),b
  2792  000EB4  0E00               	movlw	0
  2793  000EB6  6FA8               	movwf	USBTransferOnePacket@data& (0+255),b
  2794  000EB8  0E00               	movlw	0
  2795  000EBA  6FA9               	movwf	(USBTransferOnePacket@data+1)& (0+255),b
  2796  000EBC  0E00               	movlw	0
  2797  000EBE  6FAA               	movwf	USBTransferOnePacket@len& (0+255),b
  2798  000EC0  0E02               	movlw	2
  2799  000EC2  EC54  F00E         	call	_USBTransferOnePacket
  2800  000EC6  C1A7  F0E2         	movff	?_USBTransferOnePacket,_CDCDataInHandle
  2801  000ECA  C1A8  F0E3         	movff	?_USBTransferOnePacket+1,_CDCDataInHandle+1
  2802  000ECE                     
  2803                           ;mcc_generated_files/usb/usb_device_cdc.c: 893:         cdc_trf_state = 3;
  2804  000ECE  0E03               	movlw	3
  2805  000ED0  0101               	movlb	1	; () banked
  2806  000ED2  6F06               	movwf	_cdc_trf_state& (0+255),b
  2807                           
  2808                           ;mcc_generated_files/usb/usb_device_cdc.c: 894:     }
  2809  000ED4  EFF8  F007         	goto	l5835
  2810  000ED8                     l5791:
  2811                           
  2812                           ; BSR set to: 1
  2813  000ED8  0506               	decf	_cdc_trf_state& (0+255),w,b
  2814  000EDA  A4D8               	btfss	status,2,c
  2815  000EDC  EF72  F007         	goto	u4921
  2816  000EE0  EF74  F007         	goto	u4920
  2817  000EE4                     u4921:
  2818  000EE4  EFF8  F007         	goto	l5835
  2819  000EE8                     u4920:
  2820  000EE8                     
  2821                           ; BSR set to: 1
  2822                           ;mcc_generated_files/usb/usb_device_cdc.c: 896:     {;mcc_generated_files/usb/usb_device
      +                          _cdc.c: 900:      if(cdc_tx_len > sizeof(cdc_data_tx))
  2823  000EE8  0E40               	movlw	64
  2824  000EEA  0100               	movlb	0	; () banked
  2825  000EEC  65E7               	cpfsgt	_cdc_tx_len& (0+255),b
  2826  000EEE  EF7B  F007         	goto	u4931
  2827  000EF2  EF7D  F007         	goto	u4930
  2828  000EF6                     u4931:
  2829  000EF6  EF82  F007         	goto	l610
  2830  000EFA                     u4930:
  2831  000EFA                     
  2832                           ; BSR set to: 0
  2833                           ;mcc_generated_files/usb/usb_device_cdc.c: 901:          byte_to_send = sizeof(cdc_data_
      +                          tx);
  2834  000EFA  0E40               	movlw	64
  2835  000EFC  0101               	movlb	1	; () banked
  2836  000EFE  6FB3               	movwf	CDCTxService@byte_to_send& (0+255),b
  2837  000F00  EF84  F007         	goto	l5797
  2838  000F04                     l610:
  2839                           
  2840                           ; BSR set to: 0
  2841                           ;mcc_generated_files/usb/usb_device_cdc.c: 903:          byte_to_send = cdc_tx_len;
  2842  000F04  C0E7  F1B3         	movff	_cdc_tx_len,CDCTxService@byte_to_send
  2843  000F08                     l5797:
  2844                           
  2845                           ;mcc_generated_files/usb/usb_device_cdc.c: 908:      cdc_tx_len = cdc_tx_len - byte_to_s
      +                          end;
  2846  000F08  0101               	movlb	1	; () banked
  2847  000F0A  51B3               	movf	CDCTxService@byte_to_send& (0+255),w,b
  2848  000F0C  0100               	movlb	0	; () banked
  2849  000F0E  5DE7               	subwf	_cdc_tx_len& (0+255),w,b
  2850  000F10  6FE7               	movwf	_cdc_tx_len& (0+255),b
  2851                           
  2852                           ;mcc_generated_files/usb/usb_device_cdc.c: 910:         pCDCDst.bRam = (uint8_t*)&cdc_da
      +                          ta_tx;
  2853  000F12  0E00               	movlw	0
  2854  000F14  6FD4               	movwf	_pCDCDst& (0+255),b
  2855  000F16  0E05               	movlw	5
  2856  000F18  6FD5               	movwf	(_pCDCDst+1)& (0+255),b
  2857  000F1A                     
  2858                           ; BSR set to: 0
  2859                           ;mcc_generated_files/usb/usb_device_cdc.c: 912:         i = byte_to_send;
  2860  000F1A  C1B3  F1B2         	movff	CDCTxService@byte_to_send,CDCTxService@i
  2861  000F1E                     
  2862                           ; BSR set to: 0
  2863                           ;mcc_generated_files/usb/usb_device_cdc.c: 913:         if(cdc_mem_type == 0x00)
  2864  000F1E  51E6               	movf	_cdc_mem_type& (0+255),w,b
  2865  000F20  A4D8               	btfss	status,2,c
  2866  000F22  EF95  F007         	goto	u4941
  2867  000F26  EF97  F007         	goto	u4940
  2868  000F2A                     u4941:
  2869  000F2A  EFC6  F007         	goto	l5823
  2870  000F2E                     u4940:
  2871  000F2E  EFAA  F007         	goto	l5813
  2872  000F32                     l5805:
  2873                           
  2874                           ; BSR set to: 1
  2875                           ;mcc_generated_files/usb/usb_device_cdc.c: 916:             {;mcc_generated_files/usb/us
      +                          b_device_cdc.c: 917:                 *pCDCDst.bRam = *pCDCSrc.bRom;
  2876  000F32  C0D7  FFD9         	movff	_pCDCSrc,fsr2l
  2877  000F36  C0D8  FFDA         	movff	_pCDCSrc+1,fsr2h
  2878  000F3A  C0D4  FFE1         	movff	_pCDCDst,fsr1l
  2879  000F3E  C0D5  FFE2         	movff	_pCDCDst+1,fsr1h
  2880  000F42  CFDF FFE7          	movff	indf2,indf1
  2881  000F46                     
  2882                           ; BSR set to: 1
  2883                           ;mcc_generated_files/usb/usb_device_cdc.c: 918:                 pCDCDst.bRam++;
  2884  000F46  0100               	movlb	0	; () banked
  2885  000F48  4BD4               	infsnz	_pCDCDst& (0+255),f,b
  2886  000F4A  2BD5               	incf	(_pCDCDst+1)& (0+255),f,b
  2887  000F4C                     
  2888                           ; BSR set to: 0
  2889                           ;mcc_generated_files/usb/usb_device_cdc.c: 919:                 pCDCSrc.bRom++;
  2890  000F4C  4BD7               	infsnz	_pCDCSrc& (0+255),f,b
  2891  000F4E  2BD8               	incf	(_pCDCSrc+1)& (0+255),f,b
  2892  000F50                     
  2893                           ; BSR set to: 0
  2894                           ;mcc_generated_files/usb/usb_device_cdc.c: 920:                 i--;
  2895  000F50  0101               	movlb	1	; () banked
  2896  000F52  07B2               	decf	CDCTxService@i& (0+255),f,b
  2897  000F54                     l5813:
  2898                           
  2899                           ;mcc_generated_files/usb/usb_device_cdc.c: 915:             while(i)
  2900  000F54  0101               	movlb	1	; () banked
  2901  000F56  51B2               	movf	CDCTxService@i& (0+255),w,b
  2902  000F58  A4D8               	btfss	status,2,c
  2903  000F5A  EFB1  F007         	goto	u4951
  2904  000F5E  EFB3  F007         	goto	u4950
  2905  000F62                     u4951:
  2906  000F62  EF99  F007         	goto	l5805
  2907  000F66                     u4950:
  2908  000F66  EFCF  F007         	goto	l5825
  2909  000F6A                     l5815:
  2910                           
  2911                           ; BSR set to: 1
  2912                           ;mcc_generated_files/usb/usb_device_cdc.c: 926:             {;mcc_generated_files/usb/us
      +                          b_device_cdc.c: 927:                 *pCDCDst.bRam = *pCDCSrc.bRam;
  2913  000F6A  C0D7  FFD9         	movff	_pCDCSrc,fsr2l
  2914  000F6E  C0D8  FFDA         	movff	_pCDCSrc+1,fsr2h
  2915  000F72  C0D4  FFE1         	movff	_pCDCDst,fsr1l
  2916  000F76  C0D5  FFE2         	movff	_pCDCDst+1,fsr1h
  2917  000F7A  CFDF FFE7          	movff	indf2,indf1
  2918  000F7E                     
  2919                           ; BSR set to: 1
  2920                           ;mcc_generated_files/usb/usb_device_cdc.c: 928:                 pCDCDst.bRam++;
  2921  000F7E  0100               	movlb	0	; () banked
  2922  000F80  4BD4               	infsnz	_pCDCDst& (0+255),f,b
  2923  000F82  2BD5               	incf	(_pCDCDst+1)& (0+255),f,b
  2924  000F84                     
  2925                           ; BSR set to: 0
  2926                           ;mcc_generated_files/usb/usb_device_cdc.c: 929:                 pCDCSrc.bRam++;
  2927  000F84  4BD7               	infsnz	_pCDCSrc& (0+255),f,b
  2928  000F86  2BD8               	incf	(_pCDCSrc+1)& (0+255),f,b
  2929  000F88                     
  2930                           ; BSR set to: 0
  2931                           ;mcc_generated_files/usb/usb_device_cdc.c: 930:                 i--;
  2932  000F88  0101               	movlb	1	; () banked
  2933  000F8A  07B2               	decf	CDCTxService@i& (0+255),f,b
  2934  000F8C                     l5823:
  2935                           
  2936                           ;mcc_generated_files/usb/usb_device_cdc.c: 925:             while(i)
  2937  000F8C  0101               	movlb	1	; () banked
  2938  000F8E  51B2               	movf	CDCTxService@i& (0+255),w,b
  2939  000F90  A4D8               	btfss	status,2,c
  2940  000F92  EFCD  F007         	goto	u4961
  2941  000F96  EFCF  F007         	goto	u4960
  2942  000F9A                     u4961:
  2943  000F9A  EFB5  F007         	goto	l5815
  2944  000F9E                     u4960:
  2945  000F9E                     l5825:
  2946                           
  2947                           ; BSR set to: 1
  2948                           ;mcc_generated_files/usb/usb_device_cdc.c: 938:         if(cdc_tx_len == 0)
  2949  000F9E  0100               	movlb	0	; () banked
  2950  000FA0  51E7               	movf	_cdc_tx_len& (0+255),w,b
  2951  000FA2  A4D8               	btfss	status,2,c
  2952  000FA4  EFD6  F007         	goto	u4971
  2953  000FA8  EFD8  F007         	goto	u4970
  2954  000FAC                     u4971:
  2955  000FAC  EFE8  F007         	goto	l5833
  2956  000FB0                     u4970:
  2957  000FB0                     
  2958                           ; BSR set to: 0
  2959                           ;mcc_generated_files/usb/usb_device_cdc.c: 939:         {;mcc_generated_files/usb/usb_de
      +                          vice_cdc.c: 940:             if(byte_to_send == 64)
  2960  000FB0  0E40               	movlw	64
  2961  000FB2  0101               	movlb	1	; () banked
  2962  000FB4  19B3               	xorwf	CDCTxService@byte_to_send& (0+255),w,b
  2963  000FB6  A4D8               	btfss	status,2,c
  2964  000FB8  EFE0  F007         	goto	u4981
  2965  000FBC  EFE2  F007         	goto	u4980
  2966  000FC0                     u4981:
  2967  000FC0  EFE6  F007         	goto	l5831
  2968  000FC4                     u4980:
  2969  000FC4                     
  2970                           ; BSR set to: 1
  2971                           ;mcc_generated_files/usb/usb_device_cdc.c: 941:                 cdc_trf_state = 2;
  2972  000FC4  0E02               	movlw	2
  2973  000FC6  6F06               	movwf	_cdc_trf_state& (0+255),b
  2974  000FC8  EFE8  F007         	goto	l5833
  2975  000FCC                     l5831:
  2976                           
  2977                           ; BSR set to: 1
  2978                           ;mcc_generated_files/usb/usb_device_cdc.c: 943:                 cdc_trf_state = 3;
  2979  000FCC  0E03               	movlw	3
  2980  000FCE  6F06               	movwf	_cdc_trf_state& (0+255),b
  2981  000FD0                     l5833:
  2982                           
  2983                           ;mcc_generated_files/usb/usb_device_cdc.c: 945:         CDCDataInHandle = USBTransferOne
      +                          Packet(2,1,(uint8_t*)&cdc_data_tx,byte_to_send);
  2984  000FD0  0E01               	movlw	1
  2985  000FD2  0101               	movlb	1	; () banked
  2986  000FD4  6FA7               	movwf	USBTransferOnePacket@dir& (0+255),b
  2987  000FD6  0E00               	movlw	0
  2988  000FD8  6FA8               	movwf	USBTransferOnePacket@data& (0+255),b
  2989  000FDA  0E05               	movlw	5
  2990  000FDC  6FA9               	movwf	(USBTransferOnePacket@data+1)& (0+255),b
  2991  000FDE  C1B3  F1AA         	movff	CDCTxService@byte_to_send,USBTransferOnePacket@len
  2992  000FE2  0E02               	movlw	2
  2993  000FE4  EC54  F00E         	call	_USBTransferOnePacket
  2994  000FE8  C1A7  F0E2         	movff	?_USBTransferOnePacket,_CDCDataInHandle
  2995  000FEC  C1A8  F0E3         	movff	?_USBTransferOnePacket+1,_CDCDataInHandle+1
  2996  000FF0                     l5835:
  2997                           
  2998                           ;mcc_generated_files/usb/usb_device_cdc.c: 949:     {PIE3bits.USBIE = 1;};
  2999  000FF0  84A3               	bsf	163,2,c	;volatile
  3000  000FF2                     l604:
  3001  000FF2  0012               	return		;funcret
  3002  000FF4                     __end_of_CDCTxService:
  3003                           	opt callstack 0
  3004                           
  3005 ;; *************** function _USBTransferOnePacket *****************
  3006 ;; Defined at:
  3007 ;;		line 999 in file "mcc_generated_files/usb/usb_device.c"
  3008 ;; Parameters:    Size  Location     Type
  3009 ;;  ep              1    wreg     unsigned char 
  3010 ;;  dir             1    0[BANK1 ] unsigned char 
  3011 ;;  data            2    1[BANK1 ] PTR unsigned char 
  3012 ;;		 -> cdc_data_tx(64), cdc_data_rx(64), NULL(0), 
  3013 ;;  len             1    3[BANK1 ] unsigned char 
  3014 ;; Auto vars:     Size  Location     Type
  3015 ;;  ep              1    8[BANK1 ] unsigned char 
  3016 ;;  handle          2    9[BANK1 ] PTR volatile struct __BD
  3017 ;;		 -> RAM(2047), NULL(0), BDT(48), 
  3018 ;; Return value:  Size  Location     Type
  3019 ;;                  2    0[BANK1 ] PTR void 
  3020 ;; Registers used:
  3021 ;;		wreg, fsr2l, fsr2h, status,2, status,0, prodl, prodh
  3022 ;; Tracked objects:
  3023 ;;		On entry : 0/0
  3024 ;;		On exit  : 0/0
  3025 ;;		Unchanged: 0/0
  3026 ;; Data sizes:     COMRAM   BANK0   BANK1   BANK2   BANK3   BANK4   BANK5   BANK6   BANK7
  3027 ;;      Params:         0       0       4       0       0       0       0       0       0
  3028 ;;      Locals:         0       0       3       0       0       0       0       0       0
  3029 ;;      Temps:          0       0       4       0       0       0       0       0       0
  3030 ;;      Totals:         0       0      11       0       0       0       0       0       0
  3031 ;;Total ram usage:       11 bytes
  3032 ;; Hardware stack levels used:    1
  3033 ;; Hardware stack levels required when called:   19
  3034 ;; This function calls:
  3035 ;;		Nothing
  3036 ;; This function is called by:
  3037 ;;		_getsUSBUSART
  3038 ;;		_CDCTxService
  3039 ;;		_USBCDCEventHandler
  3040 ;; This function uses a non-reentrant model
  3041 ;;
  3042                           
  3043                           	psect	text14
  3044  001CA8                     __ptext14:
  3045                           	opt callstack 0
  3046  001CA8                     _USBTransferOnePacket:
  3047                           	opt callstack 9
  3048                           
  3049                           ;incstack = 0
  3050                           ;USBTransferOnePacket@ep stored from wreg
  3051  001CA8  0101               	movlb	1	; () banked
  3052  001CAA  6FAF               	movwf	USBTransferOnePacket@ep& (0+255),b
  3053  001CAC                     
  3054                           ;mcc_generated_files/usb/usb_device.c: 999: void* USBTransferOnePacket(uint8_t ep,uint8_
      +                          t dir,uint8_t* data,uint8_t len);mcc_generated_files/usb/usb_device.c: 1000: {;mcc_gener
      +                          ated_files/usb/usb_device.c: 1001:     volatile BDT_ENTRY* handle;;mcc_generated_files/u
      +                          sb/usb_device.c: 1004:     if(dir != 0)
  3055  001CAC  0101               	movlb	1	; () banked
  3056  001CAE  51A7               	movf	USBTransferOnePacket@dir& (0+255),w,b
  3057  001CB0  B4D8               	btfsc	status,2,c
  3058  001CB2  EF5D  F00E         	goto	u4681
  3059  001CB6  EF5F  F00E         	goto	u4680
  3060  001CBA                     u4681:
  3061  001CBA  EF6D  F00E         	goto	l5535
  3062  001CBE                     u4680:
  3063  001CBE                     
  3064                           ; BSR set to: 1
  3065                           ;mcc_generated_files/usb/usb_device.c: 1005:     {;mcc_generated_files/usb/usb_device.c:
      +                           1007:         handle = pBDTEntryIn[ep];
  3066  001CBE  51AF               	movf	USBTransferOnePacket@ep& (0+255),w,b
  3067  001CC0  0D02               	mullw	2
  3068  001CC2  0EC8               	movlw	low _pBDTEntryIn
  3069  001CC4  24F3               	addwf	243,w,c
  3070  001CC6  6ED9               	movwf	fsr2l,c
  3071  001CC8  0E00               	movlw	high _pBDTEntryIn
  3072  001CCA  20F4               	addwfc	prodh,w,c
  3073  001CCC  6EDA               	movwf	fsr2h,c
  3074  001CCE  CFDE F1B0          	movff	postinc2,USBTransferOnePacket@handle
  3075  001CD2  CFDD F1B1          	movff	postdec2,USBTransferOnePacket@handle+1
  3076                           
  3077                           ;mcc_generated_files/usb/usb_device.c: 1008:     }
  3078  001CD6  EF79  F00E         	goto	l5537
  3079  001CDA                     l5535:
  3080                           
  3081                           ; BSR set to: 1
  3082                           ;mcc_generated_files/usb/usb_device.c: 1010:     {;mcc_generated_files/usb/usb_device.c:
      +                           1012:         handle = pBDTEntryOut[ep];
  3083  001CDA  51AF               	movf	USBTransferOnePacket@ep& (0+255),w,b
  3084  001CDC  0D02               	mullw	2
  3085  001CDE  0ECE               	movlw	low _pBDTEntryOut
  3086  001CE0  24F3               	addwf	243,w,c
  3087  001CE2  6ED9               	movwf	fsr2l,c
  3088  001CE4  0E00               	movlw	high _pBDTEntryOut
  3089  001CE6  20F4               	addwfc	prodh,w,c
  3090  001CE8  6EDA               	movwf	fsr2h,c
  3091  001CEA  CFDE F1B0          	movff	postinc2,USBTransferOnePacket@handle
  3092  001CEE  CFDD F1B1          	movff	postdec2,USBTransferOnePacket@handle+1
  3093  001CF2                     l5537:
  3094                           
  3095                           ; BSR set to: 1
  3096                           ;mcc_generated_files/usb/usb_device.c: 1017:     if(handle == 0)
  3097  001CF2  51B0               	movf	USBTransferOnePacket@handle& (0+255),w,b
  3098  001CF4  11B1               	iorwf	(USBTransferOnePacket@handle+1)& (0+255),w,b
  3099  001CF6  A4D8               	btfss	status,2,c
  3100  001CF8  EF80  F00E         	goto	u4691
  3101  001CFC  EF82  F00E         	goto	u4690
  3102  001D00                     u4691:
  3103  001D00  EF88  F00E         	goto	l5543
  3104  001D04                     u4690:
  3105  001D04                     
  3106                           ; BSR set to: 1
  3107                           ;mcc_generated_files/usb/usb_device.c: 1018:     {;mcc_generated_files/usb/usb_device.c:
      +                           1019:         return 0;
  3108  001D04  0E00               	movlw	0
  3109  001D06  6FA7               	movwf	?_USBTransferOnePacket& (0+255),b
  3110  001D08  0E00               	movlw	0
  3111  001D0A  6FA8               	movwf	(?_USBTransferOnePacket+1)& (0+255),b
  3112  001D0C  EFF4  F00E         	goto	l219
  3113  001D10                     l5543:
  3114                           
  3115                           ; BSR set to: 1
  3116                           ;mcc_generated_files/usb/usb_device.c: 1033:     handle->ADR = ((uint16_t)(data));
  3117  001D10  EE20 F002          	lfsr	2,2
  3118  001D14  51B0               	movf	USBTransferOnePacket@handle& (0+255),w,b
  3119  001D16  26D9               	addwf	fsr2l,f,c
  3120  001D18  51B1               	movf	(USBTransferOnePacket@handle+1)& (0+255),w,b
  3121  001D1A  22DA               	addwfc	fsr2h,f,c
  3122  001D1C  C1A8  FFDE         	movff	USBTransferOnePacket@data,postinc2
  3123  001D20  C1A9  FFDD         	movff	USBTransferOnePacket@data+1,postdec2
  3124                           
  3125                           ;mcc_generated_files/usb/usb_device.c: 1034:     handle->CNT = len;
  3126  001D24  EE20 F001          	lfsr	2,1
  3127  001D28  51B0               	movf	USBTransferOnePacket@handle& (0+255),w,b
  3128  001D2A  26D9               	addwf	fsr2l,f,c
  3129  001D2C  51B1               	movf	(USBTransferOnePacket@handle+1)& (0+255),w,b
  3130  001D2E  22DA               	addwfc	fsr2h,f,c
  3131  001D30  C1AA  FFDF         	movff	USBTransferOnePacket@len,indf2
  3132  001D34                     
  3133                           ; BSR set to: 1
  3134                           ;mcc_generated_files/usb/usb_device.c: 1035:     handle->STAT.Val &= 0x40;
  3135  001D34  C1B0  FFD9         	movff	USBTransferOnePacket@handle,fsr2l
  3136  001D38  C1B1  FFDA         	movff	USBTransferOnePacket@handle+1,fsr2h
  3137  001D3C  0E40               	movlw	64
  3138  001D3E  16DF               	andwf	indf2,f,c
  3139  001D40                     
  3140                           ; BSR set to: 1
  3141                           ;mcc_generated_files/usb/usb_device.c: 1036:     handle->STAT.Val |= (0x08 & 0x08);
  3142  001D40  C1B0  FFD9         	movff	USBTransferOnePacket@handle,fsr2l
  3143  001D44  C1B1  FFDA         	movff	USBTransferOnePacket@handle+1,fsr2h
  3144  001D48  0E00               	movlw	0
  3145  001D4A  86DB               	bsf	plusw2,3,c
  3146  001D4C                     
  3147                           ; BSR set to: 1
  3148                           ;mcc_generated_files/usb/usb_device.c: 1037:     handle->STAT.Val |= 0x80;
  3149  001D4C  C1B0  FFD9         	movff	USBTransferOnePacket@handle,fsr2l
  3150  001D50  C1B1  FFDA         	movff	USBTransferOnePacket@handle+1,fsr2h
  3151  001D54  0E00               	movlw	0
  3152  001D56  8EDB               	bsf	plusw2,7,c
  3153  001D58                     
  3154                           ; BSR set to: 1
  3155                           ;mcc_generated_files/usb/usb_device.c: 1040:     if(dir != 0)
  3156  001D58  51A7               	movf	USBTransferOnePacket@dir& (0+255),w,b
  3157  001D5A  B4D8               	btfsc	status,2,c
  3158  001D5C  EFB2  F00E         	goto	u4701
  3159  001D60  EFB4  F00E         	goto	u4700
  3160  001D64                     u4701:
  3161  001D64  EFD3  F00E         	goto	l5555
  3162  001D68                     u4700:
  3163  001D68                     
  3164                           ; BSR set to: 1
  3165                           ;mcc_generated_files/usb/usb_device.c: 1041:     {;mcc_generated_files/usb/usb_device.c:
      +                           1043:         pBDTEntryIn[ep] = (BDT_ENTRY*)(((uint16_t)pBDTEntryIn[ep]) ^ 0x0004);
  3166  001D68  51AF               	movf	USBTransferOnePacket@ep& (0+255),w,b
  3167  001D6A  0D02               	mullw	2
  3168  001D6C  0EC8               	movlw	low _pBDTEntryIn
  3169  001D6E  24F3               	addwf	243,w,c
  3170  001D70  6ED9               	movwf	fsr2l,c
  3171  001D72  0E00               	movlw	high _pBDTEntryIn
  3172  001D74  20F4               	addwfc	prodh,w,c
  3173  001D76  6EDA               	movwf	fsr2h,c
  3174  001D78  CFDE F1AB          	movff	postinc2,??_USBTransferOnePacket
  3175  001D7C  CFDD F1AC          	movff	postdec2,??_USBTransferOnePacket+1
  3176  001D80  0E04               	movlw	4
  3177  001D82  19AB               	xorwf	??_USBTransferOnePacket& (0+255),w,b
  3178  001D84  6FAD               	movwf	(??_USBTransferOnePacket+2)& (0+255),b
  3179  001D86  51AC               	movf	(??_USBTransferOnePacket+1)& (0+255),w,b
  3180  001D88  6FAE               	movwf	(??_USBTransferOnePacket+3)& (0+255),b
  3181  001D8A  51AF               	movf	USBTransferOnePacket@ep& (0+255),w,b
  3182  001D8C  0D02               	mullw	2
  3183  001D8E  0EC8               	movlw	low _pBDTEntryIn
  3184  001D90  24F3               	addwf	243,w,c
  3185  001D92  6ED9               	movwf	fsr2l,c
  3186  001D94  0E00               	movlw	high _pBDTEntryIn
  3187  001D96  20F4               	addwfc	prodh,w,c
  3188  001D98  6EDA               	movwf	fsr2h,c
  3189  001D9A  C1AD  FFDE         	movff	??_USBTransferOnePacket+2,postinc2
  3190  001D9E  C1AE  FFDD         	movff	??_USBTransferOnePacket+3,postdec2
  3191                           
  3192                           ;mcc_generated_files/usb/usb_device.c: 1044:     }
  3193  001DA2  EFF0  F00E         	goto	l5557
  3194  001DA6                     l5555:
  3195                           
  3196                           ; BSR set to: 1
  3197                           ;mcc_generated_files/usb/usb_device.c: 1046:     {;mcc_generated_files/usb/usb_device.c:
      +                           1048:         pBDTEntryOut[ep] = (BDT_ENTRY*)(((uint16_t)pBDTEntryOut[ep]) ^ 0x0004);
  3198  001DA6  51AF               	movf	USBTransferOnePacket@ep& (0+255),w,b
  3199  001DA8  0D02               	mullw	2
  3200  001DAA  0ECE               	movlw	low _pBDTEntryOut
  3201  001DAC  24F3               	addwf	243,w,c
  3202  001DAE  6ED9               	movwf	fsr2l,c
  3203  001DB0  0E00               	movlw	high _pBDTEntryOut
  3204  001DB2  20F4               	addwfc	prodh,w,c
  3205  001DB4  6EDA               	movwf	fsr2h,c
  3206  001DB6  CFDE F1AB          	movff	postinc2,??_USBTransferOnePacket
  3207  001DBA  CFDD F1AC          	movff	postdec2,??_USBTransferOnePacket+1
  3208  001DBE  0E04               	movlw	4
  3209  001DC0  19AB               	xorwf	??_USBTransferOnePacket& (0+255),w,b
  3210  001DC2  6FAD               	movwf	(??_USBTransferOnePacket+2)& (0+255),b
  3211  001DC4  51AC               	movf	(??_USBTransferOnePacket+1)& (0+255),w,b
  3212  001DC6  6FAE               	movwf	(??_USBTransferOnePacket+3)& (0+255),b
  3213  001DC8  51AF               	movf	USBTransferOnePacket@ep& (0+255),w,b
  3214  001DCA  0D02               	mullw	2
  3215  001DCC  0ECE               	movlw	low _pBDTEntryOut
  3216  001DCE  24F3               	addwf	243,w,c
  3217  001DD0  6ED9               	movwf	fsr2l,c
  3218  001DD2  0E00               	movlw	high _pBDTEntryOut
  3219  001DD4  20F4               	addwfc	prodh,w,c
  3220  001DD6  6EDA               	movwf	fsr2h,c
  3221  001DD8  C1AD  FFDE         	movff	??_USBTransferOnePacket+2,postinc2
  3222  001DDC  C1AE  FFDD         	movff	??_USBTransferOnePacket+3,postdec2
  3223  001DE0                     l5557:
  3224                           
  3225                           ; BSR set to: 1
  3226                           ;mcc_generated_files/usb/usb_device.c: 1050:     return (void*)handle;
  3227  001DE0  C1B0  F1A7         	movff	USBTransferOnePacket@handle,?_USBTransferOnePacket
  3228  001DE4  C1B1  F1A8         	movff	USBTransferOnePacket@handle+1,?_USBTransferOnePacket+1
  3229  001DE8                     l219:
  3230                           
  3231                           ; BSR set to: 1
  3232  001DE8  0012               	return		;funcret
  3233  001DEA                     __end_of_USBTransferOnePacket:
  3234                           	opt callstack 0
  3235                           
  3236 ;; *************** function _SYSTEM_Initialize *****************
  3237 ;; Defined at:
  3238 ;;		line 50 in file "mcc_generated_files/mcc.c"
  3239 ;; Parameters:    Size  Location     Type
  3240 ;;		None
  3241 ;; Auto vars:     Size  Location     Type
  3242 ;;		None
  3243 ;; Return value:  Size  Location     Type
  3244 ;;                  1    wreg      void 
  3245 ;; Registers used:
  3246 ;;		wreg, fsr2l, fsr2h, status,2, status,0, prodl, prodh, cstack
  3247 ;; Tracked objects:
  3248 ;;		On entry : 0/0
  3249 ;;		On exit  : 0/0
  3250 ;;		Unchanged: 0/0
  3251 ;; Data sizes:     COMRAM   BANK0   BANK1   BANK2   BANK3   BANK4   BANK5   BANK6   BANK7
  3252 ;;      Params:         0       0       0       0       0       0       0       0       0
  3253 ;;      Locals:         0       0       0       0       0       0       0       0       0
  3254 ;;      Temps:          0       0       0       0       0       0       0       0       0
  3255 ;;      Totals:         0       0       0       0       0       0       0       0       0
  3256 ;;Total ram usage:        0 bytes
  3257 ;; Hardware stack levels used:    1
  3258 ;; Hardware stack levels required when called:   21
  3259 ;; This function calls:
  3260 ;;		_INTERRUPT_Initialize
  3261 ;;		_OSCILLATOR_Initialize
  3262 ;;		_PIN_MANAGER_Initialize
  3263 ;;		_USBDeviceAttach
  3264 ;;		_USBDeviceInit
  3265 ;; This function is called by:
  3266 ;;		_main
  3267 ;; This function uses a non-reentrant model
  3268 ;;
  3269                           
  3270                           	psect	text15
  3271  0038BE                     __ptext15:
  3272                           	opt callstack 0
  3273  0038BE                     _SYSTEM_Initialize:
  3274                           	opt callstack 9
  3275  0038BE                     
  3276                           ;mcc_generated_files/mcc.c: 53:     INTERRUPT_Initialize();
  3277  0038BE  EC6A  F01C         	call	_INTERRUPT_Initialize	;wreg free
  3278  0038C2                     
  3279                           ;mcc_generated_files/mcc.c: 54:     PIN_MANAGER_Initialize();
  3280  0038C2  EC9A  F01B         	call	_PIN_MANAGER_Initialize	;wreg free
  3281  0038C6                     
  3282                           ;mcc_generated_files/mcc.c: 55:     OSCILLATOR_Initialize();
  3283  0038C6  EC4F  F01C         	call	_OSCILLATOR_Initialize	;wreg free
  3284  0038CA                     
  3285                           ;mcc_generated_files/mcc.c: 56:     USBDeviceInit();
  3286  0038CA  EC63  F00C         	call	_USBDeviceInit	;wreg free
  3287  0038CE                     
  3288                           ;mcc_generated_files/mcc.c: 57:     USBDeviceAttach();
  3289  0038CE  EC58  F01B         	call	_USBDeviceAttach	;wreg free
  3290  0038D2  0012               	return		;funcret
  3291  0038D4                     __end_of_SYSTEM_Initialize:
  3292                           	opt callstack 0
  3293                           
  3294 ;; *************** function _USBDeviceInit *****************
  3295 ;; Defined at:
  3296 ;;		line 281 in file "mcc_generated_files/usb/usb_device.c"
  3297 ;; Parameters:    Size  Location     Type
  3298 ;;		None
  3299 ;; Auto vars:     Size  Location     Type
  3300 ;;  i               1   12[BANK1 ] unsigned char 
  3301 ;; Return value:  Size  Location     Type
  3302 ;;                  1    wreg      void 
  3303 ;; Registers used:
  3304 ;;		wreg, fsr2l, fsr2h, status,2, status,0, prodl, prodh, cstack
  3305 ;; Tracked objects:
  3306 ;;		On entry : 0/0
  3307 ;;		On exit  : 0/0
  3308 ;;		Unchanged: 0/0
  3309 ;; Data sizes:     COMRAM   BANK0   BANK1   BANK2   BANK3   BANK4   BANK5   BANK6   BANK7
  3310 ;;      Params:         0       0       0       0       0       0       0       0       0
  3311 ;;      Locals:         0       0       1       0       0       0       0       0       0
  3312 ;;      Temps:          0       0       0       0       0       0       0       0       0
  3313 ;;      Totals:         0       0       1       0       0       0       0       0       0
  3314 ;;Total ram usage:        1 bytes
  3315 ;; Hardware stack levels used:    1
  3316 ;; Hardware stack levels required when called:   20
  3317 ;; This function calls:
  3318 ;;		_memset
  3319 ;; This function is called by:
  3320 ;;		_SYSTEM_Initialize
  3321 ;; This function uses a non-reentrant model
  3322 ;;
  3323                           
  3324                           	psect	text16
  3325  0018C6                     __ptext16:
  3326                           	opt callstack 0
  3327  0018C6                     _USBDeviceInit:
  3328                           	opt callstack 9
  3329  0018C6                     
  3330                           ;mcc_generated_files/usb/usb_device.c: 283:     uint8_t i;;mcc_generated_files/usb/usb_d
      +                          evice.c: 285:     {PIE3bits.USBIE = 0;};
  3331  0018C6  94A3               	bcf	163,2,c	;volatile
  3332  0018C8                     
  3333                           ;mcc_generated_files/usb/usb_device.c: 292:     {UEIR = 0;};
  3334  0018C8  0E00               	movlw	0
  3335  0018CA  6E67               	movwf	103,c	;volatile
  3336                           
  3337                           ;mcc_generated_files/usb/usb_device.c: 295:     {UIR = 0;};
  3338  0018CC  0E00               	movlw	0
  3339  0018CE  6E65               	movwf	101,c	;volatile
  3340                           
  3341                           ;mcc_generated_files/usb/usb_device.c: 298:     UEP0 = 0;
  3342  0018D0  0E00               	movlw	0
  3343  0018D2  6E6A               	movwf	106,c	;volatile
  3344  0018D4                     
  3345                           ;mcc_generated_files/usb/usb_device.c: 300:     memset((void*)&UEP1,0x00,(2));;
  3346  0018D4  0E6B               	movlw	107
  3347  0018D6  0101               	movlb	1	; () banked
  3348  0018D8  6FA7               	movwf	memset@dest& (0+255),b
  3349  0018DA  0E0F               	movlw	15
  3350  0018DC  6FA8               	movwf	(memset@dest+1)& (0+255),b
  3351  0018DE  0E00               	movlw	0
  3352  0018E0  6FAA               	movwf	(memset@c+1)& (0+255),b
  3353  0018E2  0E00               	movlw	0
  3354  0018E4  6FA9               	movwf	memset@c& (0+255),b
  3355  0018E6  0E00               	movlw	0
  3356  0018E8  6FAC               	movwf	(memset@n+1)& (0+255),b
  3357  0018EA  0E02               	movlw	2
  3358  0018EC  6FAB               	movwf	memset@n& (0+255),b
  3359  0018EE  ECCD  F008         	call	_memset	;wreg free
  3360  0018F2                     
  3361                           ;mcc_generated_files/usb/usb_device.c: 302:     { UCFG = 0x10 | 0x00 | 0x04 | 0x02; UEIE
      +                           = 0x9F; UIE = 0x39 | 0x40 | 0x02; };
  3362  0018F2  0E16               	movlw	22
  3363  0018F4  6E62               	movwf	98,c	;volatile
  3364  0018F6  0E9F               	movlw	159
  3365  0018F8  6E66               	movwf	102,c	;volatile
  3366  0018FA  0E7B               	movlw	123
  3367  0018FC  6E64               	movwf	100,c	;volatile
  3368  0018FE                     
  3369                           ;mcc_generated_files/usb/usb_device.c: 311:     for(i = 0; i < (sizeof(BDT)/sizeof(BDT_E
      +                          NTRY)); i++)
  3370  0018FE  0E00               	movlw	0
  3371  001900  0101               	movlb	1	; () banked
  3372  001902  6FB3               	movwf	USBDeviceInit@i& (0+255),b
  3373  001904                     l5639:
  3374                           
  3375                           ; BSR set to: 1
  3376                           ;mcc_generated_files/usb/usb_device.c: 312:     {;mcc_generated_files/usb/usb_device.c: 
      +                          313:         BDT[i].Val = 0x00;
  3377  001904  51B3               	movf	USBDeviceInit@i& (0+255),w,b
  3378  001906  0D04               	mullw	4
  3379  001908  0E00               	movlw	0
  3380  00190A  24F3               	addwf	243,w,c
  3381  00190C  6ED9               	movwf	fsr2l,c
  3382  00190E  0E04               	movlw	4
  3383  001910  20F4               	addwfc	prodh,w,c
  3384  001912  6EDA               	movwf	fsr2h,c
  3385  001914  6ADE               	clrf	postinc2,c
  3386  001916  6ADE               	clrf	postinc2,c
  3387  001918  6ADE               	clrf	postinc2,c
  3388  00191A  6ADD               	clrf	postdec2,c
  3389  00191C                     
  3390                           ; BSR set to: 1
  3391                           ;mcc_generated_files/usb/usb_device.c: 314:     }
  3392  00191C  2BB3               	incf	USBDeviceInit@i& (0+255),f,b
  3393  00191E                     
  3394                           ; BSR set to: 1
  3395  00191E  0E0B               	movlw	11
  3396  001920  65B3               	cpfsgt	USBDeviceInit@i& (0+255),b
  3397  001922  EF95  F00C         	goto	u4751
  3398  001926  EF97  F00C         	goto	u4750
  3399  00192A                     u4751:
  3400  00192A  EF82  F00C         	goto	l5639
  3401  00192E                     u4750:
  3402  00192E                     
  3403                           ; BSR set to: 1
  3404                           ;mcc_generated_files/usb/usb_device.c: 317:     UCONbits.PPBRST = 1;
  3405  00192E  8C60               	bsf	96,6,c	;volatile
  3406  001930                     
  3407                           ; BSR set to: 1
  3408                           ;mcc_generated_files/usb/usb_device.c: 320:     UADDR = 0x00;
  3409  001930  0E00               	movlw	0
  3410  001932  6E63               	movwf	99,c	;volatile
  3411  001934                     
  3412                           ; BSR set to: 1
  3413                           ;mcc_generated_files/usb/usb_device.c: 323:     UCONbits.PKTDIS = 0;
  3414  001934  9860               	bcf	96,4,c	;volatile
  3415  001936                     
  3416                           ; BSR set to: 1
  3417                           ;mcc_generated_files/usb/usb_device.c: 326:     UCONbits.PPBRST = 0;
  3418  001936  9C60               	bcf	96,6,c	;volatile
  3419  001938                     l5651:
  3420                           
  3421                           ;mcc_generated_files/usb/usb_device.c: 330:     {;mcc_generated_files/usb/usb_device.c: 
      +                          331:         (UIR &= 0xF7);
  3422  001938  9665               	bcf	101,3,c	;volatile
  3423  00193A                     
  3424                           ;mcc_generated_files/usb/usb_device.c: 333:         inPipes[0].info.Val = 0;
  3425  00193A  0E00               	movlw	0
  3426  00193C  0100               	movlb	0	; () banked
  3427  00193E  6FC5               	movwf	(_inPipes+3)& (0+255),b	;volatile
  3428  001940                     
  3429                           ; BSR set to: 0
  3430                           ;mcc_generated_files/usb/usb_device.c: 334:         outPipes[0].info.Val = 0;
  3431  001940  0E00               	movlw	0
  3432  001942  6FBD               	movwf	(_outPipes+3)& (0+255),b	;volatile
  3433  001944                     
  3434                           ; BSR set to: 0
  3435                           ;mcc_generated_files/usb/usb_device.c: 335:         outPipes[0].wCount.Val = 0;
  3436  001944  0E00               	movlw	0
  3437  001946  6FBF               	movwf	(_outPipes+5)& (0+255),b	;volatile
  3438  001948  0E00               	movlw	0
  3439  00194A  6FBE               	movwf	(_outPipes+4)& (0+255),b	;volatile
  3440  00194C                     
  3441                           ; BSR set to: 0
  3442                           ;mcc_generated_files/usb/usb_device.c: 336:     }while(UIRbits.TRNIF == 1);
  3443  00194C  B665               	btfsc	101,3,c	;volatile
  3444  00194E  EFAB  F00C         	goto	u4761
  3445  001952  EFAD  F00C         	goto	u4760
  3446  001956                     u4761:
  3447  001956  EF9C  F00C         	goto	l5651
  3448  00195A                     u4760:
  3449  00195A                     
  3450                           ; BSR set to: 0
  3451                           ;mcc_generated_files/usb/usb_device.c: 340:     USBStatusStageEnabledFlag1 = 1;
  3452  00195A  0E01               	movlw	1
  3453  00195C  6E3E               	movwf	_USBStatusStageEnabledFlag1^0,c	;volatile
  3454                           
  3455                           ;mcc_generated_files/usb/usb_device.c: 341:     USBStatusStageEnabledFlag2 = 1;
  3456  00195E  0E01               	movlw	1
  3457  001960  6E3D               	movwf	_USBStatusStageEnabledFlag2^0,c	;volatile
  3458                           
  3459                           ;mcc_generated_files/usb/usb_device.c: 343:     USBDeferINDataStagePackets = 0;
  3460  001962  0E00               	movlw	0
  3461  001964  6E3C               	movwf	_USBDeferINDataStagePackets^0,c	;volatile
  3462                           
  3463                           ;mcc_generated_files/usb/usb_device.c: 344:     USBDeferOUTDataStagePackets = 0;
  3464  001966  0E00               	movlw	0
  3465  001968  6E3B               	movwf	_USBDeferOUTDataStagePackets^0,c	;volatile
  3466                           
  3467                           ;mcc_generated_files/usb/usb_device.c: 345:     USBBusIsSuspended = 0;
  3468  00196A  0E00               	movlw	0
  3469  00196C  6FEA               	movwf	_USBBusIsSuspended& (0+255),b	;volatile
  3470                           
  3471                           ;mcc_generated_files/usb/usb_device.c: 349:     for(i = 0; i < (uint8_t)(2 +1u); i++)
  3472  00196E  0E00               	movlw	0
  3473  001970  0101               	movlb	1	; () banked
  3474  001972  6FB3               	movwf	USBDeviceInit@i& (0+255),b
  3475  001974                     l5667:
  3476                           
  3477                           ; BSR set to: 1
  3478                           ;mcc_generated_files/usb/usb_device.c: 350:     {;mcc_generated_files/usb/usb_device.c: 
      +                          351:         pBDTEntryIn[i] = 0u;
  3479  001974  51B3               	movf	USBDeviceInit@i& (0+255),w,b
  3480  001976  0D02               	mullw	2
  3481  001978  0EC8               	movlw	low _pBDTEntryIn
  3482  00197A  24F3               	addwf	243,w,c
  3483  00197C  6ED9               	movwf	fsr2l,c
  3484  00197E  0E00               	movlw	high _pBDTEntryIn
  3485  001980  20F4               	addwfc	prodh,w,c
  3486  001982  6EDA               	movwf	fsr2h,c
  3487  001984  0E00               	movlw	0
  3488  001986  6EDE               	movwf	postinc2,c
  3489  001988  0E00               	movlw	0
  3490  00198A  6EDD               	movwf	postdec2,c
  3491                           
  3492                           ;mcc_generated_files/usb/usb_device.c: 352:         pBDTEntryOut[i] = 0u;
  3493  00198C  51B3               	movf	USBDeviceInit@i& (0+255),w,b
  3494  00198E  0D02               	mullw	2
  3495  001990  0ECE               	movlw	low _pBDTEntryOut
  3496  001992  24F3               	addwf	243,w,c
  3497  001994  6ED9               	movwf	fsr2l,c
  3498  001996  0E00               	movlw	high _pBDTEntryOut
  3499  001998  20F4               	addwfc	prodh,w,c
  3500  00199A  6EDA               	movwf	fsr2h,c
  3501  00199C  0E00               	movlw	0
  3502  00199E  6EDE               	movwf	postinc2,c
  3503  0019A0  0E00               	movlw	0
  3504  0019A2  6EDD               	movwf	postdec2,c
  3505  0019A4                     
  3506                           ; BSR set to: 1
  3507                           ;mcc_generated_files/usb/usb_device.c: 353:         ep_data_in[i].Val = 0u;
  3508  0019A4  0EDD               	movlw	low _ep_data_in
  3509  0019A6  25B3               	addwf	USBDeviceInit@i& (0+255),w,b
  3510  0019A8  6ED9               	movwf	fsr2l,c
  3511  0019AA  6ADA               	clrf	fsr2h,c
  3512  0019AC  0E00               	movlw	high _ep_data_in
  3513  0019AE  22DA               	addwfc	fsr2h,f,c
  3514  0019B0  0E00               	movlw	0
  3515  0019B2  6EDF               	movwf	indf2,c
  3516  0019B4                     
  3517                           ; BSR set to: 1
  3518                           ;mcc_generated_files/usb/usb_device.c: 354:         ep_data_out[i].Val = 0u;
  3519  0019B4  0EDA               	movlw	low _ep_data_out
  3520  0019B6  25B3               	addwf	USBDeviceInit@i& (0+255),w,b
  3521  0019B8  6ED9               	movwf	fsr2l,c
  3522  0019BA  6ADA               	clrf	fsr2h,c
  3523  0019BC  0E00               	movlw	high _ep_data_out
  3524  0019BE  22DA               	addwfc	fsr2h,f,c
  3525  0019C0  0E00               	movlw	0
  3526  0019C2  6EDF               	movwf	indf2,c
  3527  0019C4                     
  3528                           ; BSR set to: 1
  3529                           ;mcc_generated_files/usb/usb_device.c: 355:     }
  3530  0019C4  2BB3               	incf	USBDeviceInit@i& (0+255),f,b
  3531  0019C6                     
  3532                           ; BSR set to: 1
  3533  0019C6  0E02               	movlw	2
  3534  0019C8  65B3               	cpfsgt	USBDeviceInit@i& (0+255),b
  3535  0019CA  EFE9  F00C         	goto	u4771
  3536  0019CE  EFEB  F00C         	goto	u4770
  3537  0019D2                     u4771:
  3538  0019D2  EFBA  F00C         	goto	l5667
  3539  0019D6                     u4770:
  3540  0019D6                     
  3541                           ; BSR set to: 1
  3542                           ;mcc_generated_files/usb/usb_device.c: 358:     pBDTEntryIn[0] = (volatile BDT_ENTRY*)&B
      +                          DT[2];
  3543  0019D6  0E08               	movlw	8
  3544  0019D8  0100               	movlb	0	; () banked
  3545  0019DA  6FC8               	movwf	_pBDTEntryIn& (0+255),b
  3546  0019DC  0E04               	movlw	4
  3547  0019DE  6FC9               	movwf	(_pBDTEntryIn+1)& (0+255),b
  3548  0019E0                     
  3549                           ; BSR set to: 0
  3550                           ;mcc_generated_files/usb/usb_device.c: 360:     UEP0 = 0x06|0x10;
  3551  0019E0  0E16               	movlw	22
  3552  0019E2  6E6A               	movwf	106,c	;volatile
  3553  0019E4                     
  3554                           ; BSR set to: 0
  3555                           ;mcc_generated_files/usb/usb_device.c: 362:     BDT[0].ADR = ((uint16_t)(&SetupPkt));
  3556  0019E4  0E04               	movlw	4
  3557  0019E6  0104               	movlb	4	; () banked
  3558  0019E8  6F03               	movwf	3,b	;volatile
  3559  0019EA  0E30               	movlw	48
  3560  0019EC  6F02               	movwf	2,b	;volatile
  3561  0019EE                     
  3562                           ; BSR set to: 4
  3563                           ;mcc_generated_files/usb/usb_device.c: 363:     BDT[0].CNT = 8;
  3564  0019EE  0E08               	movlw	8
  3565  0019F0  6F01               	movwf	1,b	;volatile
  3566  0019F2                     
  3567                           ; BSR set to: 4
  3568                           ;mcc_generated_files/usb/usb_device.c: 364:     BDT[0].STAT.Val = 0x00|0x04;
  3569  0019F2  0E04               	movlw	4
  3570  0019F4  6F00               	movwf	0,b	;volatile
  3571  0019F6                     
  3572                           ; BSR set to: 4
  3573                           ;mcc_generated_files/usb/usb_device.c: 365:     BDT[0].STAT.Val |= 0x80;
  3574  0019F6  8F00               	bsf	0,7,b	;volatile
  3575  0019F8                     
  3576                           ; BSR set to: 4
  3577                           ;mcc_generated_files/usb/usb_device.c: 368:     USBActiveConfiguration = 0;
  3578  0019F8  0E00               	movlw	0
  3579  0019FA  6E51               	movwf	_USBActiveConfiguration^0,c	;volatile
  3580  0019FC                     
  3581                           ; BSR set to: 4
  3582                           ;mcc_generated_files/usb/usb_device.c: 370:     USB1msTickCount = 0;
  3583  0019FC  0E00               	movlw	0
  3584  0019FE  6E2E               	movwf	_USB1msTickCount^0,c	;volatile
  3585  001A00  0E00               	movlw	0
  3586  001A02  6E2F               	movwf	(_USB1msTickCount+1)^0,c	;volatile
  3587  001A04  0E00               	movlw	0
  3588  001A06  6E30               	movwf	(_USB1msTickCount+2)^0,c	;volatile
  3589  001A08  0E00               	movlw	0
  3590  001A0A  6E31               	movwf	(_USB1msTickCount+3)^0,c	;volatile
  3591  001A0C                     
  3592                           ; BSR set to: 4
  3593                           ;mcc_generated_files/usb/usb_device.c: 371:     USBTicksSinceSuspendEnd = 0;
  3594  001A0C  0E00               	movlw	0
  3595  001A0E  0100               	movlb	0	; () banked
  3596  001A10  6FE9               	movwf	_USBTicksSinceSuspendEnd& (0+255),b	;volatile
  3597  001A12                     
  3598                           ; BSR set to: 0
  3599                           ;mcc_generated_files/usb/usb_device.c: 374:     USBDeviceState = DETACHED_STATE;
  3600  001A12  0E00               	movlw	0
  3601  001A14  6E46               	movwf	_USBDeviceState^0,c	;volatile
  3602  001A16                     
  3603                           ; BSR set to: 0
  3604  001A16  0012               	return		;funcret
  3605  001A18                     __end_of_USBDeviceInit:
  3606                           	opt callstack 0
  3607                           
  3608 ;; *************** function _memset *****************
  3609 ;; Defined at:
  3610 ;;		line 4 in file "C:\Program Files (x86)\Microchip\xc8\v2.10\pic\sources\c99\common\memset.c"
  3611 ;; Parameters:    Size  Location     Type
  3612 ;;  dest            2    0[BANK1 ] PTR void 
  3613 ;;		 -> USBAlternateInterface(2), BDT(48), UEP1(1), 
  3614 ;;  c               2    2[BANK1 ] int 
  3615 ;;  n               2    4[BANK1 ] unsigned int 
  3616 ;; Auto vars:     Size  Location     Type
  3617 ;;  s               2   10[BANK1 ] PTR unsigned char 
  3618 ;;		 -> USBAlternateInterface(2), BDT(48), UEP1(1), 
  3619 ;;  k               2    8[BANK1 ] unsigned int 
  3620 ;; Return value:  Size  Location     Type
  3621 ;;                  2    0[BANK1 ] PTR void 
  3622 ;; Registers used:
  3623 ;;		wreg, fsr2l, fsr2h, status,2, status,0
  3624 ;; Tracked objects:
  3625 ;;		On entry : 0/0
  3626 ;;		On exit  : 0/0
  3627 ;;		Unchanged: 0/0
  3628 ;; Data sizes:     COMRAM   BANK0   BANK1   BANK2   BANK3   BANK4   BANK5   BANK6   BANK7
  3629 ;;      Params:         0       0       6       0       0       0       0       0       0
  3630 ;;      Locals:         0       0       4       0       0       0       0       0       0
  3631 ;;      Temps:          0       0       2       0       0       0       0       0       0
  3632 ;;      Totals:         0       0      12       0       0       0       0       0       0
  3633 ;;Total ram usage:       12 bytes
  3634 ;; Hardware stack levels used:    1
  3635 ;; Hardware stack levels required when called:   19
  3636 ;; This function calls:
  3637 ;;		Nothing
  3638 ;; This function is called by:
  3639 ;;		_USBDeviceInit
  3640 ;; This function uses a non-reentrant model
  3641 ;;
  3642                           
  3643                           	psect	text17
  3644  00119A                     __ptext17:
  3645                           	opt callstack 0
  3646  00119A                     _memset:
  3647                           	opt callstack 9
  3648  00119A  C1A7  F1B1         	movff	memset@dest,memset@s
  3649  00119E  C1A8  F1B2         	movff	memset@dest+1,memset@s+1
  3650  0011A2  0101               	movlb	1	; () banked
  3651  0011A4  51AB               	movf	memset@n& (0+255),w,b
  3652  0011A6  11AC               	iorwf	(memset@n+1)& (0+255),w,b
  3653  0011A8  A4D8               	btfss	status,2,c
  3654  0011AA  EFD9  F008         	goto	u4631
  3655  0011AE  EFDB  F008         	goto	u4630
  3656  0011B2                     u4631:
  3657  0011B2  EFDD  F008         	goto	l5503
  3658  0011B6                     u4630:
  3659  0011B6  EF88  F009         	goto	l1449
  3660  0011BA                     l5503:
  3661                           
  3662                           ; BSR set to: 1
  3663  0011BA  C1B1  FFD9         	movff	memset@s,fsr2l
  3664  0011BE  C1B2  FFDA         	movff	memset@s+1,fsr2h
  3665  0011C2  C1A9  FFDF         	movff	memset@c,indf2
  3666  0011C6                     
  3667                           ; BSR set to: 1
  3668  0011C6  51AB               	movf	memset@n& (0+255),w,b
  3669  0011C8  25B1               	addwf	memset@s& (0+255),w,b
  3670  0011CA  6FAD               	movwf	??_memset& (0+255),b
  3671  0011CC  51AC               	movf	(memset@n+1)& (0+255),w,b
  3672  0011CE  21B2               	addwfc	(memset@s+1)& (0+255),w,b
  3673  0011D0  6FAE               	movwf	(??_memset+1)& (0+255),b
  3674  0011D2  0EFF               	movlw	255
  3675  0011D4  25AD               	addwf	??_memset& (0+255),w,b
  3676  0011D6  6ED9               	movwf	fsr2l,c
  3677  0011D8  0EFF               	movlw	255
  3678  0011DA  21AE               	addwfc	(??_memset+1)& (0+255),w,b
  3679  0011DC  6EDA               	movwf	fsr2h,c
  3680  0011DE  C1A9  FFDF         	movff	memset@c,indf2
  3681  0011E2  51AC               	movf	(memset@n+1)& (0+255),w,b
  3682  0011E4  E107               	bnz	u4641
  3683  0011E6  0E03               	movlw	3
  3684  0011E8  5DAB               	subwf	memset@n& (0+255),w,b
  3685  0011EA  B0D8               	btfsc	status,0,c
  3686  0011EC  EFFA  F008         	goto	u4641
  3687  0011F0  EFFC  F008         	goto	u4640
  3688  0011F4                     u4641:
  3689  0011F4  EFFE  F008         	goto	l5509
  3690  0011F8                     u4640:
  3691  0011F8  EF88  F009         	goto	l1449
  3692  0011FC                     l5509:
  3693                           
  3694                           ; BSR set to: 1
  3695  0011FC  EE20 F001          	lfsr	2,1
  3696  001200  51B1               	movf	memset@s& (0+255),w,b
  3697  001202  26D9               	addwf	fsr2l,f,c
  3698  001204  51B2               	movf	(memset@s+1)& (0+255),w,b
  3699  001206  22DA               	addwfc	fsr2h,f,c
  3700  001208  C1A9  FFDF         	movff	memset@c,indf2
  3701  00120C  EE20 F002          	lfsr	2,2
  3702  001210  51B1               	movf	memset@s& (0+255),w,b
  3703  001212  26D9               	addwf	fsr2l,f,c
  3704  001214  51B2               	movf	(memset@s+1)& (0+255),w,b
  3705  001216  22DA               	addwfc	fsr2h,f,c
  3706  001218  C1A9  FFDF         	movff	memset@c,indf2
  3707  00121C  51AB               	movf	memset@n& (0+255),w,b
  3708  00121E  25B1               	addwf	memset@s& (0+255),w,b
  3709  001220  6FAD               	movwf	??_memset& (0+255),b
  3710  001222  51AC               	movf	(memset@n+1)& (0+255),w,b
  3711  001224  21B2               	addwfc	(memset@s+1)& (0+255),w,b
  3712  001226  6FAE               	movwf	(??_memset+1)& (0+255),b
  3713  001228  0EFE               	movlw	254
  3714  00122A  25AD               	addwf	??_memset& (0+255),w,b
  3715  00122C  6ED9               	movwf	fsr2l,c
  3716  00122E  0EFF               	movlw	255
  3717  001230  21AE               	addwfc	(??_memset+1)& (0+255),w,b
  3718  001232  6EDA               	movwf	fsr2h,c
  3719  001234  C1A9  FFDF         	movff	memset@c,indf2
  3720  001238  51AB               	movf	memset@n& (0+255),w,b
  3721  00123A  25B1               	addwf	memset@s& (0+255),w,b
  3722  00123C  6FAD               	movwf	??_memset& (0+255),b
  3723  00123E  51AC               	movf	(memset@n+1)& (0+255),w,b
  3724  001240  21B2               	addwfc	(memset@s+1)& (0+255),w,b
  3725  001242  6FAE               	movwf	(??_memset+1)& (0+255),b
  3726  001244  0EFD               	movlw	253
  3727  001246  25AD               	addwf	??_memset& (0+255),w,b
  3728  001248  6ED9               	movwf	fsr2l,c
  3729  00124A  0EFF               	movlw	255
  3730  00124C  21AE               	addwfc	(??_memset+1)& (0+255),w,b
  3731  00124E  6EDA               	movwf	fsr2h,c
  3732  001250  C1A9  FFDF         	movff	memset@c,indf2
  3733  001254                     
  3734                           ; BSR set to: 1
  3735  001254  51AC               	movf	(memset@n+1)& (0+255),w,b
  3736  001256  E107               	bnz	u4651
  3737  001258  0E07               	movlw	7
  3738  00125A  5DAB               	subwf	memset@n& (0+255),w,b
  3739  00125C  B0D8               	btfsc	status,0,c
  3740  00125E  EF33  F009         	goto	u4651
  3741  001262  EF35  F009         	goto	u4650
  3742  001266                     u4651:
  3743  001266  EF37  F009         	goto	l5515
  3744  00126A                     u4650:
  3745  00126A  EF88  F009         	goto	l1449
  3746  00126E                     l5515:
  3747                           
  3748                           ; BSR set to: 1
  3749  00126E  EE20 F003          	lfsr	2,3
  3750  001272  51B1               	movf	memset@s& (0+255),w,b
  3751  001274  26D9               	addwf	fsr2l,f,c
  3752  001276  51B2               	movf	(memset@s+1)& (0+255),w,b
  3753  001278  22DA               	addwfc	fsr2h,f,c
  3754  00127A  C1A9  FFDF         	movff	memset@c,indf2
  3755  00127E  51AB               	movf	memset@n& (0+255),w,b
  3756  001280  25B1               	addwf	memset@s& (0+255),w,b
  3757  001282  6FAD               	movwf	??_memset& (0+255),b
  3758  001284  51AC               	movf	(memset@n+1)& (0+255),w,b
  3759  001286  21B2               	addwfc	(memset@s+1)& (0+255),w,b
  3760  001288  6FAE               	movwf	(??_memset+1)& (0+255),b
  3761  00128A  0EFC               	movlw	252
  3762  00128C  25AD               	addwf	??_memset& (0+255),w,b
  3763  00128E  6ED9               	movwf	fsr2l,c
  3764  001290  0EFF               	movlw	255
  3765  001292  21AE               	addwfc	(??_memset+1)& (0+255),w,b
  3766  001294  6EDA               	movwf	fsr2h,c
  3767  001296  C1A9  FFDF         	movff	memset@c,indf2
  3768  00129A                     
  3769                           ; BSR set to: 1
  3770  00129A  51AC               	movf	(memset@n+1)& (0+255),w,b
  3771  00129C  E107               	bnz	u4661
  3772  00129E  0E09               	movlw	9
  3773  0012A0  5DAB               	subwf	memset@n& (0+255),w,b
  3774  0012A2  B0D8               	btfsc	status,0,c
  3775  0012A4  EF56  F009         	goto	u4661
  3776  0012A8  EF58  F009         	goto	u4660
  3777  0012AC                     u4661:
  3778  0012AC  EF5A  F009         	goto	l5521
  3779  0012B0                     u4660:
  3780  0012B0  EF88  F009         	goto	l1449
  3781  0012B4                     l5521:
  3782                           
  3783                           ; BSR set to: 1
  3784  0012B4  C1B1  F1AD         	movff	memset@s,??_memset
  3785  0012B8  C1B2  F1AE         	movff	memset@s+1,??_memset+1
  3786  0012BC  1FAD               	comf	??_memset& (0+255),f,b
  3787  0012BE  1FAE               	comf	(??_memset+1)& (0+255),f,b
  3788  0012C0  4BAD               	infsnz	??_memset& (0+255),f,b
  3789  0012C2  2BAE               	incf	(??_memset+1)& (0+255),f,b
  3790  0012C4  0E03               	movlw	3
  3791  0012C6  15AD               	andwf	??_memset& (0+255),w,b
  3792  0012C8  6FAF               	movwf	memset@k& (0+255),b
  3793  0012CA  6BB0               	clrf	(memset@k+1)& (0+255),b
  3794  0012CC  51AF               	movf	memset@k& (0+255),w,b
  3795  0012CE  27B1               	addwf	memset@s& (0+255),f,b
  3796  0012D0  51B0               	movf	(memset@k+1)& (0+255),w,b
  3797  0012D2  23B2               	addwfc	(memset@s+1)& (0+255),f,b
  3798  0012D4  51AF               	movf	memset@k& (0+255),w,b
  3799  0012D6  5FAB               	subwf	memset@n& (0+255),f,b
  3800  0012D8  51B0               	movf	(memset@k+1)& (0+255),w,b
  3801  0012DA  5BAC               	subwfb	(memset@n+1)& (0+255),f,b
  3802  0012DC  0EFC               	movlw	252
  3803  0012DE  17AB               	andwf	memset@n& (0+255),f,b
  3804  0012E0  0EFF               	movlw	255
  3805  0012E2  17AC               	andwf	(memset@n+1)& (0+255),f,b
  3806  0012E4  EF7F  F009         	goto	l5529
  3807  0012E8                     l5523:
  3808                           
  3809                           ; BSR set to: 1
  3810  0012E8  C1B1  FFD9         	movff	memset@s,fsr2l
  3811  0012EC  C1B2  FFDA         	movff	memset@s+1,fsr2h
  3812  0012F0  C1A9  FFDF         	movff	memset@c,indf2
  3813  0012F4                     
  3814                           ; BSR set to: 1
  3815  0012F4  07AB               	decf	memset@n& (0+255),f,b
  3816  0012F6  A0D8               	btfss	status,0,c
  3817  0012F8  07AC               	decf	(memset@n+1)& (0+255),f,b
  3818  0012FA                     
  3819                           ; BSR set to: 1
  3820  0012FA  4BB1               	infsnz	memset@s& (0+255),f,b
  3821  0012FC  2BB2               	incf	(memset@s+1)& (0+255),f,b
  3822  0012FE                     l5529:
  3823                           
  3824                           ; BSR set to: 1
  3825  0012FE  51AB               	movf	memset@n& (0+255),w,b
  3826  001300  11AC               	iorwf	(memset@n+1)& (0+255),w,b
  3827  001302  A4D8               	btfss	status,2,c
  3828  001304  EF86  F009         	goto	u4671
  3829  001308  EF88  F009         	goto	u4670
  3830  00130C                     u4671:
  3831  00130C  EF74  F009         	goto	l5523
  3832  001310                     u4670:
  3833  001310                     l1449:
  3834                           
  3835                           ; BSR set to: 1
  3836  001310  0012               	return		;funcret
  3837  001312                     __end_of_memset:
  3838                           	opt callstack 0
  3839                           
  3840 ;; *************** function _USBDeviceAttach *****************
  3841 ;; Defined at:
  3842 ;;		line 1356 in file "mcc_generated_files/usb/usb_device.c"
  3843 ;; Parameters:    Size  Location     Type
  3844 ;;		None
  3845 ;; Auto vars:     Size  Location     Type
  3846 ;;		None
  3847 ;; Return value:  Size  Location     Type
  3848 ;;                  1    wreg      void 
  3849 ;; Registers used:
  3850 ;;		wreg, status,2
  3851 ;; Tracked objects:
  3852 ;;		On entry : 0/0
  3853 ;;		On exit  : 0/0
  3854 ;;		Unchanged: 0/0
  3855 ;; Data sizes:     COMRAM   BANK0   BANK1   BANK2   BANK3   BANK4   BANK5   BANK6   BANK7
  3856 ;;      Params:         0       0       0       0       0       0       0       0       0
  3857 ;;      Locals:         0       0       0       0       0       0       0       0       0
  3858 ;;      Temps:          0       0       0       0       0       0       0       0       0
  3859 ;;      Totals:         0       0       0       0       0       0       0       0       0
  3860 ;;Total ram usage:        0 bytes
  3861 ;; Hardware stack levels used:    1
  3862 ;; Hardware stack levels required when called:   19
  3863 ;; This function calls:
  3864 ;;		Nothing
  3865 ;; This function is called by:
  3866 ;;		_SYSTEM_Initialize
  3867 ;; This function uses a non-reentrant model
  3868 ;;
  3869                           
  3870                           	psect	text18
  3871  0036B0                     __ptext18:
  3872                           	opt callstack 0
  3873  0036B0                     _USBDeviceAttach:
  3874                           	opt callstack 10
  3875  0036B0                     
  3876                           ;mcc_generated_files/usb/usb_device.c: 1360:     {;mcc_generated_files/usb/usb_device.c:
      +                           1361:         if(1 == 1)
  3877  0036B0  5046               	movf	_USBDeviceState^0,w,c	;volatile
  3878  0036B2  A4D8               	btfss	status,2,c
  3879  0036B4  EF5E  F01B         	goto	u4781
  3880  0036B8  EF60  F01B         	goto	u4780
  3881  0036BC                     u4781:
  3882  0036BC  EF78  F01B         	goto	l241
  3883  0036C0                     u4780:
  3884  0036C0                     
  3885                           ;mcc_generated_files/usb/usb_device.c: 1362:         {;mcc_generated_files/usb/usb_devic
      +                          e.c: 1364:             UCON = 0;
  3886  0036C0  0E00               	movlw	0
  3887  0036C2  6E60               	movwf	96,c	;volatile
  3888                           
  3889                           ;mcc_generated_files/usb/usb_device.c: 1367:             UIE = 0;
  3890  0036C4  0E00               	movlw	0
  3891  0036C6  6E64               	movwf	100,c	;volatile
  3892                           
  3893                           ;mcc_generated_files/usb/usb_device.c: 1371:             { UCFG = 0x10 | 0x00 | 0x04 | 0
      +                          x02; UEIE = 0x9F; UIE = 0x39 | 0x40 | 0x02; };
  3894  0036C8  0E16               	movlw	22
  3895  0036CA  6E62               	movwf	98,c	;volatile
  3896  0036CC  0E9F               	movlw	159
  3897  0036CE  6E66               	movwf	102,c	;volatile
  3898  0036D0  0E7B               	movlw	123
  3899  0036D2  6E64               	movwf	100,c	;volatile
  3900  0036D4                     
  3901                           ;mcc_generated_files/usb/usb_device.c: 1373:             {IPR3bits.USBIP = 1;PIE3bits.US
      +                          BIE = 1;};
  3902  0036D4  84A5               	bsf	165,2,c	;volatile
  3903  0036D6  84A3               	bsf	163,2,c	;volatile
  3904                           
  3905                           ;mcc_generated_files/usb/usb_device.c: 1376:             while(!UCONbits.USBEN){UCONbits
      +                          .USBEN = 1;}
  3906  0036D8  EF6F  F01B         	goto	l238
  3907  0036DC                     l239:
  3908  0036DC  8660               	bsf	96,3,c	;volatile
  3909  0036DE                     l238:
  3910  0036DE  A660               	btfss	96,3,c	;volatile
  3911  0036E0  EF74  F01B         	goto	u4791
  3912  0036E4  EF76  F01B         	goto	u4790
  3913  0036E8                     u4791:
  3914  0036E8  EF6E  F01B         	goto	l239
  3915  0036EC                     u4790:
  3916  0036EC                     
  3917                           ;mcc_generated_files/usb/usb_device.c: 1379:             USBDeviceState = ATTACHED_STATE
      +                          ;
  3918  0036EC  0E01               	movlw	1
  3919  0036EE  6E46               	movwf	_USBDeviceState^0,c	;volatile
  3920  0036F0                     l241:
  3921  0036F0  0012               	return		;funcret
  3922  0036F2                     __end_of_USBDeviceAttach:
  3923                           	opt callstack 0
  3924                           
  3925 ;; *************** function _PIN_MANAGER_Initialize *****************
  3926 ;; Defined at:
  3927 ;;		line 55 in file "mcc_generated_files/pin_manager.c"
  3928 ;; Parameters:    Size  Location     Type
  3929 ;;		None
  3930 ;; Auto vars:     Size  Location     Type
  3931 ;;		None
  3932 ;; Return value:  Size  Location     Type
  3933 ;;                  1    wreg      void 
  3934 ;; Registers used:
  3935 ;;		wreg, status,2
  3936 ;; Tracked objects:
  3937 ;;		On entry : 0/0
  3938 ;;		On exit  : 0/0
  3939 ;;		Unchanged: 0/0
  3940 ;; Data sizes:     COMRAM   BANK0   BANK1   BANK2   BANK3   BANK4   BANK5   BANK6   BANK7
  3941 ;;      Params:         0       0       0       0       0       0       0       0       0
  3942 ;;      Locals:         0       0       0       0       0       0       0       0       0
  3943 ;;      Temps:          0       0       0       0       0       0       0       0       0
  3944 ;;      Totals:         0       0       0       0       0       0       0       0       0
  3945 ;;Total ram usage:        0 bytes
  3946 ;; Hardware stack levels used:    1
  3947 ;; Hardware stack levels required when called:   19
  3948 ;; This function calls:
  3949 ;;		Nothing
  3950 ;; This function is called by:
  3951 ;;		_SYSTEM_Initialize
  3952 ;; This function uses a non-reentrant model
  3953 ;;
  3954                           
  3955                           	psect	text19
  3956  003734                     __ptext19:
  3957                           	opt callstack 0
  3958  003734                     _PIN_MANAGER_Initialize:
  3959                           	opt callstack 10
  3960  003734                     
  3961                           ;mcc_generated_files/pin_manager.c: 60:     LATE = 0x00;
  3962  003734  0E00               	movlw	0
  3963  003736  6E8D               	movwf	141,c	;volatile
  3964                           
  3965                           ;mcc_generated_files/pin_manager.c: 61:     LATD = 0x00;
  3966  003738  0E00               	movlw	0
  3967  00373A  6E8C               	movwf	140,c	;volatile
  3968                           
  3969                           ;mcc_generated_files/pin_manager.c: 62:     LATA = 0x00;
  3970  00373C  0E00               	movlw	0
  3971  00373E  6E89               	movwf	137,c	;volatile
  3972                           
  3973                           ;mcc_generated_files/pin_manager.c: 63:     LATB = 0x00;
  3974  003740  0E00               	movlw	0
  3975  003742  6E8A               	movwf	138,c	;volatile
  3976                           
  3977                           ;mcc_generated_files/pin_manager.c: 64:     LATC = 0x00;
  3978  003744  0E00               	movlw	0
  3979  003746  6E8B               	movwf	139,c	;volatile
  3980                           
  3981                           ;mcc_generated_files/pin_manager.c: 69:     TRISE = 0x07;
  3982  003748  0E07               	movlw	7
  3983  00374A  6E96               	movwf	150,c	;volatile
  3984  00374C                     
  3985                           ;mcc_generated_files/pin_manager.c: 70:     TRISA = 0xFF;
  3986  00374C  6892               	setf	146,c	;volatile
  3987  00374E                     
  3988                           ;mcc_generated_files/pin_manager.c: 71:     TRISB = 0xFF;
  3989  00374E  6893               	setf	147,c	;volatile
  3990                           
  3991                           ;mcc_generated_files/pin_manager.c: 72:     TRISC = 0xC0;
  3992  003750  0EC0               	movlw	192
  3993  003752  6E94               	movwf	148,c	;volatile
  3994  003754                     
  3995                           ;mcc_generated_files/pin_manager.c: 73:     TRISD = 0xFF;
  3996  003754  6895               	setf	149,c	;volatile
  3997  003756                     
  3998                           ;mcc_generated_files/pin_manager.c: 78:     ANSELD = 0xFF;
  3999  003756  010F               	movlb	15	; () banked
  4000  003758  695E               	setf	94,b	;volatile
  4001                           
  4002                           ;mcc_generated_files/pin_manager.c: 79:     ANSELC = 0xC4;
  4003  00375A  0EC4               	movlw	196
  4004  00375C  6F5D               	movwf	93,b	;volatile
  4005                           
  4006                           ;mcc_generated_files/pin_manager.c: 80:     ANSELB = 0x3F;
  4007  00375E  0E3F               	movlw	63
  4008  003760  6F5C               	movwf	92,b	;volatile
  4009                           
  4010                           ;mcc_generated_files/pin_manager.c: 81:     ANSELE = 0x07;
  4011  003762  0E07               	movlw	7
  4012  003764  6F5F               	movwf	95,b	;volatile
  4013                           
  4014                           ;mcc_generated_files/pin_manager.c: 82:     ANSELA = 0x2F;
  4015  003766  0E2F               	movlw	47
  4016  003768  6F5B               	movwf	91,b	;volatile
  4017                           
  4018                           ;mcc_generated_files/pin_manager.c: 87:     WPUB = 0x00;
  4019  00376A  0E00               	movlw	0
  4020  00376C  6E85               	movwf	133,c	;volatile
  4021  00376E                     
  4022                           ; BSR set to: 15
  4023                           ;mcc_generated_files/pin_manager.c: 88:     INTCON2bits.nRBPU = 1;
  4024  00376E  8EF1               	bsf	241,7,c	;volatile
  4025  003770                     
  4026                           ; BSR set to: 15
  4027  003770  0012               	return		;funcret
  4028  003772                     __end_of_PIN_MANAGER_Initialize:
  4029                           	opt callstack 0
  4030                           
  4031 ;; *************** function _OSCILLATOR_Initialize *****************
  4032 ;; Defined at:
  4033 ;;		line 60 in file "mcc_generated_files/mcc.c"
  4034 ;; Parameters:    Size  Location     Type
  4035 ;;		None
  4036 ;; Auto vars:     Size  Location     Type
  4037 ;;		None
  4038 ;; Return value:  Size  Location     Type
  4039 ;;                  1    wreg      void 
  4040 ;; Registers used:
  4041 ;;		wreg, status,2
  4042 ;; Tracked objects:
  4043 ;;		On entry : 0/0
  4044 ;;		On exit  : 0/0
  4045 ;;		Unchanged: 0/0
  4046 ;; Data sizes:     COMRAM   BANK0   BANK1   BANK2   BANK3   BANK4   BANK5   BANK6   BANK7
  4047 ;;      Params:         0       0       0       0       0       0       0       0       0
  4048 ;;      Locals:         0       0       0       0       0       0       0       0       0
  4049 ;;      Temps:          0       0       0       0       0       0       0       0       0
  4050 ;;      Totals:         0       0       0       0       0       0       0       0       0
  4051 ;;Total ram usage:        0 bytes
  4052 ;; Hardware stack levels used:    1
  4053 ;; Hardware stack levels required when called:   19
  4054 ;; This function calls:
  4055 ;;		Nothing
  4056 ;; This function is called by:
  4057 ;;		_SYSTEM_Initialize
  4058 ;; This function uses a non-reentrant model
  4059 ;;
  4060                           
  4061                           	psect	text20
  4062  00389E                     __ptext20:
  4063                           	opt callstack 0
  4064  00389E                     _OSCILLATOR_Initialize:
  4065                           	opt callstack 10
  4066  00389E                     
  4067                           ;mcc_generated_files/mcc.c: 63:     OSCCON = 0x70;
  4068  00389E  0E70               	movlw	112
  4069  0038A0  6ED3               	movwf	211,c	;volatile
  4070                           
  4071                           ;mcc_generated_files/mcc.c: 65:     OSCCON2 = 0x10;
  4072  0038A2  0E10               	movlw	16
  4073  0038A4  6ED2               	movwf	210,c	;volatile
  4074                           
  4075                           ;mcc_generated_files/mcc.c: 67:     OSCTUNE = 0x80;
  4076  0038A6  0E80               	movlw	128
  4077  0038A8  6E9B               	movwf	155,c	;volatile
  4078                           
  4079                           ;mcc_generated_files/mcc.c: 69:     ACTCON = 0x10;
  4080  0038AA  0E10               	movlw	16
  4081  0038AC  6EB5               	movwf	181,c	;volatile
  4082  0038AE                     l694:
  4083                           
  4084                           ;mcc_generated_files/mcc.c: 71:     while(PLLRDY == 0)
  4085  0038AE  AED2               	btfss	4050,7,c	;volatile
  4086  0038B0  EF5C  F01C         	goto	u4991
  4087  0038B4  EF5E  F01C         	goto	u4990
  4088  0038B8                     u4991:
  4089  0038B8  EF57  F01C         	goto	l694
  4090  0038BC                     u4990:
  4091  0038BC  0012               	return		;funcret
  4092  0038BE                     __end_of_OSCILLATOR_Initialize:
  4093                           	opt callstack 0
  4094                           
  4095 ;; *************** function _INTERRUPT_Initialize *****************
  4096 ;; Defined at:
  4097 ;;		line 56 in file "mcc_generated_files/interrupt_manager.c"
  4098 ;; Parameters:    Size  Location     Type
  4099 ;;		None
  4100 ;; Auto vars:     Size  Location     Type
  4101 ;;		None
  4102 ;; Return value:  Size  Location     Type
  4103 ;;                  1    wreg      void 
  4104 ;; Registers used:
  4105 ;;		None
  4106 ;; Tracked objects:
  4107 ;;		On entry : 0/0
  4108 ;;		On exit  : 0/0
  4109 ;;		Unchanged: 0/0
  4110 ;; Data sizes:     COMRAM   BANK0   BANK1   BANK2   BANK3   BANK4   BANK5   BANK6   BANK7
  4111 ;;      Params:         0       0       0       0       0       0       0       0       0
  4112 ;;      Locals:         0       0       0       0       0       0       0       0       0
  4113 ;;      Temps:          0       0       0       0       0       0       0       0       0
  4114 ;;      Totals:         0       0       0       0       0       0       0       0       0
  4115 ;;Total ram usage:        0 bytes
  4116 ;; Hardware stack levels used:    1
  4117 ;; Hardware stack levels required when called:   19
  4118 ;; This function calls:
  4119 ;;		Nothing
  4120 ;; This function is called by:
  4121 ;;		_SYSTEM_Initialize
  4122 ;; This function uses a non-reentrant model
  4123 ;;
  4124                           
  4125                           	psect	text21
  4126  0038D4                     __ptext21:
  4127                           	opt callstack 0
  4128  0038D4                     _INTERRUPT_Initialize:
  4129                           	opt callstack 10
  4130  0038D4                     
  4131                           ;mcc_generated_files/interrupt_manager.c: 60:     USBIE=1;
  4132  0038D4  84A3               	bsf	4003,2,c	;volatile
  4133                           
  4134                           ;mcc_generated_files/interrupt_manager.c: 61:     USBIP=1;
  4135  0038D6  84A5               	bsf	4005,2,c	;volatile
  4136                           
  4137                           ;mcc_generated_files/interrupt_manager.c: 62:     RCONbits.IPEN = 1;
  4138  0038D8  8ED0               	bsf	208,7,c	;volatile
  4139                           
  4140                           ;mcc_generated_files/interrupt_manager.c: 67:     IPR3bits.USBIP = 1;
  4141  0038DA  84A5               	bsf	165,2,c	;volatile
  4142                           
  4143                           ;mcc_generated_files/interrupt_manager.c: 70:     PEIE=1;
  4144  0038DC  8CF2               	bsf	4082,6,c	;volatile
  4145                           
  4146                           ;mcc_generated_files/interrupt_manager.c: 71:     IPEN=1;
  4147  0038DE  8ED0               	bsf	4048,7,c	;volatile
  4148                           
  4149                           ;mcc_generated_files/interrupt_manager.c: 72:     GIE=1;
  4150  0038E0  8EF2               	bsf	4082,7,c	;volatile
  4151  0038E2  0012               	return		;funcret
  4152  0038E4                     __end_of_INTERRUPT_Initialize:
  4153                           	opt callstack 0
  4154                           
  4155 ;; *************** function _ISR *****************
  4156 ;; Defined at:
  4157 ;;		line 119 in file "main.c"
  4158 ;; Parameters:    Size  Location     Type
  4159 ;;		None
  4160 ;; Auto vars:     Size  Location     Type
  4161 ;;		None
  4162 ;; Return value:  Size  Location     Type
  4163 ;;                  1    wreg      void 
  4164 ;; Registers used:
  4165 ;;		wreg, fsr1l, fsr1h, fsr2l, fsr2h, status,2, status,0, tblptrl, tblptrh, tblptru, prodl, prodh, cstack
  4166 ;; Tracked objects:
  4167 ;;		On entry : 0/0
  4168 ;;		On exit  : 0/0
  4169 ;;		Unchanged: 0/0
  4170 ;; Data sizes:     COMRAM   BANK0   BANK1   BANK2   BANK3   BANK4   BANK5   BANK6   BANK7
  4171 ;;      Params:         0       0       0       0       0       0       0       0       0
  4172 ;;      Locals:         0       0       0       0       0       0       0       0       0
  4173 ;;      Temps:          0      13       0       0       0       0       0       0       0
  4174 ;;      Totals:         0      13       0       0       0       0       0       0       0
  4175 ;;Total ram usage:       13 bytes
  4176 ;; Hardware stack levels used:    1
  4177 ;; Hardware stack levels required when called:   18
  4178 ;; This function calls:
  4179 ;;		i1_CDCTxService
  4180 ;;		i1_putrsUSBUSART
  4181 ;;		i1_sprintf
  4182 ;; This function is called by:
  4183 ;;		Interrupt level 1
  4184 ;; This function uses a non-reentrant model
  4185 ;;
  4186                           
  4187                           	psect	intcodelo
  4188  000018                     __pintcodelo:
  4189                           	opt callstack 0
  4190  000018                     _ISR:
  4191                           	opt callstack 3
  4192                           
  4193                           ;incstack = 0
  4194  000018  8052               	bsf	int$flags,0,c	;set compiler interrupt flag (level 1)
  4195  00001A  CFD8 F0A3          	movff	status,??_ISR
  4196  00001E  CFE8 F0A4          	movff	wreg,??_ISR+1
  4197  000022  CFE0 F0A5          	movff	bsr,??_ISR+2
  4198  000026  CFE1 F0A6          	movff	fsr1l,??_ISR+3
  4199  00002A  CFE2 F0A7          	movff	fsr1h,??_ISR+4
  4200  00002E  CFD9 F0A8          	movff	fsr2l,??_ISR+5
  4201  000032  CFDA F0A9          	movff	fsr2h,??_ISR+6
  4202  000036  CFF3 F0AA          	movff	prodl,??_ISR+7
  4203  00003A  CFF4 F0AB          	movff	prodh,??_ISR+8
  4204  00003E  CFF6 F0AC          	movff	tblptrl,??_ISR+9
  4205  000042  CFF7 F0AD          	movff	tblptrh,??_ISR+10
  4206  000046  CFF8 F0AE          	movff	tblptru,??_ISR+11
  4207  00004A  CFF5 F0AF          	movff	tablat,??_ISR+12
  4208  00004E                     
  4209                           ;main.c: 120:     if(TMR0IF==1){
  4210  00004E  A4F2               	btfss	4082,2,c	;volatile
  4211  000050  EF2C  F000         	goto	i1u523_21
  4212  000054  EF2E  F000         	goto	i1u523_20
  4213  000058                     i1u523_21:
  4214  000058  EF72  F000         	goto	i1l503
  4215  00005C                     i1u523_20:
  4216  00005C                     
  4217                           ;main.c: 122:         if(USBDeviceState < CONFIGURED_STATE || (UCONbits.SUSPND == 1))
  4218  00005C  0E1F               	movlw	31
  4219  00005E  6446               	cpfsgt	_USBDeviceState^0,c	;volatile
  4220  000060  EF34  F000         	goto	i1u524_21
  4221  000064  EF36  F000         	goto	i1u524_20
  4222  000068                     i1u524_21:
  4223  000068  EF72  F000         	goto	i1l503
  4224  00006C                     i1u524_20:
  4225  00006C  A260               	btfss	96,1,c	;volatile
  4226  00006E  EF3B  F000         	goto	i1u525_21
  4227  000072  EF3D  F000         	goto	i1u525_20
  4228  000076                     i1u525_21:
  4229  000076  EF3F  F000         	goto	i1l6037
  4230  00007A                     i1u525_20:
  4231  00007A  EF72  F000         	goto	i1l503
  4232  00007E                     i1l6037:
  4233                           
  4234                           ;main.c: 124:         if((cdc_trf_state == 0))
  4235  00007E  0101               	movlb	1	; () banked
  4236  000080  5106               	movf	_cdc_trf_state& (0+255),w,b
  4237  000082  A4D8               	btfss	status,2,c
  4238  000084  EF46  F000         	goto	i1u526_21
  4239  000088  EF48  F000         	goto	i1u526_20
  4240  00008C                     i1u526_21:
  4241  00008C  EF62  F000         	goto	i1l6043
  4242  000090                     i1u526_20:
  4243  000090                     
  4244                           ; BSR set to: 1
  4245                           ;main.c: 125:         {;main.c: 126:             sprintf(buffer,"t%c h%c \n",22,48);
  4246  000090  0E07               	movlw	low _buffer
  4247  000092  0100               	movlb	0	; () banked
  4248  000094  6F91               	movwf	i1sprintf@s& (0+255),b
  4249  000096  0E01               	movlw	high _buffer
  4250  000098  6F92               	movwf	(i1sprintf@s+1)& (0+255),b
  4251  00009A  0EAE               	movlw	low STR_1
  4252  00009C  6F93               	movwf	i1sprintf@fmt& (0+255),b
  4253  00009E  0E08               	movlw	high STR_1
  4254  0000A0  6F94               	movwf	(i1sprintf@fmt+1)& (0+255),b
  4255  0000A2  0E00               	movlw	0
  4256  0000A4  6F96               	movwf	(?i1_sprintf+5)& (0+255),b
  4257  0000A6  0E16               	movlw	22
  4258  0000A8  6F95               	movwf	(?i1_sprintf+4)& (0+255),b
  4259  0000AA  0E00               	movlw	0
  4260  0000AC  6F98               	movwf	(?i1_sprintf+7)& (0+255),b
  4261  0000AE  0E30               	movlw	48
  4262  0000B0  6F97               	movwf	(?i1_sprintf+6)& (0+255),b
  4263  0000B2  EC6C  F01A         	call	i1_sprintf	;wreg free
  4264  0000B6                     
  4265                           ;main.c: 127:             putrsUSBUSART(buffer);
  4266  0000B6  0E07               	movlw	low _buffer
  4267  0000B8  0100               	movlb	0	; () banked
  4268  0000BA  6F60               	movwf	i1putrsUSBUSART@data& (0+255),b
  4269  0000BC  0E01               	movlw	high _buffer
  4270  0000BE  6F61               	movwf	(i1putrsUSBUSART@data+1)& (0+255),b
  4271  0000C0  ECD0  F018         	call	i1_putrsUSBUSART	;wreg free
  4272  0000C4                     i1l6043:
  4273                           
  4274                           ;main.c: 129:         CDCTxService();
  4275  0000C4  ECFA  F007         	call	i1_CDCTxService	;wreg free
  4276  0000C8                     
  4277                           ;main.c: 132:         LATC0=LATC0 ^ 1;
  4278  0000C8  A08B               	btfss	3979,0,c	;volatile
  4279  0000CA  EF69  F000         	goto	i1u527_21
  4280  0000CE  EF6C  F000         	goto	i1u527_20
  4281  0000D2                     i1u527_21:
  4282  0000D2  808B               	bsf	3979,0,c	;volatile
  4283  0000D4  EF6D  F000         	goto	i1u528_25
  4284  0000D8                     i1u527_20:
  4285  0000D8  908B               	bcf	3979,0,c	;volatile
  4286  0000DA                     i1u528_25:
  4287  0000DA                     
  4288                           ;main.c: 133:         TMR0L=18661 & 255;
  4289  0000DA  0EE5               	movlw	229
  4290  0000DC  6ED6               	movwf	214,c	;volatile
  4291  0000DE                     
  4292                           ;main.c: 138:         TMR0H=18661 >> 8;
  4293  0000DE  0E48               	movlw	72
  4294  0000E0  6ED7               	movwf	215,c	;volatile
  4295  0000E2                     
  4296                           ;main.c: 140:         TMR0IF=0;
  4297  0000E2  94F2               	bcf	4082,2,c	;volatile
  4298  0000E4                     i1l503:
  4299  0000E4  C0AF  FFF5         	movff	??_ISR+12,tablat
  4300  0000E8  C0AE  FFF8         	movff	??_ISR+11,tblptru
  4301  0000EC  C0AD  FFF7         	movff	??_ISR+10,tblptrh
  4302  0000F0  C0AC  FFF6         	movff	??_ISR+9,tblptrl
  4303  0000F4  C0AB  FFF4         	movff	??_ISR+8,prodh
  4304  0000F8  C0AA  FFF3         	movff	??_ISR+7,prodl
  4305  0000FC  C0A9  FFDA         	movff	??_ISR+6,fsr2h
  4306  000100  C0A8  FFD9         	movff	??_ISR+5,fsr2l
  4307  000104  C0A7  FFE2         	movff	??_ISR+4,fsr1h
  4308  000108  C0A6  FFE1         	movff	??_ISR+3,fsr1l
  4309  00010C  C0A5  FFE0         	movff	??_ISR+2,bsr
  4310  000110  C0A4  FFE8         	movff	??_ISR+1,wreg
  4311  000114  C0A3  FFD8         	movff	??_ISR,status
  4312  000118  9052               	bcf	int$flags,0,c	;clear compiler interrupt flag (level 1)
  4313  00011A  0010               	retfie	
  4314  00011C                     __end_of_ISR:
  4315                           	opt callstack 0
  4316                           
  4317 ;; *************** function i1_sprintf *****************
  4318 ;; Defined at:
  4319 ;;		line 9 in file "C:\Program Files (x86)\Microchip\xc8\v2.10\pic\sources\c99\common\nf_sprintf.c"
  4320 ;; Parameters:    Size  Location     Type
  4321 ;;  s               2   49[BANK0 ] PTR unsigned char 
  4322 ;;		 -> buffer(64), 
  4323 ;;  fmt             2   51[BANK0 ] PTR const unsigned char 
  4324 ;;		 -> STR_2(10), STR_1(10), 
  4325 ;; Auto vars:     Size  Location     Type
  4326 ;;  sprintf         6   61[BANK0 ] struct _IO_FILE
  4327 ;;  sprintf         2   59[BANK0 ] PTR void [1]
  4328 ;;		 -> ?i1_sprintf(2), ?_sprintf(2), 
  4329 ;;  sprintf         2   57[BANK0 ] int 
  4330 ;; Return value:  Size  Location     Type
  4331 ;;                  2   49[BANK0 ] int 
  4332 ;; Registers used:
  4333 ;;		wreg, fsr1l, fsr1h, fsr2l, fsr2h, status,2, status,0, tblptrl, tblptrh, tblptru, cstack
  4334 ;; Tracked objects:
  4335 ;;		On entry : 0/0
  4336 ;;		On exit  : 0/0
  4337 ;;		Unchanged: 0/0
  4338 ;; Data sizes:     COMRAM   BANK0   BANK1   BANK2   BANK3   BANK4   BANK5   BANK6   BANK7
  4339 ;;      Params:         0       8       0       0       0       0       0       0       0
  4340 ;;      Locals:         0      10       0       0       0       0       0       0       0
  4341 ;;      Temps:          0       0       0       0       0       0       0       0       0
  4342 ;;      Totals:         0      18       0       0       0       0       0       0       0
  4343 ;;Total ram usage:       18 bytes
  4344 ;; Hardware stack levels used:    1
  4345 ;; Hardware stack levels required when called:   17
  4346 ;; This function calls:
  4347 ;;		i1_vfprintf
  4348 ;; This function is called by:
  4349 ;;		_ISR
  4350 ;; This function uses a non-reentrant model
  4351 ;;
  4352                           
  4353                           	psect	text23
  4354  0034D8                     __ptext23:
  4355                           	opt callstack 0
  4356  0034D8                     i1_sprintf:
  4357                           	opt callstack 3
  4358  0034D8  0E95               	movlw	low (?i1_sprintf+4)
  4359  0034DA  0100               	movlb	0	; () banked
  4360  0034DC  6F9B               	movwf	i1sprintf@ap& (0+255),b
  4361  0034DE  0E00               	movlw	high (?i1_sprintf+4)
  4362  0034E0  6F9C               	movwf	(i1sprintf@ap+1)& (0+255),b
  4363  0034E2  C091  F09D         	movff	i1sprintf@s,i1sprintf@f
  4364  0034E6  C092  F09E         	movff	i1sprintf@s+1,i1sprintf@f+1
  4365  0034EA                     
  4366                           ; BSR set to: 0
  4367  0034EA  0E00               	movlw	0
  4368  0034EC  6FA0               	movwf	(i1sprintf@f+3)& (0+255),b
  4369  0034EE  0E00               	movlw	0
  4370  0034F0  6F9F               	movwf	(i1sprintf@f+2)& (0+255),b
  4371  0034F2                     
  4372                           ; BSR set to: 0
  4373  0034F2  0E00               	movlw	0
  4374  0034F4  6FA2               	movwf	(i1sprintf@f+5)& (0+255),b
  4375  0034F6  0E00               	movlw	0
  4376  0034F8  6FA1               	movwf	(i1sprintf@f+4)& (0+255),b
  4377  0034FA                     
  4378                           ; BSR set to: 0
  4379  0034FA  0E9D               	movlw	low i1sprintf@f
  4380  0034FC  6F89               	movwf	i1vfprintf@fp& (0+255),b
  4381  0034FE  0E00               	movlw	high i1sprintf@f
  4382  003500  6F8A               	movwf	(i1vfprintf@fp+1)& (0+255),b
  4383  003502  C093  F08B         	movff	i1sprintf@fmt,i1vfprintf@fmt
  4384  003506  C094  F08C         	movff	i1sprintf@fmt+1,i1vfprintf@fmt+1
  4385  00350A  0E9B               	movlw	low i1sprintf@ap
  4386  00350C  6F8D               	movwf	i1vfprintf@ap& (0+255),b
  4387  00350E  0E00               	movlw	high i1sprintf@ap
  4388  003510  6F8E               	movwf	(i1vfprintf@ap+1)& (0+255),b
  4389  003512  EC44  F019         	call	i1_vfprintf	;wreg free
  4390  003516  C089  F099         	movff	?i1_vfprintf,i1sprintf@ret
  4391  00351A  C08A  F09A         	movff	?i1_vfprintf+1,i1sprintf@ret+1
  4392  00351E  0100               	movlb	0	; () banked
  4393  003520  519F               	movf	(i1sprintf@f+2)& (0+255),w,b
  4394  003522  2591               	addwf	i1sprintf@s& (0+255),w,b
  4395  003524  6ED9               	movwf	fsr2l,c
  4396  003526  51A0               	movf	(i1sprintf@f+3)& (0+255),w,b
  4397  003528  2192               	addwfc	(i1sprintf@s+1)& (0+255),w,b
  4398  00352A  6EDA               	movwf	fsr2h,c
  4399  00352C  0E00               	movlw	0
  4400  00352E  6EDF               	movwf	indf2,c
  4401  003530                     
  4402                           ; BSR set to: 0
  4403  003530  0012               	return		;funcret
  4404  003532                     __end_ofi1_sprintf:
  4405                           	opt callstack 0
  4406                           
  4407 ;; *************** function i1_vfprintf *****************
  4408 ;; Defined at:
  4409 ;;		line 1368 in file "C:\Program Files (x86)\Microchip\xc8\v2.10\pic\sources\c99\common\doprnt.c"
  4410 ;; Parameters:    Size  Location     Type
  4411 ;;  fp              2   41[BANK0 ] PTR struct _IO_FILE
  4412 ;;		 -> i1sprintf@f(6), sprintf@f(6), 
  4413 ;;  fmt             2   43[BANK0 ] PTR const unsigned char 
  4414 ;;		 -> STR_2(10), STR_1(10), 
  4415 ;;  ap              2   45[BANK0 ] PTR PTR void 
  4416 ;;		 -> i1sprintf@ap(2), sprintf@ap(2), 
  4417 ;; Auto vars:     Size  Location     Type
  4418 ;;  vfprintf        2   47[BANK0 ] PTR unsigned char 
  4419 ;;		 -> STR_2(10), STR_1(10), 
  4420 ;; Return value:  Size  Location     Type
  4421 ;;                  2   41[BANK0 ] int 
  4422 ;; Registers used:
  4423 ;;		wreg, fsr1l, fsr1h, fsr2l, fsr2h, status,2, status,0, tblptrl, tblptrh, tblptru, cstack
  4424 ;; Tracked objects:
  4425 ;;		On entry : 0/0
  4426 ;;		On exit  : 0/0
  4427 ;;		Unchanged: 0/0
  4428 ;; Data sizes:     COMRAM   BANK0   BANK1   BANK2   BANK3   BANK4   BANK5   BANK6   BANK7
  4429 ;;      Params:         0       6       0       0       0       0       0       0       0
  4430 ;;      Locals:         0       2       0       0       0       0       0       0       0
  4431 ;;      Temps:          0       0       0       0       0       0       0       0       0
  4432 ;;      Totals:         0       8       0       0       0       0       0       0       0
  4433 ;;Total ram usage:        8 bytes
  4434 ;; Hardware stack levels used:    1
  4435 ;; Hardware stack levels required when called:   16
  4436 ;; This function calls:
  4437 ;;		i1_vfpfcnvrt
  4438 ;; This function is called by:
  4439 ;;		i1_sprintf
  4440 ;; This function uses a non-reentrant model
  4441 ;;
  4442                           
  4443                           	psect	text24
  4444  003288                     __ptext24:
  4445                           	opt callstack 0
  4446  003288                     i1_vfprintf:
  4447                           	opt callstack 3
  4448  003288                     
  4449                           ;C:\Program Files (x86)\Microchip\xc8\v2.10\pic\sources\c99\common\doprnt.c: 1368: int v
      +                          fprintf(FILE *fp, const char *fmt, va_list ap);C:\Program Files (x86)\Microchip\xc8\v2.1
      +                          0\pic\sources\c99\common\doprnt.c: 1369: {;C:\Program Files (x86)\Microchip\xc8\v2.10\pi
      +                          c\sources\c99\common\doprnt.c: 1371:     char *cfmt;;C:\Program Files (x86)\Microchip\xc
      +                          8\v2.10\pic\sources\c99\common\doprnt.c: 1373:     cfmt = (char *)fmt;
  4450  003288  C08B  F08F         	movff	i1vfprintf@fmt,i1vfprintf@cfmt
  4451  00328C  C08C  F090         	movff	i1vfprintf@fmt+1,i1vfprintf@cfmt+1
  4452  003290                     
  4453                           ;C:\Program Files (x86)\Microchip\xc8\v2.10\pic\sources\c99\common\doprnt.c: 1374:     n
      +                          out = 0;
  4454  003290  0E00               	movlw	0
  4455  003292  0101               	movlb	1	; () banked
  4456  003294  6F01               	movwf	(_nout+1)& (0+255),b
  4457  003296  0E00               	movlw	0
  4458  003298  6F00               	movwf	_nout& (0+255),b
  4459                           
  4460                           ;C:\Program Files (x86)\Microchip\xc8\v2.10\pic\sources\c99\common\doprnt.c: 1375:     w
      +                          hile (*cfmt) {
  4461  00329A  EF66  F019         	goto	i1l5877
  4462  00329E                     i1l5875:
  4463                           
  4464                           ; BSR set to: 1
  4465                           ;C:\Program Files (x86)\Microchip\xc8\v2.10\pic\sources\c99\common\doprnt.c: 1376:      
      +                             nout += vfpfcnvrt(fp, &cfmt, ap);
  4466  00329E  C089  F080         	movff	i1vfprintf@fp,i1vfpfcnvrt@fp
  4467  0032A2  C08A  F081         	movff	i1vfprintf@fp+1,i1vfpfcnvrt@fp+1
  4468  0032A6  0E8F               	movlw	low i1vfprintf@cfmt
  4469  0032A8  0100               	movlb	0	; () banked
  4470  0032AA  6F82               	movwf	i1vfpfcnvrt@fmt& (0+255),b
  4471  0032AC  0E00               	movlw	high i1vfprintf@cfmt
  4472  0032AE  6F83               	movwf	(i1vfpfcnvrt@fmt+1)& (0+255),b
  4473  0032B0  C08D  F084         	movff	i1vfprintf@ap,i1vfpfcnvrt@ap
  4474  0032B4  C08E  F085         	movff	i1vfprintf@ap+1,i1vfpfcnvrt@ap+1
  4475  0032B8  ECFE  F00A         	call	i1_vfpfcnvrt	;wreg free
  4476  0032BC  0100               	movlb	0	; () banked
  4477  0032BE  5180               	movf	?i1_vfpfcnvrt& (0+255),w,b
  4478  0032C0  0101               	movlb	1	; () banked
  4479  0032C2  2700               	addwf	_nout& (0+255),f,b
  4480  0032C4  0100               	movlb	0	; () banked
  4481  0032C6  5181               	movf	(?i1_vfpfcnvrt+1)& (0+255),w,b
  4482  0032C8  0101               	movlb	1	; () banked
  4483  0032CA  2301               	addwfc	(_nout+1)& (0+255),f,b
  4484  0032CC                     i1l5877:
  4485                           
  4486                           ; BSR set to: 1
  4487                           ;C:\Program Files (x86)\Microchip\xc8\v2.10\pic\sources\c99\common\doprnt.c: 1375:     w
      +                          hile (*cfmt) {
  4488  0032CC  C08F  FFF6         	movff	i1vfprintf@cfmt,tblptrl
  4489  0032D0  C090  FFF7         	movff	i1vfprintf@cfmt+1,tblptrh
  4490  0032D4                     	if	0	;tblptru may be non-zero
  4491  0032D4                     	endif
  4492  0032D4                     	if	0	;tblptru may be non-zero
  4493  0032D4                     	endif
  4494  0032D4  0008               	tblrd		*
  4495  0032D6  50F5               	movf	tablat,w,c
  4496  0032D8  0900               	iorlw	0
  4497  0032DA  A4D8               	btfss	status,2,c
  4498  0032DC  EF72  F019         	goto	i1u503_21
  4499  0032E0  EF74  F019         	goto	i1u503_20
  4500  0032E4                     i1u503_21:
  4501  0032E4  EF4F  F019         	goto	i1l5875
  4502  0032E8                     i1u503_20:
  4503  0032E8                     
  4504                           ; BSR set to: 1
  4505                           ;C:\Program Files (x86)\Microchip\xc8\v2.10\pic\sources\c99\common\doprnt.c: 1378:     r
      +                          eturn nout;
  4506  0032E8  C100  F089         	movff	_nout,?i1_vfprintf
  4507  0032EC  C101  F08A         	movff	_nout+1,?i1_vfprintf+1
  4508  0032F0                     
  4509                           ; BSR set to: 1
  4510  0032F0  0012               	return		;funcret
  4511  0032F2                     __end_ofi1_vfprintf:
  4512                           	opt callstack 0
  4513                           
  4514 ;; *************** function i1_vfpfcnvrt *****************
  4515 ;; Defined at:
  4516 ;;		line 670 in file "C:\Program Files (x86)\Microchip\xc8\v2.10\pic\sources\c99\common\doprnt.c"
  4517 ;; Parameters:    Size  Location     Type
  4518 ;;  fp              2   32[BANK0 ] PTR struct _IO_FILE
  4519 ;;		 -> i1sprintf@f(6), sprintf@f(6), 
  4520 ;;  fmt             2   34[BANK0 ] PTR PTR unsigned char 
  4521 ;;		 -> i1vfprintf@cfmt(2), vfprintf@cfmt(2), 
  4522 ;;  ap              2   36[BANK0 ] PTR PTR void 
  4523 ;;		 -> i1sprintf@ap(2), sprintf@ap(2), 
  4524 ;; Auto vars:     Size  Location     Type
  4525 ;;  vfpfcnvrt       8    0        unsigned long long 
  4526 ;;  vfpfcnvrt       8    0        long long 
  4527 ;;  vfpfcnvrt       4    0        long long 
  4528 ;;  vfpfcnvrt       3    0        PTR void 
  4529 ;;  vfpfcnvrt       3    0        unsigned char [3]
  4530 ;;  vfpfcnvrt       3    0        PTR unsigned char 
  4531 ;;  vfpfcnvrt       2    0        int 
  4532 ;;  vfpfcnvrt       2    0        int 
  4533 ;;  vfpfcnvrt       1   40[BANK0 ] unsigned char 
  4534 ;; Return value:  Size  Location     Type
  4535 ;;                  2   32[BANK0 ] int 
  4536 ;; Registers used:
  4537 ;;		wreg, fsr1l, fsr1h, fsr2l, fsr2h, status,2, status,0, tblptrl, tblptrh, tblptru, cstack
  4538 ;; Tracked objects:
  4539 ;;		On entry : 0/0
  4540 ;;		On exit  : 0/0
  4541 ;;		Unchanged: 0/0
  4542 ;; Data sizes:     COMRAM   BANK0   BANK1   BANK2   BANK3   BANK4   BANK5   BANK6   BANK7
  4543 ;;      Params:         0       6       0       0       0       0       0       0       0
  4544 ;;      Locals:         0       1       0       0       0       0       0       0       0
  4545 ;;      Temps:          0       2       0       0       0       0       0       0       0
  4546 ;;      Totals:         0       9       0       0       0       0       0       0       0
  4547 ;;Total ram usage:        9 bytes
  4548 ;; Hardware stack levels used:    1
  4549 ;; Hardware stack levels required when called:   15
  4550 ;; This function calls:
  4551 ;;		i1_ctoa
  4552 ;;		i1_fputc
  4553 ;; This function is called by:
  4554 ;;		i1_vfprintf
  4555 ;; This function uses a non-reentrant model
  4556 ;;
  4557                           
  4558                           	psect	text25
  4559  0015FC                     __ptext25:
  4560                           	opt callstack 0
  4561  0015FC                     i1_vfpfcnvrt:
  4562                           	opt callstack 3
  4563  0015FC                     
  4564                           ;C:\Program Files (x86)\Microchip\xc8\v2.10\pic\sources\c99\common\doprnt.c: 670: static
      +                           int vfpfcnvrt(FILE *fp, char *fmt[], va_list ap);C:\Program Files (x86)\Microchip\xc8\v
      +                          2.10\pic\sources\c99\common\doprnt.c: 671: {;C:\Program Files (x86)\Microchip\xc8\v2.10\
      +                          pic\sources\c99\common\doprnt.c: 672:     char c, *cp, ct[3];;C:\Program Files (x86)\Mic
      +                          rochip\xc8\v2.10\pic\sources\c99\common\doprnt.c: 673:     int done, i;;C:\Program Files
      +                           (x86)\Microchip\xc8\v2.10\pic\sources\c99\common\doprnt.c: 674:     long long ll;
  4565  0015FC  C082  FFD9         	movff	i1vfpfcnvrt@fmt,fsr2l
  4566  001600  C083  FFDA         	movff	i1vfpfcnvrt@fmt+1,fsr2h
  4567  001604  CFDE FFF6          	movff	postinc2,tblptrl
  4568  001608  CFDD FFF7          	movff	postdec2,tblptrh
  4569  00160C                     	if	0	;tblptru may be non-zero
  4570  00160C                     	endif
  4571  00160C                     	if	0	;tblptru may be non-zero
  4572  00160C                     	endif
  4573  00160C  0008               	tblrd		*
  4574  00160E  50F5               	movf	tablat,w,c
  4575  001610  0A25               	xorlw	37
  4576  001612  A4D8               	btfss	status,2,c
  4577  001614  EF0E  F00B         	goto	i1u472_21
  4578  001618  EF10  F00B         	goto	i1u472_20
  4579  00161C                     i1u472_21:
  4580  00161C  EF95  F00B         	goto	i1l5601
  4581  001620                     i1u472_20:
  4582  001620                     
  4583                           ;C:\Program Files (x86)\Microchip\xc8\v2.10\pic\sources\c99\common\doprnt.c: 681:       
      +                            ++*fmt;
  4584  001620  C082  FFD9         	movff	i1vfpfcnvrt@fmt,fsr2l
  4585  001624  C083  FFDA         	movff	i1vfpfcnvrt@fmt+1,fsr2h
  4586  001628  2ADE               	incf	postinc2,f,c
  4587  00162A  0E00               	movlw	0
  4588  00162C  22DD               	addwfc	postdec2,f,c
  4589  00162E                     
  4590                           ;C:\Program Files (x86)\Microchip\xc8\v2.10\pic\sources\c99\common\doprnt.c: 683:       
      +                            flags = width = 0;
  4591  00162E  0E00               	movlw	0
  4592  001630  0101               	movlb	1	; () banked
  4593  001632  6F03               	movwf	(_width+1)& (0+255),b
  4594  001634  0E00               	movlw	0
  4595  001636  6F02               	movwf	_width& (0+255),b
  4596  001638  C102  F0E0         	movff	_width,_flags
  4597  00163C  C103  F0E1         	movff	_width+1,_flags+1
  4598  001640                     
  4599                           ; BSR set to: 1
  4600                           ;C:\Program Files (x86)\Microchip\xc8\v2.10\pic\sources\c99\common\doprnt.c: 684:       
      +                            prec = -1;
  4601  001640  6904               	setf	_prec& (0+255),b
  4602  001642  6905               	setf	(_prec+1)& (0+255),b
  4603  001644                     
  4604                           ; BSR set to: 1
  4605                           ;C:\Program Files (x86)\Microchip\xc8\v2.10\pic\sources\c99\common\doprnt.c: 792:       
      +                            if (*fmt[0] == 'c') {
  4606  001644  C082  FFD9         	movff	i1vfpfcnvrt@fmt,fsr2l
  4607  001648  C083  FFDA         	movff	i1vfpfcnvrt@fmt+1,fsr2h
  4608  00164C  CFDE FFF6          	movff	postinc2,tblptrl
  4609  001650  CFDD FFF7          	movff	postdec2,tblptrh
  4610  001654                     	if	0	;tblptru may be non-zero
  4611  001654                     	endif
  4612  001654                     	if	0	;tblptru may be non-zero
  4613  001654                     	endif
  4614  001654  0008               	tblrd		*
  4615  001656  50F5               	movf	tablat,w,c
  4616  001658  0A63               	xorlw	99
  4617  00165A  A4D8               	btfss	status,2,c
  4618  00165C  EF32  F00B         	goto	i1u473_21
  4619  001660  EF34  F00B         	goto	i1u473_20
  4620  001664                     i1u473_21:
  4621  001664  EF5C  F00B         	goto	i1l5585
  4622  001668                     i1u473_20:
  4623  001668                     
  4624                           ; BSR set to: 1
  4625                           ;C:\Program Files (x86)\Microchip\xc8\v2.10\pic\sources\c99\common\doprnt.c: 793:       
      +                                ++*fmt;
  4626  001668  C082  FFD9         	movff	i1vfpfcnvrt@fmt,fsr2l
  4627  00166C  C083  FFDA         	movff	i1vfpfcnvrt@fmt+1,fsr2h
  4628  001670  2ADE               	incf	postinc2,f,c
  4629  001672  0E00               	movlw	0
  4630  001674  22DD               	addwfc	postdec2,f,c
  4631                           
  4632                           ;C:\Program Files (x86)\Microchip\xc8\v2.10\pic\sources\c99\common\doprnt.c: 794:       
      +                                c = (unsigned char)(*(int *)__va_arg(*(int **)ap, (int)0));
  4633  001676  C084  FFD9         	movff	i1vfpfcnvrt@ap,fsr2l
  4634  00167A  C085  FFDA         	movff	i1vfpfcnvrt@ap+1,fsr2h
  4635  00167E  CFDF F086          	movff	indf2,??i1_vfpfcnvrt
  4636  001682  0E02               	movlw	2
  4637  001684  26DE               	addwf	postinc2,f,c
  4638  001686  CFDF F087          	movff	indf2,??i1_vfpfcnvrt+1
  4639  00168A  0E00               	movlw	0
  4640  00168C  22DD               	addwfc	postdec2,f,c
  4641  00168E  C086  FFD9         	movff	??i1_vfpfcnvrt,fsr2l
  4642  001692  C087  FFDA         	movff	??i1_vfpfcnvrt+1,fsr2h
  4643  001696  50DF               	movf	indf2,w,c
  4644  001698  0100               	movlb	0	; () banked
  4645  00169A  6F88               	movwf	i1vfpfcnvrt@c& (0+255),b
  4646  00169C                     
  4647                           ; BSR set to: 0
  4648                           ;C:\Program Files (x86)\Microchip\xc8\v2.10\pic\sources\c99\common\doprnt.c: 795:       
      +                                return ctoa(fp, c);
  4649  00169C  C080  F07B         	movff	i1vfpfcnvrt@fp,i1ctoa@fp
  4650  0016A0  C081  F07C         	movff	i1vfpfcnvrt@fp+1,i1ctoa@fp+1
  4651  0016A4  C088  F07D         	movff	i1vfpfcnvrt@c,i1ctoa@c
  4652  0016A8  ECAC  F019         	call	i1_ctoa	;wreg free
  4653  0016AC  C07B  F080         	movff	?i1_ctoa,?i1_vfpfcnvrt
  4654  0016B0  C07C  F081         	movff	?i1_ctoa+1,?i1_vfpfcnvrt+1
  4655  0016B4  EFB1  F00B         	goto	i1l758
  4656  0016B8                     i1l5585:
  4657                           
  4658                           ; BSR set to: 1
  4659                           ;C:\Program Files (x86)\Microchip\xc8\v2.10\pic\sources\c99\common\doprnt.c: 1350:      
      +                             if ((*fmt)[0] == '%') {
  4660  0016B8  C082  FFD9         	movff	i1vfpfcnvrt@fmt,fsr2l
  4661  0016BC  C083  FFDA         	movff	i1vfpfcnvrt@fmt+1,fsr2h
  4662  0016C0  CFDE FFF6          	movff	postinc2,tblptrl
  4663  0016C4  CFDD FFF7          	movff	postdec2,tblptrh
  4664  0016C8                     	if	0	;tblptru may be non-zero
  4665  0016C8                     	endif
  4666  0016C8                     	if	0	;tblptru may be non-zero
  4667  0016C8                     	endif
  4668  0016C8  0008               	tblrd		*
  4669  0016CA  50F5               	movf	tablat,w,c
  4670  0016CC  0A25               	xorlw	37
  4671  0016CE  A4D8               	btfss	status,2,c
  4672  0016D0  EF6C  F00B         	goto	i1u474_21
  4673  0016D4  EF6E  F00B         	goto	i1u474_20
  4674  0016D8                     i1u474_21:
  4675  0016D8  EF87  F00B         	goto	i1l5595
  4676  0016DC                     i1u474_20:
  4677  0016DC                     
  4678                           ; BSR set to: 1
  4679                           ;C:\Program Files (x86)\Microchip\xc8\v2.10\pic\sources\c99\common\doprnt.c: 1351:      
      +                                 ++*fmt;
  4680  0016DC  C082  FFD9         	movff	i1vfpfcnvrt@fmt,fsr2l
  4681  0016E0  C083  FFDA         	movff	i1vfpfcnvrt@fmt+1,fsr2h
  4682  0016E4  2ADE               	incf	postinc2,f,c
  4683  0016E6  0E00               	movlw	0
  4684  0016E8  22DD               	addwfc	postdec2,f,c
  4685  0016EA                     
  4686                           ; BSR set to: 1
  4687                           ;C:\Program Files (x86)\Microchip\xc8\v2.10\pic\sources\c99\common\doprnt.c: 1352:      
      +                                 fputc((int)'%', fp);
  4688  0016EA  0E00               	movlw	0
  4689  0016EC  0100               	movlb	0	; () banked
  4690  0016EE  6F61               	movwf	(i1fputc@c+1)& (0+255),b
  4691  0016F0  0E25               	movlw	37
  4692  0016F2  6F60               	movwf	i1fputc@c& (0+255),b
  4693  0016F4  C080  F062         	movff	i1vfpfcnvrt@fp,i1fputc@fp
  4694  0016F8  C081  F063         	movff	i1vfpfcnvrt@fp+1,i1fputc@fp+1
  4695  0016FC  ECA4  F015         	call	i1_fputc	;wreg free
  4696  001700                     i1l5591:
  4697                           
  4698                           ;C:\Program Files (x86)\Microchip\xc8\v2.10\pic\sources\c99\common\doprnt.c: 1353:      
      +                                 return 1;
  4699  001700  0E00               	movlw	0
  4700  001702  0100               	movlb	0	; () banked
  4701  001704  6F81               	movwf	(?i1_vfpfcnvrt+1)& (0+255),b
  4702  001706  0E01               	movlw	1
  4703  001708  6F80               	movwf	?i1_vfpfcnvrt& (0+255),b
  4704  00170A  EFB1  F00B         	goto	i1l758
  4705  00170E                     i1l5595:
  4706                           
  4707                           ; BSR set to: 1
  4708                           ;C:\Program Files (x86)\Microchip\xc8\v2.10\pic\sources\c99\common\doprnt.c: 1357:      
      +                             ++*fmt;
  4709  00170E  C082  FFD9         	movff	i1vfpfcnvrt@fmt,fsr2l
  4710  001712  C083  FFDA         	movff	i1vfpfcnvrt@fmt+1,fsr2h
  4711  001716  2ADE               	incf	postinc2,f,c
  4712  001718  0E00               	movlw	0
  4713  00171A  22DD               	addwfc	postdec2,f,c
  4714  00171C                     
  4715                           ; BSR set to: 1
  4716                           ;C:\Program Files (x86)\Microchip\xc8\v2.10\pic\sources\c99\common\doprnt.c: 1358:      
      +                             return 0;
  4717  00171C  0E00               	movlw	0
  4718  00171E  0100               	movlb	0	; () banked
  4719  001720  6F81               	movwf	(?i1_vfpfcnvrt+1)& (0+255),b
  4720  001722  0E00               	movlw	0
  4721  001724  6F80               	movwf	?i1_vfpfcnvrt& (0+255),b
  4722  001726  EFB1  F00B         	goto	i1l758
  4723  00172A                     i1l5601:
  4724                           
  4725                           ;C:\Program Files (x86)\Microchip\xc8\v2.10\pic\sources\c99\common\doprnt.c: 1362:     f
      +                          putc((int)(*fmt)[0], fp);
  4726  00172A  C082  FFD9         	movff	i1vfpfcnvrt@fmt,fsr2l
  4727  00172E  C083  FFDA         	movff	i1vfpfcnvrt@fmt+1,fsr2h
  4728  001732  CFDE FFF6          	movff	postinc2,tblptrl
  4729  001736  CFDD FFF7          	movff	postdec2,tblptrh
  4730  00173A                     	if	0	;tblptru may be non-zero
  4731  00173A                     	endif
  4732  00173A                     	if	0	;tblptru may be non-zero
  4733  00173A                     	endif
  4734  00173A  0008               	tblrd		*
  4735  00173C  50F5               	movf	tablat,w,c
  4736  00173E  0100               	movlb	0	; () banked
  4737  001740  6F60               	movwf	i1fputc@c& (0+255),b
  4738  001742  6B61               	clrf	(i1fputc@c+1)& (0+255),b
  4739  001744  C080  F062         	movff	i1vfpfcnvrt@fp,i1fputc@fp
  4740  001748  C081  F063         	movff	i1vfpfcnvrt@fp+1,i1fputc@fp+1
  4741  00174C  ECA4  F015         	call	i1_fputc	;wreg free
  4742  001750                     
  4743                           ;C:\Program Files (x86)\Microchip\xc8\v2.10\pic\sources\c99\common\doprnt.c: 1363:     +
      +                          +*fmt;
  4744  001750  C082  FFD9         	movff	i1vfpfcnvrt@fmt,fsr2l
  4745  001754  C083  FFDA         	movff	i1vfpfcnvrt@fmt+1,fsr2h
  4746  001758  2ADE               	incf	postinc2,f,c
  4747  00175A  0E00               	movlw	0
  4748  00175C  22DD               	addwfc	postdec2,f,c
  4749  00175E  EF80  F00B         	goto	i1l5591
  4750  001762                     i1l758:
  4751  001762  0012               	return		;funcret
  4752  001764                     __end_ofi1_vfpfcnvrt:
  4753                           	opt callstack 0
  4754                           
  4755 ;; *************** function i1_ctoa *****************
  4756 ;; Defined at:
  4757 ;;		line 259 in file "C:\Program Files (x86)\Microchip\xc8\v2.10\pic\sources\c99\common\doprnt.c"
  4758 ;; Parameters:    Size  Location     Type
  4759 ;;  fp              2   27[BANK0 ] PTR struct _IO_FILE
  4760 ;;		 -> i1sprintf@f(6), sprintf@f(6), 
  4761 ;;  c               1   29[BANK0 ] unsigned char 
  4762 ;; Auto vars:     Size  Location     Type
  4763 ;;  ctoa            2   30[BANK0 ] int 
  4764 ;;  ctoa            2    0        int 
  4765 ;; Return value:  Size  Location     Type
  4766 ;;                  2   27[BANK0 ] int 
  4767 ;; Registers used:
  4768 ;;		wreg, fsr1l, fsr1h, fsr2l, fsr2h, status,2, status,0, cstack
  4769 ;; Tracked objects:
  4770 ;;		On entry : 0/0
  4771 ;;		On exit  : 0/0
  4772 ;;		Unchanged: 0/0
  4773 ;; Data sizes:     COMRAM   BANK0   BANK1   BANK2   BANK3   BANK4   BANK5   BANK6   BANK7
  4774 ;;      Params:         0       3       0       0       0       0       0       0       0
  4775 ;;      Locals:         0       2       0       0       0       0       0       0       0
  4776 ;;      Temps:          0       0       0       0       0       0       0       0       0
  4777 ;;      Totals:         0       5       0       0       0       0       0       0       0
  4778 ;;Total ram usage:        5 bytes
  4779 ;; Hardware stack levels used:    1
  4780 ;; Hardware stack levels required when called:   14
  4781 ;; This function calls:
  4782 ;;		i1_pad
  4783 ;; This function is called by:
  4784 ;;		i1_vfpfcnvrt
  4785 ;; This function uses a non-reentrant model
  4786 ;;
  4787                           
  4788                           	psect	text26
  4789  003358                     __ptext26:
  4790                           	opt callstack 0
  4791  003358                     i1_ctoa:
  4792                           	opt callstack 3
  4793  003358                     
  4794                           ;C:\Program Files (x86)\Microchip\xc8\v2.10\pic\sources\c99\common\doprnt.c: 259: static
      +                           int ctoa(FILE *fp, char c);C:\Program Files (x86)\Microchip\xc8\v2.10\pic\sources\c99\c
      +                          ommon\doprnt.c: 260: {;C:\Program Files (x86)\Microchip\xc8\v2.10\pic\sources\c99\common
      +                          \doprnt.c: 261:     int l, w;;C:\Program Files (x86)\Microchip\xc8\v2.10\pic\sources\c99
      +                          \common\doprnt.c: 264:     w = width ? width - 1 : width;
  4795  003358  0101               	movlb	1	; () banked
  4796  00335A  5102               	movf	_width& (0+255),w,b
  4797  00335C  1103               	iorwf	(_width+1)& (0+255),w,b
  4798  00335E  A4D8               	btfss	status,2,c
  4799  003360  EFB4  F019         	goto	i1u462_21
  4800  003364  EFB6  F019         	goto	i1u462_20
  4801  003368                     i1u462_21:
  4802  003368  EFBC  F019         	goto	i1l5489
  4803  00336C                     i1u462_20:
  4804  00336C                     
  4805                           ; BSR set to: 1
  4806  00336C  C102  F07E         	movff	_width,i1ctoa@w
  4807  003370  C103  F07F         	movff	_width+1,i1ctoa@w+1
  4808  003374  EFC5  F019         	goto	i1l5491
  4809  003378                     i1l5489:
  4810                           
  4811                           ; BSR set to: 1
  4812  003378  0EFF               	movlw	255
  4813  00337A  2502               	addwf	_width& (0+255),w,b
  4814  00337C  0100               	movlb	0	; () banked
  4815  00337E  6F7E               	movwf	i1ctoa@w& (0+255),b
  4816  003380  0EFF               	movlw	255
  4817  003382  0101               	movlb	1	; () banked
  4818  003384  2103               	addwfc	(_width+1)& (0+255),w,b
  4819  003386  0100               	movlb	0	; () banked
  4820  003388  6F7F               	movwf	(i1ctoa@w+1)& (0+255),b
  4821  00338A                     i1l5491:
  4822                           
  4823                           ;C:\Program Files (x86)\Microchip\xc8\v2.10\pic\sources\c99\common\doprnt.c: 267:     db
      +                          uf[0] = c;
  4824  00338A  C07D  F187         	movff	i1ctoa@c,_dbuf
  4825  00338E                     
  4826                           ;C:\Program Files (x86)\Microchip\xc8\v2.10\pic\sources\c99\common\doprnt.c: 268:     db
      +                          uf[1] = '\0';
  4827  00338E  0E00               	movlw	0
  4828  003390  0101               	movlb	1	; () banked
  4829  003392  6F88               	movwf	(_dbuf+1)& (0+255),b
  4830  003394                     
  4831                           ; BSR set to: 1
  4832                           ;C:\Program Files (x86)\Microchip\xc8\v2.10\pic\sources\c99\common\doprnt.c: 269:     re
      +                          turn pad(fp, &dbuf[0], w);
  4833  003394  C07B  F070         	movff	i1ctoa@fp,i1pad@fp
  4834  003398  C07C  F071         	movff	i1ctoa@fp+1,i1pad@fp+1
  4835  00339C  0E87               	movlw	low _dbuf
  4836  00339E  0100               	movlb	0	; () banked
  4837  0033A0  6F72               	movwf	i1pad@buf& (0+255),b
  4838  0033A2  0E01               	movlw	high _dbuf
  4839  0033A4  6F73               	movwf	(i1pad@buf+1)& (0+255),b
  4840  0033A6  C07E  F074         	movff	i1ctoa@w,i1pad@p
  4841  0033AA  C07F  F075         	movff	i1ctoa@w+1,i1pad@p+1
  4842  0033AE  EC0A  F016         	call	i1_pad	;wreg free
  4843  0033B2  C070  F07B         	movff	?i1_pad,?i1_ctoa
  4844  0033B6  C071  F07C         	movff	?i1_pad+1,?i1_ctoa+1
  4845  0033BA  0012               	return		;funcret
  4846  0033BC                     __end_ofi1_ctoa:
  4847                           	opt callstack 0
  4848                           
  4849 ;; *************** function i1_pad *****************
  4850 ;; Defined at:
  4851 ;;		line 72 in file "C:\Program Files (x86)\Microchip\xc8\v2.10\pic\sources\c99\common\doprnt.c"
  4852 ;; Parameters:    Size  Location     Type
  4853 ;;  fp              2   16[BANK0 ] PTR struct _IO_FILE
  4854 ;;		 -> i1sprintf@f(6), sprintf@f(6), 
  4855 ;;  buf             2   18[BANK0 ] PTR unsigned char 
  4856 ;;		 -> dbuf(32), 
  4857 ;;  p               2   20[BANK0 ] int 
  4858 ;; Auto vars:     Size  Location     Type
  4859 ;;  pad             2   25[BANK0 ] int 
  4860 ;;  pad             2   23[BANK0 ] int 
  4861 ;; Return value:  Size  Location     Type
  4862 ;;                  2   16[BANK0 ] int 
  4863 ;; Registers used:
  4864 ;;		wreg, fsr1l, fsr1h, fsr2l, fsr2h, status,2, status,0, cstack
  4865 ;; Tracked objects:
  4866 ;;		On entry : 0/0
  4867 ;;		On exit  : 0/0
  4868 ;;		Unchanged: 0/0
  4869 ;; Data sizes:     COMRAM   BANK0   BANK1   BANK2   BANK3   BANK4   BANK5   BANK6   BANK7
  4870 ;;      Params:         0       6       0       0       0       0       0       0       0
  4871 ;;      Locals:         0       4       0       0       0       0       0       0       0
  4872 ;;      Temps:          0       1       0       0       0       0       0       0       0
  4873 ;;      Totals:         0      11       0       0       0       0       0       0       0
  4874 ;;Total ram usage:       11 bytes
  4875 ;; Hardware stack levels used:    1
  4876 ;; Hardware stack levels required when called:   13
  4877 ;; This function calls:
  4878 ;;		i1_fputc
  4879 ;;		i1_fputs
  4880 ;;		i1_strlen
  4881 ;; This function is called by:
  4882 ;;		i1_ctoa
  4883 ;; This function uses a non-reentrant model
  4884 ;;
  4885                           
  4886                           	psect	text27
  4887  002C14                     __ptext27:
  4888                           	opt callstack 0
  4889  002C14                     i1_pad:
  4890                           	opt callstack 3
  4891  002C14                     
  4892                           ;C:\Program Files (x86)\Microchip\xc8\v2.10\pic\sources\c99\common\doprnt.c: 72: static 
      +                          int pad(FILE *fp, char *buf, int p);C:\Program Files (x86)\Microchip\xc8\v2.10\pic\sourc
      +                          es\c99\common\doprnt.c: 73: {;C:\Program Files (x86)\Microchip\xc8\v2.10\pic\sources\c99
      +                          \common\doprnt.c: 74:     int i, w;;C:\Program Files (x86)\Microchip\xc8\v2.10\pic\sourc
      +                          es\c99\common\doprnt.c: 77:     if (flags & (1 << 0)) {
  4893  002C14  0100               	movlb	0	; () banked
  4894  002C16  A1E0               	btfss	_flags& (0+255),0,b
  4895  002C18  EF10  F016         	goto	i1u455_21
  4896  002C1C  EF12  F016         	goto	i1u455_20
  4897  002C20                     i1u455_21:
  4898  002C20  EF1C  F016         	goto	i1l5427
  4899  002C24                     i1u455_20:
  4900  002C24                     
  4901                           ; BSR set to: 0
  4902                           ;C:\Program Files (x86)\Microchip\xc8\v2.10\pic\sources\c99\common\doprnt.c: 78:        
      +                           fputs((const char *)buf, fp);
  4903  002C24  C072  F069         	movff	i1pad@buf,i1fputs@s
  4904  002C28  C073  F06A         	movff	i1pad@buf+1,i1fputs@s+1
  4905  002C2C  C070  F06B         	movff	i1pad@fp,i1fputs@fp
  4906  002C30  C071  F06C         	movff	i1pad@fp+1,i1fputs@fp+1
  4907  002C34  EC34  F01B         	call	i1_fputs	;wreg free
  4908  002C38                     i1l5427:
  4909                           
  4910                           ;C:\Program Files (x86)\Microchip\xc8\v2.10\pic\sources\c99\common\doprnt.c: 82:     w =
      +                           (p < 0) ? 0 : p;
  4911  002C38  0100               	movlb	0	; () banked
  4912  002C3A  BF75               	btfsc	(i1pad@p+1)& (0+255),7,b
  4913  002C3C  EF22  F016         	goto	i1u456_21
  4914  002C40  EF24  F016         	goto	i1u456_20
  4915  002C44                     i1u456_21:
  4916  002C44  EF2A  F016         	goto	i1l5431
  4917  002C48                     i1u456_20:
  4918  002C48                     
  4919                           ; BSR set to: 0
  4920  002C48  C074  F079         	movff	i1pad@p,i1pad@w
  4921  002C4C  C075  F07A         	movff	i1pad@p+1,i1pad@w+1
  4922  002C50  EF2E  F016         	goto	i1l741
  4923  002C54                     i1l5431:
  4924                           
  4925                           ; BSR set to: 0
  4926  002C54  0E00               	movlw	0
  4927  002C56  6F7A               	movwf	(i1pad@w+1)& (0+255),b
  4928  002C58  0E00               	movlw	0
  4929  002C5A  6F79               	movwf	i1pad@w& (0+255),b
  4930  002C5C                     i1l741:
  4931                           
  4932                           ; BSR set to: 0
  4933                           ;C:\Program Files (x86)\Microchip\xc8\v2.10\pic\sources\c99\common\doprnt.c: 83:     i =
      +                           0;
  4934  002C5C  0E00               	movlw	0
  4935  002C5E  6F78               	movwf	(i1pad@i+1)& (0+255),b
  4936  002C60  0E00               	movlw	0
  4937  002C62  6F77               	movwf	i1pad@i& (0+255),b
  4938                           
  4939                           ;C:\Program Files (x86)\Microchip\xc8\v2.10\pic\sources\c99\common\doprnt.c: 84:     whi
      +                          le (i < w) {
  4940  002C64  EF41  F016         	goto	i1l5437
  4941  002C68                     i1l5433:
  4942                           
  4943                           ; BSR set to: 0
  4944                           ;C:\Program Files (x86)\Microchip\xc8\v2.10\pic\sources\c99\common\doprnt.c: 85:        
      +                           fputc(' ', fp);
  4945  002C68  0E00               	movlw	0
  4946  002C6A  6F61               	movwf	(i1fputc@c+1)& (0+255),b
  4947  002C6C  0E20               	movlw	32
  4948  002C6E  6F60               	movwf	i1fputc@c& (0+255),b
  4949  002C70  C070  F062         	movff	i1pad@fp,i1fputc@fp
  4950  002C74  C071  F063         	movff	i1pad@fp+1,i1fputc@fp+1
  4951  002C78  ECA4  F015         	call	i1_fputc	;wreg free
  4952  002C7C                     
  4953                           ;C:\Program Files (x86)\Microchip\xc8\v2.10\pic\sources\c99\common\doprnt.c: 86:        
      +                           ++i;
  4954  002C7C  0100               	movlb	0	; () banked
  4955  002C7E  4B77               	infsnz	i1pad@i& (0+255),f,b
  4956  002C80  2B78               	incf	(i1pad@i+1)& (0+255),f,b
  4957  002C82                     i1l5437:
  4958                           
  4959                           ; BSR set to: 0
  4960                           ;C:\Program Files (x86)\Microchip\xc8\v2.10\pic\sources\c99\common\doprnt.c: 84:     whi
      +                          le (i < w) {
  4961  002C82  5179               	movf	i1pad@w& (0+255),w,b
  4962  002C84  5D77               	subwf	i1pad@i& (0+255),w,b
  4963  002C86  5178               	movf	(i1pad@i+1)& (0+255),w,b
  4964  002C88  0A80               	xorlw	128
  4965  002C8A  6F76               	movwf	??i1_pad& (0+255),b
  4966  002C8C  517A               	movf	(i1pad@w+1)& (0+255),w,b
  4967  002C8E  0A80               	xorlw	128
  4968  002C90  5976               	subwfb	??i1_pad& (0+255),w,b
  4969  002C92  A0D8               	btfss	status,0,c
  4970  002C94  EF4E  F016         	goto	i1u457_21
  4971  002C98  EF50  F016         	goto	i1u457_20
  4972  002C9C                     i1u457_21:
  4973  002C9C  EF34  F016         	goto	i1l5433
  4974  002CA0                     i1u457_20:
  4975  002CA0                     
  4976                           ; BSR set to: 0
  4977                           ;C:\Program Files (x86)\Microchip\xc8\v2.10\pic\sources\c99\common\doprnt.c: 90:     if 
      +                          (!(flags & (1 << 0))) {
  4978  002CA0  B1E0               	btfsc	_flags& (0+255),0,b
  4979  002CA2  EF55  F016         	goto	i1u458_21
  4980  002CA6  EF57  F016         	goto	i1u458_20
  4981  002CAA                     i1u458_21:
  4982  002CAA  EF61  F016         	goto	i1l5441
  4983  002CAE                     i1u458_20:
  4984  002CAE                     
  4985                           ; BSR set to: 0
  4986                           ;C:\Program Files (x86)\Microchip\xc8\v2.10\pic\sources\c99\common\doprnt.c: 91:        
      +                           fputs((const char *)buf, fp);
  4987  002CAE  C072  F069         	movff	i1pad@buf,i1fputs@s
  4988  002CB2  C073  F06A         	movff	i1pad@buf+1,i1fputs@s+1
  4989  002CB6  C070  F06B         	movff	i1pad@fp,i1fputs@fp
  4990  002CBA  C071  F06C         	movff	i1pad@fp+1,i1fputs@fp+1
  4991  002CBE  EC34  F01B         	call	i1_fputs	;wreg free
  4992  002CC2                     i1l5441:
  4993                           
  4994                           ;C:\Program Files (x86)\Microchip\xc8\v2.10\pic\sources\c99\common\doprnt.c: 94:     ret
      +                          urn strlen(buf) + w;
  4995  002CC2  C072  F060         	movff	i1pad@buf,i1strlen@s
  4996  002CC6  C073  F061         	movff	i1pad@buf+1,i1strlen@s+1
  4997  002CCA  ECD6  F01B         	call	i1_strlen	;wreg free
  4998  002CCE  0100               	movlb	0	; () banked
  4999  002CD0  5179               	movf	i1pad@w& (0+255),w,b
  5000  002CD2  2560               	addwf	?i1_strlen& (0+255),w,b
  5001  002CD4  6F70               	movwf	?i1_pad& (0+255),b
  5002  002CD6  517A               	movf	(i1pad@w+1)& (0+255),w,b
  5003  002CD8  2161               	addwfc	(?i1_strlen+1)& (0+255),w,b
  5004  002CDA  6F71               	movwf	(?i1_pad+1)& (0+255),b
  5005  002CDC                     
  5006                           ; BSR set to: 0
  5007  002CDC  0012               	return		;funcret
  5008  002CDE                     __end_ofi1_pad:
  5009                           	opt callstack 0
  5010                           
  5011 ;; *************** function i1_strlen *****************
  5012 ;; Defined at:
  5013 ;;		line 5 in file "C:\Program Files (x86)\Microchip\xc8\v2.10\pic\sources\c99\common\strlen.c"
  5014 ;; Parameters:    Size  Location     Type
  5015 ;;  s               2    0[BANK0 ] PTR const unsigned char 
  5016 ;;		 -> dbuf(32), 
  5017 ;; Auto vars:     Size  Location     Type
  5018 ;;  strlen          2    2[BANK0 ] PTR const unsigned char 
  5019 ;;		 -> dbuf(32), 
  5020 ;; Return value:  Size  Location     Type
  5021 ;;                  2    0[BANK0 ] unsigned int 
  5022 ;; Registers used:
  5023 ;;		wreg, fsr2l, fsr2h, status,2, status,0
  5024 ;; Tracked objects:
  5025 ;;		On entry : 0/0
  5026 ;;		On exit  : 0/0
  5027 ;;		Unchanged: 0/0
  5028 ;; Data sizes:     COMRAM   BANK0   BANK1   BANK2   BANK3   BANK4   BANK5   BANK6   BANK7
  5029 ;;      Params:         0       2       0       0       0       0       0       0       0
  5030 ;;      Locals:         0       2       0       0       0       0       0       0       0
  5031 ;;      Temps:          0       0       0       0       0       0       0       0       0
  5032 ;;      Totals:         0       4       0       0       0       0       0       0       0
  5033 ;;Total ram usage:        4 bytes
  5034 ;; Hardware stack levels used:    1
  5035 ;; Hardware stack levels required when called:   10
  5036 ;; This function calls:
  5037 ;;		Nothing
  5038 ;; This function is called by:
  5039 ;;		i1_pad
  5040 ;; This function uses a non-reentrant model
  5041 ;;
  5042                           
  5043                           	psect	text28
  5044  0037AC                     __ptext28:
  5045                           	opt callstack 0
  5046  0037AC                     i1_strlen:
  5047                           	opt callstack 5
  5048  0037AC  C060  F062         	movff	i1strlen@s,i1strlen@a
  5049  0037B0  C061  F063         	movff	i1strlen@s+1,i1strlen@a+1
  5050  0037B4  EFDF  F01B         	goto	i1l5403
  5051  0037B8                     i1l5401:
  5052  0037B8  0100               	movlb	0	; () banked
  5053  0037BA  4B60               	infsnz	i1strlen@s& (0+255),f,b
  5054  0037BC  2B61               	incf	(i1strlen@s+1)& (0+255),f,b
  5055  0037BE                     i1l5403:
  5056  0037BE  C060  FFD9         	movff	i1strlen@s,fsr2l
  5057  0037C2  C061  FFDA         	movff	i1strlen@s+1,fsr2h
  5058  0037C6  50DF               	movf	indf2,w,c
  5059  0037C8  A4D8               	btfss	status,2,c
  5060  0037CA  EFE9  F01B         	goto	i1u453_21
  5061  0037CE  EFEB  F01B         	goto	i1u453_20
  5062  0037D2                     i1u453_21:
  5063  0037D2  EFDC  F01B         	goto	i1l5401
  5064  0037D6                     i1u453_20:
  5065  0037D6  0100               	movlb	0	; () banked
  5066  0037D8  5162               	movf	i1strlen@a& (0+255),w,b
  5067  0037DA  5D60               	subwf	i1strlen@s& (0+255),w,b
  5068  0037DC  6F60               	movwf	?i1_strlen& (0+255),b
  5069  0037DE  5163               	movf	(i1strlen@a+1)& (0+255),w,b
  5070  0037E0  5961               	subwfb	(i1strlen@s+1)& (0+255),w,b
  5071  0037E2  6F61               	movwf	(?i1_strlen+1)& (0+255),b
  5072  0037E4                     
  5073                           ; BSR set to: 0
  5074  0037E4  0012               	return		;funcret
  5075  0037E6                     __end_ofi1_strlen:
  5076                           	opt callstack 0
  5077                           
  5078 ;; *************** function i1_fputs *****************
  5079 ;; Defined at:
  5080 ;;		line 8 in file "C:\Program Files (x86)\Microchip\xc8\v2.10\pic\sources\c99\common\nf_fputs.c"
  5081 ;; Parameters:    Size  Location     Type
  5082 ;;  s               2    9[BANK0 ] PTR const unsigned char 
  5083 ;;		 -> dbuf(32), 
  5084 ;;  fp              2   11[BANK0 ] PTR struct _IO_FILE
  5085 ;;		 -> i1sprintf@f(6), sprintf@f(6), 
  5086 ;; Auto vars:     Size  Location     Type
  5087 ;;  fputs           2   14[BANK0 ] int 
  5088 ;;  fputs           1   13[BANK0 ] unsigned char 
  5089 ;; Return value:  Size  Location     Type
  5090 ;;                  2    9[BANK0 ] int 
  5091 ;; Registers used:
  5092 ;;		wreg, fsr1l, fsr1h, fsr2l, fsr2h, status,2, status,0, cstack
  5093 ;; Tracked objects:
  5094 ;;		On entry : 0/0
  5095 ;;		On exit  : 0/0
  5096 ;;		Unchanged: 0/0
  5097 ;; Data sizes:     COMRAM   BANK0   BANK1   BANK2   BANK3   BANK4   BANK5   BANK6   BANK7
  5098 ;;      Params:         0       4       0       0       0       0       0       0       0
  5099 ;;      Locals:         0       3       0       0       0       0       0       0       0
  5100 ;;      Temps:          0       0       0       0       0       0       0       0       0
  5101 ;;      Totals:         0       7       0       0       0       0       0       0       0
  5102 ;;Total ram usage:        7 bytes
  5103 ;; Hardware stack levels used:    1
  5104 ;; Hardware stack levels required when called:   12
  5105 ;; This function calls:
  5106 ;;		i1_fputc
  5107 ;; This function is called by:
  5108 ;;		i1_pad
  5109 ;; This function uses a non-reentrant model
  5110 ;;
  5111                           
  5112                           	psect	text29
  5113  003668                     __ptext29:
  5114                           	opt callstack 0
  5115  003668                     i1_fputs:
  5116                           	opt callstack 3
  5117  003668  0E00               	movlw	0
  5118  00366A  0100               	movlb	0	; () banked
  5119  00366C  6F6F               	movwf	(i1fputs@i+1)& (0+255),b
  5120  00366E  0E00               	movlw	0
  5121  003670  6F6E               	movwf	i1fputs@i& (0+255),b
  5122  003672  EF47  F01B         	goto	i1l5397
  5123  003676                     i1l5393:
  5124                           
  5125                           ; BSR set to: 0
  5126  003676  C06D  F060         	movff	i1fputs@c,i1fputc@c
  5127  00367A  6B61               	clrf	(i1fputc@c+1)& (0+255),b
  5128  00367C  C06B  F062         	movff	i1fputs@fp,i1fputc@fp
  5129  003680  C06C  F063         	movff	i1fputs@fp+1,i1fputc@fp+1
  5130  003684  ECA4  F015         	call	i1_fputc	;wreg free
  5131  003688  0100               	movlb	0	; () banked
  5132  00368A  4B6E               	infsnz	i1fputs@i& (0+255),f,b
  5133  00368C  2B6F               	incf	(i1fputs@i+1)& (0+255),f,b
  5134  00368E                     i1l5397:
  5135                           
  5136                           ; BSR set to: 0
  5137  00368E  516E               	movf	i1fputs@i& (0+255),w,b
  5138  003690  2569               	addwf	i1fputs@s& (0+255),w,b
  5139  003692  6ED9               	movwf	fsr2l,c
  5140  003694  516F               	movf	(i1fputs@i+1)& (0+255),w,b
  5141  003696  216A               	addwfc	(i1fputs@s+1)& (0+255),w,b
  5142  003698  6EDA               	movwf	fsr2h,c
  5143  00369A  50DF               	movf	indf2,w,c
  5144  00369C  6F6D               	movwf	i1fputs@c& (0+255),b
  5145  00369E  516D               	movf	i1fputs@c& (0+255),w,b
  5146  0036A0  A4D8               	btfss	status,2,c
  5147  0036A2  EF55  F01B         	goto	i1u452_21
  5148  0036A6  EF57  F01B         	goto	i1u452_20
  5149  0036AA                     i1u452_21:
  5150  0036AA  EF3B  F01B         	goto	i1l5393
  5151  0036AE                     i1u452_20:
  5152  0036AE                     
  5153                           ; BSR set to: 0
  5154  0036AE  0012               	return		;funcret
  5155  0036B0                     __end_ofi1_fputs:
  5156                           	opt callstack 0
  5157                           
  5158 ;; *************** function i1_fputc *****************
  5159 ;; Defined at:
  5160 ;;		line 8 in file "C:\Program Files (x86)\Microchip\xc8\v2.10\pic\sources\c99\common\nf_fputc.c"
  5161 ;; Parameters:    Size  Location     Type
  5162 ;;  c               2    0[BANK0 ] int 
  5163 ;;  fp              2    2[BANK0 ] PTR struct _IO_FILE
  5164 ;;		 -> i1sprintf@f(6), sprintf@f(6), 
  5165 ;; Auto vars:     Size  Location     Type
  5166 ;;		None
  5167 ;; Return value:  Size  Location     Type
  5168 ;;                  2    0[BANK0 ] int 
  5169 ;; Registers used:
  5170 ;;		wreg, fsr1l, fsr1h, fsr2l, fsr2h, status,2, status,0, cstack
  5171 ;; Tracked objects:
  5172 ;;		On entry : 0/0
  5173 ;;		On exit  : 0/0
  5174 ;;		Unchanged: 0/0
  5175 ;; Data sizes:     COMRAM   BANK0   BANK1   BANK2   BANK3   BANK4   BANK5   BANK6   BANK7
  5176 ;;      Params:         0       4       0       0       0       0       0       0       0
  5177 ;;      Locals:         0       0       0       0       0       0       0       0       0
  5178 ;;      Temps:          0       5       0       0       0       0       0       0       0
  5179 ;;      Totals:         0       9       0       0       0       0       0       0       0
  5180 ;;Total ram usage:        9 bytes
  5181 ;; Hardware stack levels used:    1
  5182 ;; Hardware stack levels required when called:   11
  5183 ;; This function calls:
  5184 ;;		i1_putch
  5185 ;; This function is called by:
  5186 ;;		i1_pad
  5187 ;;		i1_vfpfcnvrt
  5188 ;;		i1_fputs
  5189 ;; This function uses a non-reentrant model
  5190 ;;
  5191                           
  5192                           	psect	text30
  5193  002B48                     __ptext30:
  5194                           	opt callstack 0
  5195  002B48                     i1_fputc:
  5196                           	opt callstack 6
  5197  002B48  0100               	movlb	0	; () banked
  5198  002B4A  5162               	movf	i1fputc@fp& (0+255),w,b
  5199  002B4C  1163               	iorwf	(i1fputc@fp+1)& (0+255),w,b
  5200  002B4E  B4D8               	btfsc	status,2,c
  5201  002B50  EFAC  F015         	goto	i1u444_21
  5202  002B54  EFAE  F015         	goto	i1u444_20
  5203  002B58                     i1u444_21:
  5204  002B58  EFB7  F015         	goto	i1l5359
  5205  002B5C                     i1u444_20:
  5206  002B5C                     
  5207                           ; BSR set to: 0
  5208  002B5C  5162               	movf	i1fputc@fp& (0+255),w,b
  5209  002B5E  1163               	iorwf	(i1fputc@fp+1)& (0+255),w,b
  5210  002B60  A4D8               	btfss	status,2,c
  5211  002B62  EFB5  F015         	goto	i1u445_21
  5212  002B66  EFB7  F015         	goto	i1u445_20
  5213  002B6A                     i1u445_21:
  5214  002B6A  EFBC  F015         	goto	i1l5361
  5215  002B6E                     i1u445_20:
  5216  002B6E                     i1l5359:
  5217                           
  5218                           ; BSR set to: 0
  5219  002B6E  5160               	movf	i1fputc@c& (0+255),w,b
  5220  002B70  EC73  F01C         	call	i1_putch
  5221  002B74  EF09  F016         	goto	i1l1467
  5222  002B78                     i1l5361:
  5223                           
  5224                           ; BSR set to: 0
  5225  002B78  EE20 F004          	lfsr	2,4
  5226  002B7C  5162               	movf	i1fputc@fp& (0+255),w,b
  5227  002B7E  26D9               	addwf	fsr2l,f,c
  5228  002B80  5163               	movf	(i1fputc@fp+1)& (0+255),w,b
  5229  002B82  22DA               	addwfc	fsr2h,f,c
  5230  002B84  50DE               	movf	postinc2,w,c
  5231  002B86  10DE               	iorwf	postinc2,w,c
  5232  002B88  B4D8               	btfsc	status,2,c
  5233  002B8A  EFC9  F015         	goto	i1u446_21
  5234  002B8E  EFCB  F015         	goto	i1u446_20
  5235  002B92                     i1u446_21:
  5236  002B92  EFE6  F015         	goto	i1l5365
  5237  002B96                     i1u446_20:
  5238  002B96                     
  5239                           ; BSR set to: 0
  5240  002B96  EE20 F004          	lfsr	2,4
  5241  002B9A  5162               	movf	i1fputc@fp& (0+255),w,b
  5242  002B9C  26D9               	addwf	fsr2l,f,c
  5243  002B9E  5163               	movf	(i1fputc@fp+1)& (0+255),w,b
  5244  002BA0  22DA               	addwfc	fsr2h,f,c
  5245  002BA2  EE10 F002          	lfsr	1,2
  5246  002BA6  5162               	movf	i1fputc@fp& (0+255),w,b
  5247  002BA8  26E1               	addwf	fsr1l,f,c
  5248  002BAA  5163               	movf	(i1fputc@fp+1)& (0+255),w,b
  5249  002BAC  22E2               	addwfc	fsr1h,f,c
  5250  002BAE  50DE               	movf	postinc2,w,c
  5251  002BB0  5CE6               	subwf	postinc1,w,c
  5252  002BB2  50E6               	movf	postinc1,w,c
  5253  002BB4  0A80               	xorlw	128
  5254  002BB6  6F68               	movwf	(??i1_fputc+4)& (0+255),b
  5255  002BB8  50DE               	movf	postinc2,w,c
  5256  002BBA  0A80               	xorlw	128
  5257  002BBC  5968               	subwfb	(??i1_fputc+4)& (0+255),w,b
  5258  002BBE  B0D8               	btfsc	status,0,c
  5259  002BC0  EFE4  F015         	goto	i1u447_21
  5260  002BC4  EFE6  F015         	goto	i1u447_20
  5261  002BC8                     i1u447_21:
  5262  002BC8  EF09  F016         	goto	i1l1467
  5263  002BCC                     i1u447_20:
  5264  002BCC                     i1l5365:
  5265                           
  5266                           ; BSR set to: 0
  5267  002BCC  EE20 F002          	lfsr	2,2
  5268  002BD0  5162               	movf	i1fputc@fp& (0+255),w,b
  5269  002BD2  26D9               	addwf	fsr2l,f,c
  5270  002BD4  5163               	movf	(i1fputc@fp+1)& (0+255),w,b
  5271  002BD6  22DA               	addwfc	fsr2h,f,c
  5272  002BD8  CFDE F064          	movff	postinc2,??i1_fputc
  5273  002BDC  CFDD F065          	movff	postdec2,??i1_fputc+1
  5274  002BE0  C062  FFD9         	movff	i1fputc@fp,fsr2l
  5275  002BE4  C063  FFDA         	movff	i1fputc@fp+1,fsr2h
  5276  002BE8  CFDE F066          	movff	postinc2,??i1_fputc+2
  5277  002BEC  CFDD F067          	movff	postdec2,??i1_fputc+3
  5278  002BF0  5164               	movf	??i1_fputc& (0+255),w,b
  5279  002BF2  2566               	addwf	(??i1_fputc+2)& (0+255),w,b
  5280  002BF4  6ED9               	movwf	fsr2l,c
  5281  002BF6  5165               	movf	(??i1_fputc+1)& (0+255),w,b
  5282  002BF8  2167               	addwfc	(??i1_fputc+3)& (0+255),w,b
  5283  002BFA  6EDA               	movwf	fsr2h,c
  5284  002BFC  C060  FFDF         	movff	i1fputc@c,indf2
  5285  002C00  EE20 F002          	lfsr	2,2
  5286  002C04  5162               	movf	i1fputc@fp& (0+255),w,b
  5287  002C06  26D9               	addwf	fsr2l,f,c
  5288  002C08  5163               	movf	(i1fputc@fp+1)& (0+255),w,b
  5289  002C0A  22DA               	addwfc	fsr2h,f,c
  5290  002C0C  2ADE               	incf	postinc2,f,c
  5291  002C0E  0E00               	movlw	0
  5292  002C10  22DD               	addwfc	postdec2,f,c
  5293  002C12                     i1l1467:
  5294  002C12  0012               	return		;funcret
  5295  002C14                     __end_ofi1_fputc:
  5296                           	opt callstack 0
  5297                           
  5298 ;; *************** function i1_putch *****************
  5299 ;; Defined at:
  5300 ;;		line 7 in file "C:\Program Files (x86)\Microchip\xc8\v2.10\pic\sources\c99\common\putch.c"
  5301 ;; Parameters:    Size  Location     Type
  5302 ;;  c               1    wreg     unsigned char 
  5303 ;; Auto vars:     Size  Location     Type
  5304 ;;  c               1  (no storage) unsigned char 
  5305 ;; Return value:  Size  Location     Type
  5306 ;;                  1    wreg      void 
  5307 ;; Registers used:
  5308 ;;		wreg
  5309 ;; Tracked objects:
  5310 ;;		On entry : 0/0
  5311 ;;		On exit  : 0/0
  5312 ;;		Unchanged: 0/0
  5313 ;; Data sizes:     COMRAM   BANK0   BANK1   BANK2   BANK3   BANK4   BANK5   BANK6   BANK7
  5314 ;;      Params:         0       0       0       0       0       0       0       0       0
  5315 ;;      Locals:         0       0       0       0       0       0       0       0       0
  5316 ;;      Temps:          0       0       0       0       0       0       0       0       0
  5317 ;;      Totals:         0       0       0       0       0       0       0       0       0
  5318 ;;Total ram usage:        0 bytes
  5319 ;; Hardware stack levels used:    1
  5320 ;; Hardware stack levels required when called:   10
  5321 ;; This function calls:
  5322 ;;		Nothing
  5323 ;; This function is called by:
  5324 ;;		i1_fputc
  5325 ;; This function uses a non-reentrant model
  5326 ;;
  5327                           
  5328                           	psect	text31
  5329  0038E6                     __ptext31:
  5330                           	opt callstack 0
  5331  0038E6                     i1_putch:
  5332                           	opt callstack 6
  5333  0038E6  0012               	return		;funcret
  5334  0038E8                     __end_ofi1_putch:
  5335                           	opt callstack 0
  5336                           
  5337 ;; *************** function i1_putrsUSBUSART *****************
  5338 ;; Defined at:
  5339 ;;		line 744 in file "mcc_generated_files/usb/usb_device_cdc.c"
  5340 ;; Parameters:    Size  Location     Type
  5341 ;;  data            2    0[BANK0 ] PTR const unsigned char 
  5342 ;;		 -> buffer(64), 
  5343 ;; Auto vars:     Size  Location     Type
  5344 ;;  putrsUSBUSAR    2    2[BANK0 ] PTR const unsigned char 
  5345 ;;		 -> buffer(64), 
  5346 ;;  putrsUSBUSAR    1    4[BANK0 ] unsigned char 
  5347 ;; Return value:  Size  Location     Type
  5348 ;;                  1    wreg      void 
  5349 ;; Registers used:
  5350 ;;		wreg, fsr2l, fsr2h, status,2, status,0
  5351 ;; Tracked objects:
  5352 ;;		On entry : 0/0
  5353 ;;		On exit  : 0/0
  5354 ;;		Unchanged: 0/0
  5355 ;; Data sizes:     COMRAM   BANK0   BANK1   BANK2   BANK3   BANK4   BANK5   BANK6   BANK7
  5356 ;;      Params:         0       2       0       0       0       0       0       0       0
  5357 ;;      Locals:         0       3       0       0       0       0       0       0       0
  5358 ;;      Temps:          0       0       0       0       0       0       0       0       0
  5359 ;;      Totals:         0       5       0       0       0       0       0       0       0
  5360 ;;Total ram usage:        5 bytes
  5361 ;; Hardware stack levels used:    1
  5362 ;; Hardware stack levels required when called:   10
  5363 ;; This function calls:
  5364 ;;		Nothing
  5365 ;; This function is called by:
  5366 ;;		_ISR
  5367 ;; This function uses a non-reentrant model
  5368 ;;
  5369                           
  5370                           	psect	text32
  5371  0031A0                     __ptext32:
  5372                           	opt callstack 0
  5373  0031A0                     i1_putrsUSBUSART:
  5374                           	opt callstack 10
  5375  0031A0                     
  5376                           ;mcc_generated_files/usb/usb_device_cdc.c: 744: void putrsUSBUSART(const char *data);mcc
      +                          _generated_files/usb/usb_device_cdc.c: 745: {;mcc_generated_files/usb/usb_device_cdc.c: 
      +                          746:     uint8_t len;;mcc_generated_files/usb/usb_device_cdc.c: 747:     const char *pDa
      +                          ta;;mcc_generated_files/usb/usb_device_cdc.c: 772:     {PIE3bits.USBIE = 0;};
  5377  0031A0  94A3               	bcf	163,2,c	;volatile
  5378  0031A2                     
  5379                           ;mcc_generated_files/usb/usb_device_cdc.c: 773:     if(cdc_trf_state != 0)
  5380  0031A2  0101               	movlb	1	; () banked
  5381  0031A4  5106               	movf	_cdc_trf_state& (0+255),w,b
  5382  0031A6  B4D8               	btfsc	status,2,c
  5383  0031A8  EFD8  F018         	goto	i1u508_21
  5384  0031AC  EFDA  F018         	goto	i1u508_20
  5385  0031B0                     i1u508_21:
  5386  0031B0  EFDD  F018         	goto	i1l5913
  5387  0031B4                     i1u508_20:
  5388  0031B4                     
  5389                           ; BSR set to: 1
  5390                           ;mcc_generated_files/usb/usb_device_cdc.c: 774:     {;mcc_generated_files/usb/usb_device
      +                          _cdc.c: 775:         {PIE3bits.USBIE = 1;};
  5391  0031B4  84A3               	bsf	163,2,c	;volatile
  5392                           
  5393                           ;mcc_generated_files/usb/usb_device_cdc.c: 776:         return;
  5394  0031B6  EF09  F019         	goto	i1l597
  5395  0031BA                     i1l5913:
  5396                           
  5397                           ; BSR set to: 1
  5398                           ;mcc_generated_files/usb/usb_device_cdc.c: 783:     len = 0;
  5399  0031BA  0E00               	movlw	0
  5400  0031BC  0100               	movlb	0	; () banked
  5401  0031BE  6F64               	movwf	i1putrsUSBUSART@len& (0+255),b
  5402  0031C0                     
  5403                           ; BSR set to: 0
  5404                           ;mcc_generated_files/usb/usb_device_cdc.c: 784:     pData = data;
  5405  0031C0  C060  F062         	movff	i1putrsUSBUSART@data,i1putrsUSBUSART@pData
  5406  0031C4  C061  F063         	movff	i1putrsUSBUSART@data+1,i1putrsUSBUSART@pData+1
  5407  0031C8                     i1l5917:
  5408                           
  5409                           ; BSR set to: 0
  5410                           ;mcc_generated_files/usb/usb_device_cdc.c: 786:     {;mcc_generated_files/usb/usb_device
      +                          _cdc.c: 787:         len++;
  5411  0031C8  2B64               	incf	i1putrsUSBUSART@len& (0+255),f,b
  5412  0031CA                     
  5413                           ; BSR set to: 0
  5414                           ;mcc_generated_files/usb/usb_device_cdc.c: 788:         if(len == 255) break;
  5415  0031CA  2964               	incf	i1putrsUSBUSART@len& (0+255),w,b
  5416  0031CC  A4D8               	btfss	status,2,c
  5417  0031CE  EFEB  F018         	goto	i1u509_21
  5418  0031D2  EFED  F018         	goto	i1u509_20
  5419  0031D6                     i1u509_21:
  5420  0031D6  EFEF  F018         	goto	i1l5923
  5421  0031DA                     i1u509_20:
  5422  0031DA  EFFD  F018         	goto	i1l5925
  5423  0031DE                     i1l5923:
  5424                           
  5425                           ; BSR set to: 0
  5426                           ;mcc_generated_files/usb/usb_device_cdc.c: 789:     }while(*pData++);
  5427  0031DE  C062  FFD9         	movff	i1putrsUSBUSART@pData,fsr2l
  5428  0031E2  C063  FFDA         	movff	i1putrsUSBUSART@pData+1,fsr2h
  5429  0031E6  4B62               	infsnz	i1putrsUSBUSART@pData& (0+255),f,b
  5430  0031E8  2B63               	incf	(i1putrsUSBUSART@pData+1)& (0+255),f,b
  5431  0031EA  50DF               	movf	indf2,w,c
  5432  0031EC  A4D8               	btfss	status,2,c
  5433  0031EE  EFFB  F018         	goto	i1u510_21
  5434  0031F2  EFFD  F018         	goto	i1u510_20
  5435  0031F6                     i1u510_21:
  5436  0031F6  EFE4  F018         	goto	i1l5917
  5437  0031FA                     i1u510_20:
  5438  0031FA                     i1l5925:
  5439                           
  5440                           ; BSR set to: 0
  5441                           ;mcc_generated_files/usb/usb_device_cdc.c: 798:     { pCDCSrc.bRom = (const uint8_t*)dat
      +                          a; cdc_tx_len = len; cdc_mem_type = 0x00; cdc_trf_state = 1; };
  5442  0031FA  C060  F0D7         	movff	i1putrsUSBUSART@data,_pCDCSrc
  5443  0031FE  C061  F0D8         	movff	i1putrsUSBUSART@data+1,_pCDCSrc+1
  5444  003202                     
  5445                           ; BSR set to: 0
  5446  003202  C064  F0E7         	movff	i1putrsUSBUSART@len,_cdc_tx_len
  5447  003206                     
  5448                           ; BSR set to: 0
  5449  003206  0E00               	movlw	0
  5450  003208  6FE6               	movwf	_cdc_mem_type& (0+255),b
  5451  00320A                     
  5452                           ; BSR set to: 0
  5453  00320A  0E01               	movlw	1
  5454  00320C  0101               	movlb	1	; () banked
  5455  00320E  6F06               	movwf	_cdc_trf_state& (0+255),b
  5456  003210                     
  5457                           ; BSR set to: 1
  5458                           ;mcc_generated_files/usb/usb_device_cdc.c: 799:     {PIE3bits.USBIE = 1;};
  5459  003210  84A3               	bsf	163,2,c	;volatile
  5460  003212                     i1l597:
  5461                           
  5462                           ; BSR set to: 1
  5463  003212  0012               	return		;funcret
  5464  003214                     __end_ofi1_putrsUSBUSART:
  5465                           	opt callstack 0
  5466                           
  5467 ;; *************** function i1_CDCTxService *****************
  5468 ;; Defined at:
  5469 ;;		line 854 in file "mcc_generated_files/usb/usb_device_cdc.c"
  5470 ;; Parameters:    Size  Location     Type
  5471 ;;		None
  5472 ;; Auto vars:     Size  Location     Type
  5473 ;;  CDCTxService    1   12[BANK0 ] unsigned char 
  5474 ;;  CDCTxService    1   11[BANK0 ] unsigned char 
  5475 ;; Return value:  Size  Location     Type
  5476 ;;                  1    wreg      void 
  5477 ;; Registers used:
  5478 ;;		wreg, fsr1l, fsr1h, fsr2l, fsr2h, status,2, status,0, prodl, prodh, cstack
  5479 ;; Tracked objects:
  5480 ;;		On entry : 0/0
  5481 ;;		On exit  : 0/0
  5482 ;;		Unchanged: 0/0
  5483 ;; Data sizes:     COMRAM   BANK0   BANK1   BANK2   BANK3   BANK4   BANK5   BANK6   BANK7
  5484 ;;      Params:         0       0       0       0       0       0       0       0       0
  5485 ;;      Locals:         0       2       0       0       0       0       0       0       0
  5486 ;;      Temps:          0       0       0       0       0       0       0       0       0
  5487 ;;      Totals:         0       2       0       0       0       0       0       0       0
  5488 ;;Total ram usage:        2 bytes
  5489 ;; Hardware stack levels used:    1
  5490 ;; Hardware stack levels required when called:   11
  5491 ;; This function calls:
  5492 ;;		i1_USBTransferOnePacket
  5493 ;; This function is called by:
  5494 ;;		_ISR
  5495 ;; This function uses a non-reentrant model
  5496 ;;
  5497                           
  5498                           	psect	text33
  5499  000FF4                     __ptext33:
  5500                           	opt callstack 0
  5501  000FF4                     i1_CDCTxService:
  5502                           	opt callstack 9
  5503  000FF4                     
  5504                           ;mcc_generated_files/usb/usb_device_cdc.c: 856:     uint8_t byte_to_send;;mcc_generated_
      +                          files/usb/usb_device_cdc.c: 857:     uint8_t i;;mcc_generated_files/usb/usb_device_cdc.c
      +                          : 859:     {PIE3bits.USBIE = 0;};
  5505  000FF4  94A3               	bcf	163,2,c	;volatile
  5506  000FF6                     
  5507                           ;mcc_generated_files/usb/usb_device_cdc.c: 861:     {};;mcc_generated_files/usb/usb_devi
      +                          ce_cdc.c: 863:     if(((CDCDataInHandle != 0x0000) && ((*(volatile uint8_t*)CDCDataInHan
      +                          dle & 0x80) != 0x00)))
  5508  000FF6  0100               	movlb	0	; () banked
  5509  000FF8  51E2               	movf	_CDCDataInHandle& (0+255),w,b
  5510  000FFA  11E3               	iorwf	(_CDCDataInHandle+1)& (0+255),w,b
  5511  000FFC  B4D8               	btfsc	status,2,c
  5512  000FFE  EF03  F008         	goto	i1u511_21
  5513  001002  EF05  F008         	goto	i1u511_20
  5514  001006                     i1u511_21:
  5515  001006  EF13  F008         	goto	i1l5943
  5516  00100A                     i1u511_20:
  5517  00100A                     
  5518                           ; BSR set to: 0
  5519  00100A  C0E2  FFD9         	movff	_CDCDataInHandle,fsr2l
  5520  00100E  C0E3  FFDA         	movff	_CDCDataInHandle+1,fsr2h
  5521  001012  AEDF               	btfss	indf2,7,c
  5522  001014  EF0E  F008         	goto	i1u512_21
  5523  001018  EF10  F008         	goto	i1u512_20
  5524  00101C                     i1u512_21:
  5525  00101C  EF13  F008         	goto	i1l5943
  5526  001020                     i1u512_20:
  5527  001020                     
  5528                           ; BSR set to: 0
  5529                           ;mcc_generated_files/usb/usb_device_cdc.c: 864:     {;mcc_generated_files/usb/usb_device
      +                          _cdc.c: 865:         {PIE3bits.USBIE = 1;};
  5530  001020  84A3               	bsf	163,2,c	;volatile
  5531                           
  5532                           ;mcc_generated_files/usb/usb_device_cdc.c: 866:         return;
  5533  001022  EFCC  F008         	goto	i1l604
  5534  001026                     i1l5943:
  5535                           
  5536                           ; BSR set to: 0
  5537                           ;mcc_generated_files/usb/usb_device_cdc.c: 874:     if(cdc_trf_state == 3)
  5538  001026  0E03               	movlw	3
  5539  001028  0101               	movlb	1	; () banked
  5540  00102A  1906               	xorwf	_cdc_trf_state& (0+255),w,b
  5541  00102C  A4D8               	btfss	status,2,c
  5542  00102E  EF1B  F008         	goto	i1u513_21
  5543  001032  EF1D  F008         	goto	i1u513_20
  5544  001036                     i1u513_21:
  5545  001036  EF1F  F008         	goto	i1l605
  5546  00103A                     i1u513_20:
  5547  00103A                     
  5548                           ; BSR set to: 1
  5549                           ;mcc_generated_files/usb/usb_device_cdc.c: 875:         cdc_trf_state = 0;
  5550  00103A  0E00               	movlw	0
  5551  00103C  6F06               	movwf	_cdc_trf_state& (0+255),b
  5552  00103E                     i1l605:
  5553                           
  5554                           ; BSR set to: 1
  5555                           ;mcc_generated_files/usb/usb_device_cdc.c: 880:     if(cdc_trf_state == 0)
  5556  00103E  5106               	movf	_cdc_trf_state& (0+255),w,b
  5557  001040  A4D8               	btfss	status,2,c
  5558  001042  EF25  F008         	goto	i1u514_21
  5559  001046  EF27  F008         	goto	i1u514_20
  5560  00104A                     i1u514_21:
  5561  00104A  EF2A  F008         	goto	i1l5949
  5562  00104E                     i1u514_20:
  5563  00104E                     
  5564                           ; BSR set to: 1
  5565                           ;mcc_generated_files/usb/usb_device_cdc.c: 881:     {;mcc_generated_files/usb/usb_device
      +                          _cdc.c: 882:         {PIE3bits.USBIE = 1;};
  5566  00104E  84A3               	bsf	163,2,c	;volatile
  5567                           
  5568                           ;mcc_generated_files/usb/usb_device_cdc.c: 883:         return;
  5569  001050  EFCC  F008         	goto	i1l604
  5570  001054                     i1l5949:
  5571                           
  5572                           ; BSR set to: 1
  5573                           ;mcc_generated_files/usb/usb_device_cdc.c: 889:     if(cdc_trf_state == 2)
  5574  001054  0E02               	movlw	2
  5575  001056  1906               	xorwf	_cdc_trf_state& (0+255),w,b
  5576  001058  A4D8               	btfss	status,2,c
  5577  00105A  EF31  F008         	goto	i1u515_21
  5578  00105E  EF33  F008         	goto	i1u515_20
  5579  001062                     i1u515_21:
  5580  001062  EF48  F008         	goto	i1l5955
  5581  001066                     i1u515_20:
  5582  001066                     
  5583                           ; BSR set to: 1
  5584                           ;mcc_generated_files/usb/usb_device_cdc.c: 890:     {;mcc_generated_files/usb/usb_device
      +                          _cdc.c: 891:         CDCDataInHandle = USBTransferOnePacket(2,1,((void*)0),0);
  5585  001066  0E01               	movlw	1
  5586  001068  0100               	movlb	0	; () banked
  5587  00106A  6F60               	movwf	i1USBTransferOnePacket@dir& (0+255),b
  5588  00106C  0E00               	movlw	0
  5589  00106E  6F61               	movwf	i1USBTransferOnePacket@data& (0+255),b
  5590  001070  0E00               	movlw	0
  5591  001072  6F62               	movwf	(i1USBTransferOnePacket@data+1)& (0+255),b
  5592  001074  0E00               	movlw	0
  5593  001076  6F63               	movwf	i1USBTransferOnePacket@len& (0+255),b
  5594  001078  0E02               	movlw	2
  5595  00107A  ECF5  F00E         	call	i1_USBTransferOnePacket
  5596  00107E  C060  F0E2         	movff	?i1_USBTransferOnePacket,_CDCDataInHandle
  5597  001082  C061  F0E3         	movff	?i1_USBTransferOnePacket+1,_CDCDataInHandle+1
  5598  001086                     
  5599                           ;mcc_generated_files/usb/usb_device_cdc.c: 893:         cdc_trf_state = 3;
  5600  001086  0E03               	movlw	3
  5601  001088  0101               	movlb	1	; () banked
  5602  00108A  6F06               	movwf	_cdc_trf_state& (0+255),b
  5603                           
  5604                           ;mcc_generated_files/usb/usb_device_cdc.c: 894:     }
  5605  00108C  EFCB  F008         	goto	i1l5999
  5606  001090                     i1l5955:
  5607                           
  5608                           ; BSR set to: 1
  5609  001090  0506               	decf	_cdc_trf_state& (0+255),w,b
  5610  001092  A4D8               	btfss	status,2,c
  5611  001094  EF4E  F008         	goto	i1u516_21
  5612  001098  EF50  F008         	goto	i1u516_20
  5613  00109C                     i1u516_21:
  5614  00109C  EFCB  F008         	goto	i1l5999
  5615  0010A0                     i1u516_20:
  5616  0010A0                     
  5617                           ; BSR set to: 1
  5618                           ;mcc_generated_files/usb/usb_device_cdc.c: 896:     {;mcc_generated_files/usb/usb_device
      +                          _cdc.c: 900:      if(cdc_tx_len > sizeof(cdc_data_tx))
  5619  0010A0  0E40               	movlw	64
  5620  0010A2  0100               	movlb	0	; () banked
  5621  0010A4  65E7               	cpfsgt	_cdc_tx_len& (0+255),b
  5622  0010A6  EF57  F008         	goto	i1u517_21
  5623  0010AA  EF59  F008         	goto	i1u517_20
  5624  0010AE                     i1u517_21:
  5625  0010AE  EF5D  F008         	goto	i1l610
  5626  0010B2                     i1u517_20:
  5627  0010B2                     
  5628                           ; BSR set to: 0
  5629                           ;mcc_generated_files/usb/usb_device_cdc.c: 901:          byte_to_send = sizeof(cdc_data_
      +                          tx);
  5630  0010B2  0E40               	movlw	64
  5631  0010B4  6F6C               	movwf	i1CDCTxService@byte_to_send& (0+255),b
  5632  0010B6  EF5F  F008         	goto	i1l5961
  5633  0010BA                     i1l610:
  5634                           
  5635                           ; BSR set to: 0
  5636                           ;mcc_generated_files/usb/usb_device_cdc.c: 903:          byte_to_send = cdc_tx_len;
  5637  0010BA  C0E7  F06C         	movff	_cdc_tx_len,i1CDCTxService@byte_to_send
  5638  0010BE                     i1l5961:
  5639                           
  5640                           ; BSR set to: 0
  5641                           ;mcc_generated_files/usb/usb_device_cdc.c: 908:      cdc_tx_len = cdc_tx_len - byte_to_s
      +                          end;
  5642  0010BE  516C               	movf	i1CDCTxService@byte_to_send& (0+255),w,b
  5643  0010C0  5DE7               	subwf	_cdc_tx_len& (0+255),w,b
  5644  0010C2  6FE7               	movwf	_cdc_tx_len& (0+255),b
  5645                           
  5646                           ;mcc_generated_files/usb/usb_device_cdc.c: 910:         pCDCDst.bRam = (uint8_t*)&cdc_da
      +                          ta_tx;
  5647  0010C4  0E00               	movlw	0
  5648  0010C6  6FD4               	movwf	_pCDCDst& (0+255),b
  5649  0010C8  0E05               	movlw	5
  5650  0010CA  6FD5               	movwf	(_pCDCDst+1)& (0+255),b
  5651  0010CC                     
  5652                           ; BSR set to: 0
  5653                           ;mcc_generated_files/usb/usb_device_cdc.c: 912:         i = byte_to_send;
  5654  0010CC  C06C  F06B         	movff	i1CDCTxService@byte_to_send,i1CDCTxService@i
  5655  0010D0                     
  5656                           ; BSR set to: 0
  5657                           ;mcc_generated_files/usb/usb_device_cdc.c: 913:         if(cdc_mem_type == 0x00)
  5658  0010D0  51E6               	movf	_cdc_mem_type& (0+255),w,b
  5659  0010D2  A4D8               	btfss	status,2,c
  5660  0010D4  EF6E  F008         	goto	i1u518_21
  5661  0010D8  EF70  F008         	goto	i1u518_20
  5662  0010DC                     i1u518_21:
  5663  0010DC  EF9A  F008         	goto	i1l5987
  5664  0010E0                     i1u518_20:
  5665  0010E0  EF81  F008         	goto	i1l5977
  5666  0010E4                     i1l5969:
  5667                           
  5668                           ; BSR set to: 0
  5669                           ;mcc_generated_files/usb/usb_device_cdc.c: 916:             {;mcc_generated_files/usb/us
      +                          b_device_cdc.c: 917:                 *pCDCDst.bRam = *pCDCSrc.bRom;
  5670  0010E4  C0D7  FFD9         	movff	_pCDCSrc,fsr2l
  5671  0010E8  C0D8  FFDA         	movff	_pCDCSrc+1,fsr2h
  5672  0010EC  C0D4  FFE1         	movff	_pCDCDst,fsr1l
  5673  0010F0  C0D5  FFE2         	movff	_pCDCDst+1,fsr1h
  5674  0010F4  CFDF FFE7          	movff	indf2,indf1
  5675  0010F8                     
  5676                           ; BSR set to: 0
  5677                           ;mcc_generated_files/usb/usb_device_cdc.c: 918:                 pCDCDst.bRam++;
  5678  0010F8  4BD4               	infsnz	_pCDCDst& (0+255),f,b
  5679  0010FA  2BD5               	incf	(_pCDCDst+1)& (0+255),f,b
  5680  0010FC                     
  5681                           ; BSR set to: 0
  5682                           ;mcc_generated_files/usb/usb_device_cdc.c: 919:                 pCDCSrc.bRom++;
  5683  0010FC  4BD7               	infsnz	_pCDCSrc& (0+255),f,b
  5684  0010FE  2BD8               	incf	(_pCDCSrc+1)& (0+255),f,b
  5685  001100                     
  5686                           ; BSR set to: 0
  5687                           ;mcc_generated_files/usb/usb_device_cdc.c: 920:                 i--;
  5688  001100  076B               	decf	i1CDCTxService@i& (0+255),f,b
  5689  001102                     i1l5977:
  5690                           
  5691                           ; BSR set to: 0
  5692                           ;mcc_generated_files/usb/usb_device_cdc.c: 915:             while(i)
  5693  001102  516B               	movf	i1CDCTxService@i& (0+255),w,b
  5694  001104  A4D8               	btfss	status,2,c
  5695  001106  EF87  F008         	goto	i1u519_21
  5696  00110A  EF89  F008         	goto	i1u519_20
  5697  00110E                     i1u519_21:
  5698  00110E  EF72  F008         	goto	i1l5969
  5699  001112                     i1u519_20:
  5700  001112  EFA2  F008         	goto	i1l5989
  5701  001116                     i1l5979:
  5702                           
  5703                           ; BSR set to: 0
  5704                           ;mcc_generated_files/usb/usb_device_cdc.c: 926:             {;mcc_generated_files/usb/us
      +                          b_device_cdc.c: 927:                 *pCDCDst.bRam = *pCDCSrc.bRam;
  5705  001116  C0D7  FFD9         	movff	_pCDCSrc,fsr2l
  5706  00111A  C0D8  FFDA         	movff	_pCDCSrc+1,fsr2h
  5707  00111E  C0D4  FFE1         	movff	_pCDCDst,fsr1l
  5708  001122  C0D5  FFE2         	movff	_pCDCDst+1,fsr1h
  5709  001126  CFDF FFE7          	movff	indf2,indf1
  5710  00112A                     
  5711                           ; BSR set to: 0
  5712                           ;mcc_generated_files/usb/usb_device_cdc.c: 928:                 pCDCDst.bRam++;
  5713  00112A  4BD4               	infsnz	_pCDCDst& (0+255),f,b
  5714  00112C  2BD5               	incf	(_pCDCDst+1)& (0+255),f,b
  5715  00112E                     
  5716                           ; BSR set to: 0
  5717                           ;mcc_generated_files/usb/usb_device_cdc.c: 929:                 pCDCSrc.bRam++;
  5718  00112E  4BD7               	infsnz	_pCDCSrc& (0+255),f,b
  5719  001130  2BD8               	incf	(_pCDCSrc+1)& (0+255),f,b
  5720  001132                     
  5721                           ; BSR set to: 0
  5722                           ;mcc_generated_files/usb/usb_device_cdc.c: 930:                 i--;
  5723  001132  076B               	decf	i1CDCTxService@i& (0+255),f,b
  5724  001134                     i1l5987:
  5725                           
  5726                           ; BSR set to: 0
  5727                           ;mcc_generated_files/usb/usb_device_cdc.c: 925:             while(i)
  5728  001134  516B               	movf	i1CDCTxService@i& (0+255),w,b
  5729  001136  A4D8               	btfss	status,2,c
  5730  001138  EFA0  F008         	goto	i1u520_21
  5731  00113C  EFA2  F008         	goto	i1u520_20
  5732  001140                     i1u520_21:
  5733  001140  EF8B  F008         	goto	i1l5979
  5734  001144                     i1u520_20:
  5735  001144                     i1l5989:
  5736                           
  5737                           ; BSR set to: 0
  5738                           ;mcc_generated_files/usb/usb_device_cdc.c: 938:         if(cdc_tx_len == 0)
  5739  001144  51E7               	movf	_cdc_tx_len& (0+255),w,b
  5740  001146  A4D8               	btfss	status,2,c
  5741  001148  EFA8  F008         	goto	i1u521_21
  5742  00114C  EFAA  F008         	goto	i1u521_20
  5743  001150                     i1u521_21:
  5744  001150  EFBB  F008         	goto	i1l5997
  5745  001154                     i1u521_20:
  5746  001154                     
  5747                           ; BSR set to: 0
  5748                           ;mcc_generated_files/usb/usb_device_cdc.c: 939:         {;mcc_generated_files/usb/usb_de
      +                          vice_cdc.c: 940:             if(byte_to_send == 64)
  5749  001154  0E40               	movlw	64
  5750  001156  196C               	xorwf	i1CDCTxService@byte_to_send& (0+255),w,b
  5751  001158  A4D8               	btfss	status,2,c
  5752  00115A  EFB1  F008         	goto	i1u522_21
  5753  00115E  EFB3  F008         	goto	i1u522_20
  5754  001162                     i1u522_21:
  5755  001162  EFB8  F008         	goto	i1l5995
  5756  001166                     i1u522_20:
  5757  001166                     
  5758                           ; BSR set to: 0
  5759                           ;mcc_generated_files/usb/usb_device_cdc.c: 941:                 cdc_trf_state = 2;
  5760  001166  0E02               	movlw	2
  5761  001168  0101               	movlb	1	; () banked
  5762  00116A  6F06               	movwf	_cdc_trf_state& (0+255),b
  5763  00116C  EFBB  F008         	goto	i1l5997
  5764  001170                     i1l5995:
  5765                           
  5766                           ; BSR set to: 0
  5767                           ;mcc_generated_files/usb/usb_device_cdc.c: 943:                 cdc_trf_state = 3;
  5768  001170  0E03               	movlw	3
  5769  001172  0101               	movlb	1	; () banked
  5770  001174  6F06               	movwf	_cdc_trf_state& (0+255),b
  5771  001176                     i1l5997:
  5772                           
  5773                           ;mcc_generated_files/usb/usb_device_cdc.c: 945:         CDCDataInHandle = USBTransferOne
      +                          Packet(2,1,(uint8_t*)&cdc_data_tx,byte_to_send);
  5774  001176  0E01               	movlw	1
  5775  001178  0100               	movlb	0	; () banked
  5776  00117A  6F60               	movwf	i1USBTransferOnePacket@dir& (0+255),b
  5777  00117C  0E00               	movlw	0
  5778  00117E  6F61               	movwf	i1USBTransferOnePacket@data& (0+255),b
  5779  001180  0E05               	movlw	5
  5780  001182  6F62               	movwf	(i1USBTransferOnePacket@data+1)& (0+255),b
  5781  001184  C06C  F063         	movff	i1CDCTxService@byte_to_send,i1USBTransferOnePacket@len
  5782  001188  0E02               	movlw	2
  5783  00118A  ECF5  F00E         	call	i1_USBTransferOnePacket
  5784  00118E  C060  F0E2         	movff	?i1_USBTransferOnePacket,_CDCDataInHandle
  5785  001192  C061  F0E3         	movff	?i1_USBTransferOnePacket+1,_CDCDataInHandle+1
  5786  001196                     i1l5999:
  5787                           
  5788                           ;mcc_generated_files/usb/usb_device_cdc.c: 949:     {PIE3bits.USBIE = 1;};
  5789  001196  84A3               	bsf	163,2,c	;volatile
  5790  001198                     i1l604:
  5791  001198  0012               	return		;funcret
  5792  00119A                     __end_ofi1_CDCTxService:
  5793                           	opt callstack 0
  5794                           
  5795 ;; *************** function i1_USBTransferOnePacket *****************
  5796 ;; Defined at:
  5797 ;;		line 999 in file "mcc_generated_files/usb/usb_device.c"
  5798 ;; Parameters:    Size  Location     Type
  5799 ;;  ep              1    wreg     unsigned char 
  5800 ;;  dir             1    0[BANK0 ] unsigned char 
  5801 ;;  data            2    1[BANK0 ] PTR unsigned char 
  5802 ;;		 -> cdc_data_tx(64), cdc_data_rx(64), NULL(0), 
  5803 ;;  len             1    3[BANK0 ] unsigned char 
  5804 ;; Auto vars:     Size  Location     Type
  5805 ;;  ep              1    8[BANK0 ] unsigned char 
  5806 ;;  USBTransferO    2    9[BANK0 ] PTR volatile struct __BD
  5807 ;;		 -> RAM(2047), NULL(0), BDT(48), 
  5808 ;; Return value:  Size  Location     Type
  5809 ;;                  2    0[BANK0 ] PTR void 
  5810 ;; Registers used:
  5811 ;;		wreg, fsr2l, fsr2h, status,2, status,0, prodl, prodh
  5812 ;; Tracked objects:
  5813 ;;		On entry : 0/0
  5814 ;;		On exit  : 0/0
  5815 ;;		Unchanged: 0/0
  5816 ;; Data sizes:     COMRAM   BANK0   BANK1   BANK2   BANK3   BANK4   BANK5   BANK6   BANK7
  5817 ;;      Params:         0       4       0       0       0       0       0       0       0
  5818 ;;      Locals:         0       3       0       0       0       0       0       0       0
  5819 ;;      Temps:          0       4       0       0       0       0       0       0       0
  5820 ;;      Totals:         0      11       0       0       0       0       0       0       0
  5821 ;;Total ram usage:       11 bytes
  5822 ;; Hardware stack levels used:    1
  5823 ;; Hardware stack levels required when called:   10
  5824 ;; This function calls:
  5825 ;;		Nothing
  5826 ;; This function is called by:
  5827 ;;		i1_CDCTxService
  5828 ;; This function uses a non-reentrant model
  5829 ;;
  5830                           
  5831                           	psect	text34
  5832  001DEA                     __ptext34:
  5833                           	opt callstack 0
  5834  001DEA                     i1_USBTransferOnePacket:
  5835                           	opt callstack 9
  5836                           
  5837                           ;incstack = 0
  5838                           ;i1USBTransferOnePacket@ep stored from wreg
  5839  001DEA  0100               	movlb	0	; () banked
  5840  001DEC  6F68               	movwf	i1USBTransferOnePacket@ep& (0+255),b
  5841  001DEE                     
  5842                           ;mcc_generated_files/usb/usb_device.c: 999: void* USBTransferOnePacket(uint8_t ep,uint8_
      +                          t dir,uint8_t* data,uint8_t len);mcc_generated_files/usb/usb_device.c: 1000: {;mcc_gener
      +                          ated_files/usb/usb_device.c: 1001:     volatile BDT_ENTRY* handle;;mcc_generated_files/u
      +                          sb/usb_device.c: 1004:     if(dir != 0)
  5843  001DEE  0100               	movlb	0	; () banked
  5844  001DF0  5160               	movf	i1USBTransferOnePacket@dir& (0+255),w,b
  5845  001DF2  B4D8               	btfsc	status,2,c
  5846  001DF4  EFFE  F00E         	goto	i1u500_21
  5847  001DF8  EF00  F00F         	goto	i1u500_20
  5848  001DFC                     i1u500_21:
  5849  001DFC  EF0E  F00F         	goto	i1l5845
  5850  001E00                     i1u500_20:
  5851  001E00                     
  5852                           ; BSR set to: 0
  5853                           ;mcc_generated_files/usb/usb_device.c: 1005:     {;mcc_generated_files/usb/usb_device.c:
      +                           1007:         handle = pBDTEntryIn[ep];
  5854  001E00  5168               	movf	i1USBTransferOnePacket@ep& (0+255),w,b
  5855  001E02  0D02               	mullw	2
  5856  001E04  0EC8               	movlw	low _pBDTEntryIn
  5857  001E06  24F3               	addwf	243,w,c
  5858  001E08  6ED9               	movwf	fsr2l,c
  5859  001E0A  0E00               	movlw	high _pBDTEntryIn
  5860  001E0C  20F4               	addwfc	prodh,w,c
  5861  001E0E  6EDA               	movwf	fsr2h,c
  5862  001E10  CFDE F069          	movff	postinc2,i1USBTransferOnePacket@handle
  5863  001E14  CFDD F06A          	movff	postdec2,i1USBTransferOnePacket@handle+1
  5864                           
  5865                           ;mcc_generated_files/usb/usb_device.c: 1008:     }
  5866  001E18  EF1A  F00F         	goto	i1l5847
  5867  001E1C                     i1l5845:
  5868                           
  5869                           ; BSR set to: 0
  5870                           ;mcc_generated_files/usb/usb_device.c: 1010:     {;mcc_generated_files/usb/usb_device.c:
      +                           1012:         handle = pBDTEntryOut[ep];
  5871  001E1C  5168               	movf	i1USBTransferOnePacket@ep& (0+255),w,b
  5872  001E1E  0D02               	mullw	2
  5873  001E20  0ECE               	movlw	low _pBDTEntryOut
  5874  001E22  24F3               	addwf	243,w,c
  5875  001E24  6ED9               	movwf	fsr2l,c
  5876  001E26  0E00               	movlw	high _pBDTEntryOut
  5877  001E28  20F4               	addwfc	prodh,w,c
  5878  001E2A  6EDA               	movwf	fsr2h,c
  5879  001E2C  CFDE F069          	movff	postinc2,i1USBTransferOnePacket@handle
  5880  001E30  CFDD F06A          	movff	postdec2,i1USBTransferOnePacket@handle+1
  5881  001E34                     i1l5847:
  5882                           
  5883                           ; BSR set to: 0
  5884                           ;mcc_generated_files/usb/usb_device.c: 1017:     if(handle == 0)
  5885  001E34  5169               	movf	i1USBTransferOnePacket@handle& (0+255),w,b
  5886  001E36  116A               	iorwf	(i1USBTransferOnePacket@handle+1)& (0+255),w,b
  5887  001E38  A4D8               	btfss	status,2,c
  5888  001E3A  EF21  F00F         	goto	i1u501_21
  5889  001E3E  EF23  F00F         	goto	i1u501_20
  5890  001E42                     i1u501_21:
  5891  001E42  EF29  F00F         	goto	i1l5853
  5892  001E46                     i1u501_20:
  5893  001E46                     
  5894                           ; BSR set to: 0
  5895                           ;mcc_generated_files/usb/usb_device.c: 1018:     {;mcc_generated_files/usb/usb_device.c:
      +                           1019:         return 0;
  5896  001E46  0E00               	movlw	0
  5897  001E48  6F60               	movwf	?i1_USBTransferOnePacket& (0+255),b
  5898  001E4A  0E00               	movlw	0
  5899  001E4C  6F61               	movwf	(?i1_USBTransferOnePacket+1)& (0+255),b
  5900  001E4E  EF95  F00F         	goto	i1l219
  5901  001E52                     i1l5853:
  5902                           
  5903                           ; BSR set to: 0
  5904                           ;mcc_generated_files/usb/usb_device.c: 1033:     handle->ADR = ((uint16_t)(data));
  5905  001E52  EE20 F002          	lfsr	2,2
  5906  001E56  5169               	movf	i1USBTransferOnePacket@handle& (0+255),w,b
  5907  001E58  26D9               	addwf	fsr2l,f,c
  5908  001E5A  516A               	movf	(i1USBTransferOnePacket@handle+1)& (0+255),w,b
  5909  001E5C  22DA               	addwfc	fsr2h,f,c
  5910  001E5E  C061  FFDE         	movff	i1USBTransferOnePacket@data,postinc2
  5911  001E62  C062  FFDD         	movff	i1USBTransferOnePacket@data+1,postdec2
  5912                           
  5913                           ;mcc_generated_files/usb/usb_device.c: 1034:     handle->CNT = len;
  5914  001E66  EE20 F001          	lfsr	2,1
  5915  001E6A  5169               	movf	i1USBTransferOnePacket@handle& (0+255),w,b
  5916  001E6C  26D9               	addwf	fsr2l,f,c
  5917  001E6E  516A               	movf	(i1USBTransferOnePacket@handle+1)& (0+255),w,b
  5918  001E70  22DA               	addwfc	fsr2h,f,c
  5919  001E72  C063  FFDF         	movff	i1USBTransferOnePacket@len,indf2
  5920  001E76                     
  5921                           ; BSR set to: 0
  5922                           ;mcc_generated_files/usb/usb_device.c: 1035:     handle->STAT.Val &= 0x40;
  5923  001E76  C069  FFD9         	movff	i1USBTransferOnePacket@handle,fsr2l
  5924  001E7A  C06A  FFDA         	movff	i1USBTransferOnePacket@handle+1,fsr2h
  5925  001E7E  0E40               	movlw	64
  5926  001E80  16DF               	andwf	indf2,f,c
  5927  001E82                     
  5928                           ; BSR set to: 0
  5929                           ;mcc_generated_files/usb/usb_device.c: 1036:     handle->STAT.Val |= (0x08 & 0x08);
  5930  001E82  C069  FFD9         	movff	i1USBTransferOnePacket@handle,fsr2l
  5931  001E86  C06A  FFDA         	movff	i1USBTransferOnePacket@handle+1,fsr2h
  5932  001E8A  0E00               	movlw	0
  5933  001E8C  86DB               	bsf	plusw2,3,c
  5934  001E8E                     
  5935                           ; BSR set to: 0
  5936                           ;mcc_generated_files/usb/usb_device.c: 1037:     handle->STAT.Val |= 0x80;
  5937  001E8E  C069  FFD9         	movff	i1USBTransferOnePacket@handle,fsr2l
  5938  001E92  C06A  FFDA         	movff	i1USBTransferOnePacket@handle+1,fsr2h
  5939  001E96  0E00               	movlw	0
  5940  001E98  8EDB               	bsf	plusw2,7,c
  5941  001E9A                     
  5942                           ; BSR set to: 0
  5943                           ;mcc_generated_files/usb/usb_device.c: 1040:     if(dir != 0)
  5944  001E9A  5160               	movf	i1USBTransferOnePacket@dir& (0+255),w,b
  5945  001E9C  B4D8               	btfsc	status,2,c
  5946  001E9E  EF53  F00F         	goto	i1u502_21
  5947  001EA2  EF55  F00F         	goto	i1u502_20
  5948  001EA6                     i1u502_21:
  5949  001EA6  EF74  F00F         	goto	i1l5865
  5950  001EAA                     i1u502_20:
  5951  001EAA                     
  5952                           ; BSR set to: 0
  5953                           ;mcc_generated_files/usb/usb_device.c: 1041:     {;mcc_generated_files/usb/usb_device.c:
      +                           1043:         pBDTEntryIn[ep] = (BDT_ENTRY*)(((uint16_t)pBDTEntryIn[ep]) ^ 0x0004);
  5954  001EAA  5168               	movf	i1USBTransferOnePacket@ep& (0+255),w,b
  5955  001EAC  0D02               	mullw	2
  5956  001EAE  0EC8               	movlw	low _pBDTEntryIn
  5957  001EB0  24F3               	addwf	243,w,c
  5958  001EB2  6ED9               	movwf	fsr2l,c
  5959  001EB4  0E00               	movlw	high _pBDTEntryIn
  5960  001EB6  20F4               	addwfc	prodh,w,c
  5961  001EB8  6EDA               	movwf	fsr2h,c
  5962  001EBA  CFDE F064          	movff	postinc2,??i1_USBTransferOnePacket
  5963  001EBE  CFDD F065          	movff	postdec2,??i1_USBTransferOnePacket+1
  5964  001EC2  0E04               	movlw	4
  5965  001EC4  1964               	xorwf	??i1_USBTransferOnePacket& (0+255),w,b
  5966  001EC6  6F66               	movwf	(??i1_USBTransferOnePacket+2)& (0+255),b
  5967  001EC8  5165               	movf	(??i1_USBTransferOnePacket+1)& (0+255),w,b
  5968  001ECA  6F67               	movwf	(??i1_USBTransferOnePacket+3)& (0+255),b
  5969  001ECC  5168               	movf	i1USBTransferOnePacket@ep& (0+255),w,b
  5970  001ECE  0D02               	mullw	2
  5971  001ED0  0EC8               	movlw	low _pBDTEntryIn
  5972  001ED2  24F3               	addwf	243,w,c
  5973  001ED4  6ED9               	movwf	fsr2l,c
  5974  001ED6  0E00               	movlw	high _pBDTEntryIn
  5975  001ED8  20F4               	addwfc	prodh,w,c
  5976  001EDA  6EDA               	movwf	fsr2h,c
  5977  001EDC  C066  FFDE         	movff	??i1_USBTransferOnePacket+2,postinc2
  5978  001EE0  C067  FFDD         	movff	??i1_USBTransferOnePacket+3,postdec2
  5979                           
  5980                           ;mcc_generated_files/usb/usb_device.c: 1044:     }
  5981  001EE4  EF91  F00F         	goto	i1l5867
  5982  001EE8                     i1l5865:
  5983                           
  5984                           ; BSR set to: 0
  5985                           ;mcc_generated_files/usb/usb_device.c: 1046:     {;mcc_generated_files/usb/usb_device.c:
      +                           1048:         pBDTEntryOut[ep] = (BDT_ENTRY*)(((uint16_t)pBDTEntryOut[ep]) ^ 0x0004);
  5986  001EE8  5168               	movf	i1USBTransferOnePacket@ep& (0+255),w,b
  5987  001EEA  0D02               	mullw	2
  5988  001EEC  0ECE               	movlw	low _pBDTEntryOut
  5989  001EEE  24F3               	addwf	243,w,c
  5990  001EF0  6ED9               	movwf	fsr2l,c
  5991  001EF2  0E00               	movlw	high _pBDTEntryOut
  5992  001EF4  20F4               	addwfc	prodh,w,c
  5993  001EF6  6EDA               	movwf	fsr2h,c
  5994  001EF8  CFDE F064          	movff	postinc2,??i1_USBTransferOnePacket
  5995  001EFC  CFDD F065          	movff	postdec2,??i1_USBTransferOnePacket+1
  5996  001F00  0E04               	movlw	4
  5997  001F02  1964               	xorwf	??i1_USBTransferOnePacket& (0+255),w,b
  5998  001F04  6F66               	movwf	(??i1_USBTransferOnePacket+2)& (0+255),b
  5999  001F06  5165               	movf	(??i1_USBTransferOnePacket+1)& (0+255),w,b
  6000  001F08  6F67               	movwf	(??i1_USBTransferOnePacket+3)& (0+255),b
  6001  001F0A  5168               	movf	i1USBTransferOnePacket@ep& (0+255),w,b
  6002  001F0C  0D02               	mullw	2
  6003  001F0E  0ECE               	movlw	low _pBDTEntryOut
  6004  001F10  24F3               	addwf	243,w,c
  6005  001F12  6ED9               	movwf	fsr2l,c
  6006  001F14  0E00               	movlw	high _pBDTEntryOut
  6007  001F16  20F4               	addwfc	prodh,w,c
  6008  001F18  6EDA               	movwf	fsr2h,c
  6009  001F1A  C066  FFDE         	movff	??i1_USBTransferOnePacket+2,postinc2
  6010  001F1E  C067  FFDD         	movff	??i1_USBTransferOnePacket+3,postdec2
  6011  001F22                     i1l5867:
  6012                           
  6013                           ; BSR set to: 0
  6014                           ;mcc_generated_files/usb/usb_device.c: 1050:     return (void*)handle;
  6015  001F22  C069  F060         	movff	i1USBTransferOnePacket@handle,?i1_USBTransferOnePacket
  6016  001F26  C06A  F061         	movff	i1USBTransferOnePacket@handle+1,?i1_USBTransferOnePacket+1
  6017  001F2A                     i1l219:
  6018                           
  6019                           ; BSR set to: 0
  6020  001F2A  0012               	return		;funcret
  6021  001F2C                     __end_ofi1_USBTransferOnePacket:
  6022                           	opt callstack 0
  6023                           
  6024 ;; *************** function _INTERRUPT_InterruptManagerHigh *****************
  6025 ;; Defined at:
  6026 ;;		line 76 in file "mcc_generated_files/interrupt_manager.c"
  6027 ;; Parameters:    Size  Location     Type
  6028 ;;		None
  6029 ;; Auto vars:     Size  Location     Type
  6030 ;;		None
  6031 ;; Return value:  Size  Location     Type
  6032 ;;                  1    wreg      void 
  6033 ;; Registers used:
  6034 ;;		wreg, fsr1l, fsr1h, fsr2l, fsr2h, status,2, status,0, tblptrl, tblptrh, tblptru, prodl, prodh, cstack
  6035 ;; Tracked objects:
  6036 ;;		On entry : 0/0
  6037 ;;		On exit  : 0/0
  6038 ;;		Unchanged: 0/0
  6039 ;; Data sizes:     COMRAM   BANK0   BANK1   BANK2   BANK3   BANK4   BANK5   BANK6   BANK7
  6040 ;;      Params:         0       0       0       0       0       0       0       0       0
  6041 ;;      Locals:         0       0       0       0       0       0       0       0       0
  6042 ;;      Temps:         10       0       0       0       0       0       0       0       0
  6043 ;;      Totals:        10       0       0       0       0       0       0       0       0
  6044 ;;Total ram usage:       10 bytes
  6045 ;; Hardware stack levels used:    1
  6046 ;; Hardware stack levels required when called:    9
  6047 ;; This function calls:
  6048 ;;		_USBDeviceTasks
  6049 ;; This function is called by:
  6050 ;;		Interrupt level 2
  6051 ;; This function uses a non-reentrant model
  6052 ;;
  6053                           
  6054                           	psect	intcode
  6055  000008                     __pintcode:
  6056                           	opt callstack 0
  6057  000008                     _INTERRUPT_InterruptManagerHigh:
  6058                           	opt callstack 3
  6059                           
  6060                           ; BSR set to: 0
  6061                           ;incstack = 0
  6062  000008  8252               	bsf	int$flags,1,c	;set compiler interrupt flag (level 2)
  6063  00000A  EF5B  F018         	goto	int_func
  6064                           
  6065                           	psect	intcode_body
  6066  0030B6                     __pintcode_body:
  6067                           	opt callstack 3
  6068  0030B6                     int_func:
  6069                           	opt callstack 3
  6070  0030B6  CFE1 F020          	movff	fsr1l,??_INTERRUPT_InterruptManagerHigh
  6071  0030BA  CFE2 F021          	movff	fsr1h,??_INTERRUPT_InterruptManagerHigh+1
  6072  0030BE  CFD9 F022          	movff	fsr2l,??_INTERRUPT_InterruptManagerHigh+2
  6073  0030C2  CFDA F023          	movff	fsr2h,??_INTERRUPT_InterruptManagerHigh+3
  6074  0030C6  CFF3 F024          	movff	prodl,??_INTERRUPT_InterruptManagerHigh+4
  6075  0030CA  CFF4 F025          	movff	prodh,??_INTERRUPT_InterruptManagerHigh+5
  6076  0030CE  CFF6 F026          	movff	tblptrl,??_INTERRUPT_InterruptManagerHigh+6
  6077  0030D2  CFF7 F027          	movff	tblptrh,??_INTERRUPT_InterruptManagerHigh+7
  6078  0030D6  CFF8 F028          	movff	tblptru,??_INTERRUPT_InterruptManagerHigh+8
  6079  0030DA  CFF5 F029          	movff	tablat,??_INTERRUPT_InterruptManagerHigh+9
  6080  0030DE                     
  6081                           ;mcc_generated_files/interrupt_manager.c: 79:     if(PIE3bits.USBIE == 1 && PIR3bits.USB
      +                          IF == 1)
  6082  0030DE  A4A3               	btfss	163,2,c	;volatile
  6083  0030E0  EF74  F018         	goto	i2u436_41
  6084  0030E4  EF76  F018         	goto	i2u436_40
  6085  0030E8                     i2u436_41:
  6086  0030E8  EF80  F018         	goto	i2l668
  6087  0030EC                     i2u436_40:
  6088  0030EC  A4A4               	btfss	164,2,c	;volatile
  6089  0030EE  EF7B  F018         	goto	i2u437_41
  6090  0030F2  EF7D  F018         	goto	i2u437_40
  6091  0030F6                     i2u437_41:
  6092  0030F6  EF80  F018         	goto	i2l668
  6093  0030FA                     i2u437_40:
  6094  0030FA                     
  6095                           ;mcc_generated_files/interrupt_manager.c: 80:     {;mcc_generated_files/interrupt_manage
      +                          r.c: 82:         USBDeviceTasks();
  6096  0030FA  EC0B  F006         	call	_USBDeviceTasks	;wreg free
  6097  0030FE                     
  6098                           ;mcc_generated_files/interrupt_manager.c: 83:         USBIF=0;
  6099  0030FE  94A4               	bcf	4004,2,c	;volatile
  6100  003100                     i2l668:
  6101  003100  C029  FFF5         	movff	??_INTERRUPT_InterruptManagerHigh+9,tablat
  6102  003104  C028  FFF8         	movff	??_INTERRUPT_InterruptManagerHigh+8,tblptru
  6103  003108  C027  FFF7         	movff	??_INTERRUPT_InterruptManagerHigh+7,tblptrh
  6104  00310C  C026  FFF6         	movff	??_INTERRUPT_InterruptManagerHigh+6,tblptrl
  6105  003110  C025  FFF4         	movff	??_INTERRUPT_InterruptManagerHigh+5,prodh
  6106  003114  C024  FFF3         	movff	??_INTERRUPT_InterruptManagerHigh+4,prodl
  6107  003118  C023  FFDA         	movff	??_INTERRUPT_InterruptManagerHigh+3,fsr2h
  6108  00311C  C022  FFD9         	movff	??_INTERRUPT_InterruptManagerHigh+2,fsr2l
  6109  003120  C021  FFE2         	movff	??_INTERRUPT_InterruptManagerHigh+1,fsr1h
  6110  003124  C020  FFE1         	movff	??_INTERRUPT_InterruptManagerHigh,fsr1l
  6111  003128  9252               	bcf	int$flags,1,c	;clear compiler interrupt flag (level 2)
  6112  00312A  0011               	retfie		f
  6113  00312C                     __end_of_INTERRUPT_InterruptManagerHigh:
  6114                           	opt callstack 0
  6115                           
  6116 ;; *************** function _USBDeviceTasks *****************
  6117 ;; Defined at:
  6118 ;;		line 481 in file "mcc_generated_files/usb/usb_device.c"
  6119 ;; Parameters:    Size  Location     Type
  6120 ;;		None
  6121 ;; Auto vars:     Size  Location     Type
  6122 ;;  i               1   30[COMRAM] unsigned char 
  6123 ;; Return value:  Size  Location     Type
  6124 ;;                  1    wreg      void 
  6125 ;; Registers used:
  6126 ;;		wreg, fsr1l, fsr1h, fsr2l, fsr2h, status,2, status,0, tblptrl, tblptrh, tblptru, prodl, prodh, cstack
  6127 ;; Tracked objects:
  6128 ;;		On entry : 0/0
  6129 ;;		On exit  : 0/0
  6130 ;;		Unchanged: 0/0
  6131 ;; Data sizes:     COMRAM   BANK0   BANK1   BANK2   BANK3   BANK4   BANK5   BANK6   BANK7
  6132 ;;      Params:         0       0       0       0       0       0       0       0       0
  6133 ;;      Locals:         1       0       0       0       0       0       0       0       0
  6134 ;;      Temps:          0       0       0       0       0       0       0       0       0
  6135 ;;      Totals:         1       0       0       0       0       0       0       0       0
  6136 ;;Total ram usage:        1 bytes
  6137 ;; Hardware stack levels used:    1
  6138 ;; Hardware stack levels required when called:    8
  6139 ;; This function calls:
  6140 ;;		_USBCtrlEPAllowStatusStage
  6141 ;;		_USBCtrlEPService
  6142 ;;		_USBIncrement1msInternalTimers
  6143 ;;		_USBStallHandler
  6144 ;;		_USBSuspend
  6145 ;;		_USBWakeFromSuspend
  6146 ;;		_USER_USB_CALLBACK_EVENT_HANDLER
  6147 ;;		i2_USBDeviceInit
  6148 ;; This function is called by:
  6149 ;;		_INTERRUPT_InterruptManagerHigh
  6150 ;; This function uses a non-reentrant model
  6151 ;;
  6152                           
  6153                           	psect	text36
  6154  000C16                     __ptext36:
  6155                           	opt callstack 0
  6156  000C16                     _USBDeviceTasks:
  6157                           	opt callstack 3
  6158  000C16                     
  6159                           ;mcc_generated_files/usb/usb_device.c: 483:     uint8_t i;;mcc_generated_files/usb/usb_d
      +                          evice.c: 594:     if(USBDeviceState == ATTACHED_STATE)
  6160  000C16  0446               	decf	_USBDeviceState^0,w,c	;volatile
  6161  000C18  A4D8               	btfss	status,2,c
  6162  000C1A  EF11  F006         	goto	i2u380_41
  6163  000C1E  EF13  F006         	goto	i2u380_40
  6164  000C22                     i2u380_41:
  6165  000C22  EF20  F006         	goto	i2l4823
  6166  000C26                     i2u380_40:
  6167  000C26                     
  6168                           ;mcc_generated_files/usb/usb_device.c: 595:     {;mcc_generated_files/usb/usb_device.c: 
      +                          605:         if(!UCONbits.SE0)
  6169  000C26  BA60               	btfsc	96,5,c	;volatile
  6170  000C28  EF18  F006         	goto	i2u381_41
  6171  000C2C  EF1A  F006         	goto	i2u381_40
  6172  000C30                     i2u381_41:
  6173  000C30  EF20  F006         	goto	i2l4823
  6174  000C34                     i2u381_40:
  6175  000C34                     
  6176                           ;mcc_generated_files/usb/usb_device.c: 606:         {;mcc_generated_files/usb/usb_device
      +                          .c: 612:                 {UIR = 0;};
  6177  000C34  0E00               	movlw	0
  6178  000C36  6E65               	movwf	101,c	;volatile
  6179  000C38                     
  6180                           ;mcc_generated_files/usb/usb_device.c: 618:             UIEbits.URSTIE = 1;
  6181  000C38  8064               	bsf	100,0,c	;volatile
  6182  000C3A                     
  6183                           ;mcc_generated_files/usb/usb_device.c: 619:             UIEbits.IDLEIE = 1;
  6184  000C3A  8864               	bsf	100,4,c	;volatile
  6185                           
  6186                           ;mcc_generated_files/usb/usb_device.c: 620:             USBDeviceState = POWERED_STATE;
  6187  000C3C  0E02               	movlw	2
  6188  000C3E  6E46               	movwf	_USBDeviceState^0,c	;volatile
  6189  000C40                     i2l4823:
  6190                           
  6191                           ;mcc_generated_files/usb/usb_device.c: 638:     if(UIRbits.ACTVIF && UIEbits.ACTVIE)
  6192  000C40  A465               	btfss	101,2,c	;volatile
  6193  000C42  EF25  F006         	goto	i2u382_41
  6194  000C46  EF27  F006         	goto	i2u382_40
  6195  000C4A                     i2u382_41:
  6196  000C4A  EF31  F006         	goto	i2l4831
  6197  000C4E                     i2u382_40:
  6198  000C4E  A464               	btfss	100,2,c	;volatile
  6199  000C50  EF2C  F006         	goto	i2u383_41
  6200  000C54  EF2E  F006         	goto	i2u383_40
  6201  000C58                     i2u383_41:
  6202  000C58  EF31  F006         	goto	i2l4831
  6203  000C5C                     i2u383_40:
  6204  000C5C                     
  6205                           ;mcc_generated_files/usb/usb_device.c: 639:     {;mcc_generated_files/usb/usb_device.c: 
      +                          640:         (UIR &= 0xFB);
  6206  000C5C  9465               	bcf	101,2,c	;volatile
  6207  000C5E                     
  6208                           ;mcc_generated_files/usb/usb_device.c: 644:             USBWakeFromSuspend();
  6209  000C5E  EC79  F01B         	call	_USBWakeFromSuspend	;wreg free
  6210  000C62                     i2l4831:
  6211                           
  6212                           ;mcc_generated_files/usb/usb_device.c: 651:     if(UCONbits.SUSPND==1)
  6213  000C62  A260               	btfss	96,1,c	;volatile
  6214  000C64  EF36  F006         	goto	i2u384_41
  6215  000C68  EF38  F006         	goto	i2u384_40
  6216  000C6C                     i2u384_41:
  6217  000C6C  EF3B  F006         	goto	i2l189
  6218  000C70                     i2u384_40:
  6219  000C70                     
  6220                           ;mcc_generated_files/usb/usb_device.c: 652:     {;mcc_generated_files/usb/usb_device.c: 
      +                          653:         PIR3bits.USBIF = 0;;
  6221  000C70  94A4               	bcf	164,2,c	;volatile
  6222                           
  6223                           ;mcc_generated_files/usb/usb_device.c: 654:         return;
  6224  000C72  EF1E  F007         	goto	i2l190
  6225  000C76                     i2l189:
  6226                           
  6227                           ;mcc_generated_files/usb/usb_device.c: 667:     if(UIRbits.URSTIF && UIEbits.URSTIE)
  6228  000C76  A065               	btfss	101,0,c	;volatile
  6229  000C78  EF40  F006         	goto	i2u385_41
  6230  000C7C  EF42  F006         	goto	i2u385_40
  6231  000C80                     i2u385_41:
  6232  000C80  EF4F  F006         	goto	i2l4845
  6233  000C84                     i2u385_40:
  6234  000C84  A064               	btfss	100,0,c	;volatile
  6235  000C86  EF47  F006         	goto	i2u386_41
  6236  000C8A  EF49  F006         	goto	i2u386_40
  6237  000C8E                     i2u386_41:
  6238  000C8E  EF4F  F006         	goto	i2l4845
  6239  000C92                     i2u386_40:
  6240  000C92                     
  6241                           ;mcc_generated_files/usb/usb_device.c: 668:     {;mcc_generated_files/usb/usb_device.c: 
      +                          669:         USBDeviceInit();
  6242  000C92  EC0C  F00D         	call	i2_USBDeviceInit	;wreg free
  6243  000C96                     
  6244                           ;mcc_generated_files/usb/usb_device.c: 673:         {PIE3bits.USBIE = 1;};
  6245  000C96  84A3               	bsf	163,2,c	;volatile
  6246  000C98                     
  6247                           ;mcc_generated_files/usb/usb_device.c: 675:         USBDeviceState = DEFAULT_STATE;
  6248  000C98  0E04               	movlw	4
  6249  000C9A  6E46               	movwf	_USBDeviceState^0,c	;volatile
  6250  000C9C                     
  6251                           ;mcc_generated_files/usb/usb_device.c: 685:         (UIR &= 0xFE);
  6252  000C9C  9065               	bcf	101,0,c	;volatile
  6253  000C9E                     i2l4845:
  6254                           
  6255                           ;mcc_generated_files/usb/usb_device.c: 691:     if(UIRbits.IDLEIF && UIEbits.IDLEIE)
  6256  000C9E  A865               	btfss	101,4,c	;volatile
  6257  000CA0  EF54  F006         	goto	i2u387_41
  6258  000CA4  EF56  F006         	goto	i2u387_40
  6259  000CA8                     i2u387_41:
  6260  000CA8  EF5F  F006         	goto	i2l4851
  6261  000CAC                     i2u387_40:
  6262  000CAC  A864               	btfss	100,4,c	;volatile
  6263  000CAE  EF5B  F006         	goto	i2u388_41
  6264  000CB2  EF5D  F006         	goto	i2u388_40
  6265  000CB6                     i2u388_41:
  6266  000CB6  EF5F  F006         	goto	i2l4851
  6267  000CBA                     i2u388_40:
  6268  000CBA                     
  6269                           ;mcc_generated_files/usb/usb_device.c: 692:     {;mcc_generated_files/usb/usb_device.c: 
      +                          698:             USBSuspend();
  6270  000CBA  EC26  F01C         	call	_USBSuspend	;wreg free
  6271  000CBE                     i2l4851:
  6272                           
  6273                           ;mcc_generated_files/usb/usb_device.c: 712:     if(UIRbits.SOFIF)
  6274  000CBE  AC65               	btfss	101,6,c	;volatile
  6275  000CC0  EF64  F006         	goto	i2u389_41
  6276  000CC4  EF66  F006         	goto	i2u389_40
  6277  000CC8                     i2u389_41:
  6278  000CC8  EF91  F006         	goto	i2l4869
  6279  000CCC                     i2u389_40:
  6280  000CCC                     
  6281                           ;mcc_generated_files/usb/usb_device.c: 713:     {;mcc_generated_files/usb/usb_device.c: 
      +                          715:         if(UIEbits.SOFIE)
  6282  000CCC  AC64               	btfss	100,6,c	;volatile
  6283  000CCE  EF6B  F006         	goto	i2u390_41
  6284  000CD2  EF6D  F006         	goto	i2u390_40
  6285  000CD6                     i2u390_41:
  6286  000CD6  EF7B  F006         	goto	i2l4857
  6287  000CDA                     i2u390_40:
  6288  000CDA                     
  6289                           ;mcc_generated_files/usb/usb_device.c: 716:         {;mcc_generated_files/usb/usb_device
      +                          .c: 717:             USER_USB_CALLBACK_EVENT_HANDLER((USB_EVENT)EVENT_SOF,0,1);
  6290  000CDA  0E00               	movlw	0
  6291  000CDC  6E0E               	movwf	(USER_USB_CALLBACK_EVENT_HANDLER@event+1)^0,c
  6292  000CDE  0E73               	movlw	115
  6293  000CE0  6E0D               	movwf	USER_USB_CALLBACK_EVENT_HANDLER@event^0,c
  6294  000CE2  0E00               	movlw	0
  6295  000CE4  6E0F               	movwf	USER_USB_CALLBACK_EVENT_HANDLER@pdata^0,c
  6296  000CE6  0E00               	movlw	0
  6297  000CE8  6E10               	movwf	(USER_USB_CALLBACK_EVENT_HANDLER@pdata+1)^0,c
  6298  000CEA  0E00               	movlw	0
  6299  000CEC  6E12               	movwf	(USER_USB_CALLBACK_EVENT_HANDLER@size+1)^0,c
  6300  000CEE  0E01               	movlw	1
  6301  000CF0  6E11               	movwf	USER_USB_CALLBACK_EVENT_HANDLER@size^0,c
  6302  000CF2  EC17  F018         	call	_USER_USB_CALLBACK_EVENT_HANDLER	;wreg free
  6303  000CF6                     i2l4857:
  6304                           
  6305                           ;mcc_generated_files/usb/usb_device.c: 719:         (UIR &= 0xBF);
  6306  000CF6  9C65               	bcf	101,6,c	;volatile
  6307  000CF8                     
  6308                           ;mcc_generated_files/usb/usb_device.c: 722:             USBIncrement1msInternalTimers();
  6309  000CF8  ECF3  F01B         	call	_USBIncrement1msInternalTimers	;wreg free
  6310  000CFC                     
  6311                           ;mcc_generated_files/usb/usb_device.c: 739:             if(USBStatusStageTimeoutCounter 
      +                          != 0u)
  6312  000CFC  5040               	movf	_USBStatusStageTimeoutCounter^0,w,c	;volatile
  6313  000CFE  B4D8               	btfsc	status,2,c
  6314  000D00  EF84  F006         	goto	i2u391_41
  6315  000D04  EF86  F006         	goto	i2u391_40
  6316  000D08                     i2u391_41:
  6317  000D08  EF87  F006         	goto	i2l4865
  6318  000D0C                     i2u391_40:
  6319  000D0C                     
  6320                           ;mcc_generated_files/usb/usb_device.c: 740:             {;mcc_generated_files/usb/usb_de
      +                          vice.c: 741:                 USBStatusStageTimeoutCounter--;
  6321  000D0C  0640               	decf	_USBStatusStageTimeoutCounter^0,f,c	;volatile
  6322  000D0E                     i2l4865:
  6323                           
  6324                           ;mcc_generated_files/usb/usb_device.c: 748:             if(USBStatusStageTimeoutCounter 
      +                          == 0)
  6325  000D0E  5040               	movf	_USBStatusStageTimeoutCounter^0,w,c	;volatile
  6326  000D10  A4D8               	btfss	status,2,c
  6327  000D12  EF8D  F006         	goto	i2u392_41
  6328  000D16  EF8F  F006         	goto	i2u392_40
  6329  000D1A                     i2u392_41:
  6330  000D1A  EF91  F006         	goto	i2l4869
  6331  000D1E                     i2u392_40:
  6332  000D1E                     
  6333                           ;mcc_generated_files/usb/usb_device.c: 749:             {;mcc_generated_files/usb/usb_de
      +                          vice.c: 750:                 USBCtrlEPAllowStatusStage();
  6334  000D1E  EC83  F013         	call	_USBCtrlEPAllowStatusStage	;wreg free
  6335  000D22                     i2l4869:
  6336                           
  6337                           ;mcc_generated_files/usb/usb_device.c: 755:     if(UIRbits.STALLIF && UIEbits.STALLIE)
  6338  000D22  AA65               	btfss	101,5,c	;volatile
  6339  000D24  EF96  F006         	goto	i2u393_41
  6340  000D28  EF98  F006         	goto	i2u393_40
  6341  000D2C                     i2u393_41:
  6342  000D2C  EFA1  F006         	goto	i2l4875
  6343  000D30                     i2u393_40:
  6344  000D30  AA64               	btfss	100,5,c	;volatile
  6345  000D32  EF9D  F006         	goto	i2u394_41
  6346  000D36  EF9F  F006         	goto	i2u394_40
  6347  000D3A                     i2u394_41:
  6348  000D3A  EFA1  F006         	goto	i2l4875
  6349  000D3E                     i2u394_40:
  6350  000D3E                     
  6351                           ;mcc_generated_files/usb/usb_device.c: 756:     {;mcc_generated_files/usb/usb_device.c: 
      +                          757:         USBStallHandler();
  6352  000D3E  EC0F  F01A         	call	_USBStallHandler	;wreg free
  6353  000D42                     i2l4875:
  6354                           
  6355                           ;mcc_generated_files/usb/usb_device.c: 760:     if(UIRbits.UERRIF && UIEbits.UERRIE)
  6356  000D42  A265               	btfss	101,1,c	;volatile
  6357  000D44  EFA6  F006         	goto	i2u395_41
  6358  000D48  EFA8  F006         	goto	i2u395_40
  6359  000D4C                     i2u395_41:
  6360  000D4C  EFBE  F006         	goto	i2l4883
  6361  000D50                     i2u395_40:
  6362  000D50  A264               	btfss	100,1,c	;volatile
  6363  000D52  EFAD  F006         	goto	i2u396_41
  6364  000D56  EFAF  F006         	goto	i2u396_40
  6365  000D5A                     i2u396_41:
  6366  000D5A  EFBE  F006         	goto	i2l4883
  6367  000D5E                     i2u396_40:
  6368  000D5E                     
  6369                           ;mcc_generated_files/usb/usb_device.c: 761:     {;mcc_generated_files/usb/usb_device.c: 
      +                          762:         USER_USB_CALLBACK_EVENT_HANDLER((USB_EVENT)EVENT_BUS_ERROR,0,1);
  6370  000D5E  0E7F               	movlw	127
  6371  000D60  6E0E               	movwf	(USER_USB_CALLBACK_EVENT_HANDLER@event+1)^0,c
  6372  000D62  680D               	setf	USER_USB_CALLBACK_EVENT_HANDLER@event^0,c
  6373  000D64  0E00               	movlw	0
  6374  000D66  6E0F               	movwf	USER_USB_CALLBACK_EVENT_HANDLER@pdata^0,c
  6375  000D68  0E00               	movlw	0
  6376  000D6A  6E10               	movwf	(USER_USB_CALLBACK_EVENT_HANDLER@pdata+1)^0,c
  6377  000D6C  0E00               	movlw	0
  6378  000D6E  6E12               	movwf	(USER_USB_CALLBACK_EVENT_HANDLER@size+1)^0,c
  6379  000D70  0E01               	movlw	1
  6380  000D72  6E11               	movwf	USER_USB_CALLBACK_EVENT_HANDLER@size^0,c
  6381  000D74  EC17  F018         	call	_USER_USB_CALLBACK_EVENT_HANDLER	;wreg free
  6382  000D78                     
  6383                           ;mcc_generated_files/usb/usb_device.c: 763:         {UEIR = 0;};
  6384  000D78  0E00               	movlw	0
  6385  000D7A  6E67               	movwf	103,c	;volatile
  6386  000D7C                     i2l4883:
  6387                           
  6388                           ;mcc_generated_files/usb/usb_device.c: 778:     if(USBDeviceState < DEFAULT_STATE)
  6389  000D7C  0E04               	movlw	4
  6390  000D7E  6046               	cpfslt	_USBDeviceState^0,c	;volatile
  6391  000D80  EFC4  F006         	goto	i2u397_41
  6392  000D84  EFC6  F006         	goto	i2u397_40
  6393  000D88                     i2u397_41:
  6394  000D88  EFC9  F006         	goto	i2l199
  6395  000D8C                     i2u397_40:
  6396  000D8C                     
  6397                           ;mcc_generated_files/usb/usb_device.c: 779:     {;mcc_generated_files/usb/usb_device.c: 
      +                          780:         PIR3bits.USBIF = 0;;
  6398  000D8C  94A4               	bcf	164,2,c	;volatile
  6399                           
  6400                           ;mcc_generated_files/usb/usb_device.c: 781:         return;
  6401  000D8E  EF1E  F007         	goto	i2l190
  6402  000D92                     i2l199:
  6403                           
  6404                           ;mcc_generated_files/usb/usb_device.c: 787:     if(UIEbits.TRNIE)
  6405  000D92  A664               	btfss	100,3,c	;volatile
  6406  000D94  EFCE  F006         	goto	i2u398_41
  6407  000D98  EFD0  F006         	goto	i2u398_40
  6408  000D9C                     i2u398_41:
  6409  000D9C  EF1D  F007         	goto	i2l200
  6410  000DA0                     i2u398_40:
  6411  000DA0                     
  6412                           ;mcc_generated_files/usb/usb_device.c: 788:     {;mcc_generated_files/usb/usb_device.c: 
      +                          789:         for(i = 0; i < 4u; i++)
  6413  000DA0  0E00               	movlw	0
  6414  000DA2  6E1F               	movwf	USBDeviceTasks@i^0,c
  6415  000DA4                     i2l201:
  6416                           
  6417                           ;mcc_generated_files/usb/usb_device.c: 790:         {;mcc_generated_files/usb/usb_device
      +                          .c: 791:             if(UIRbits.TRNIF)
  6418  000DA4  A665               	btfss	101,3,c	;volatile
  6419  000DA6  EFD7  F006         	goto	i2u399_41
  6420  000DAA  EFD9  F006         	goto	i2u399_40
  6421  000DAE                     i2u399_41:
  6422  000DAE  EF1D  F007         	goto	i2l200
  6423  000DB2                     i2u399_40:
  6424  000DB2                     
  6425                           ;mcc_generated_files/usb/usb_device.c: 792:             {;mcc_generated_files/usb/usb_de
      +                          vice.c: 794:                 USTATcopy.Val = USTAT;
  6426  000DB2  CF61 F050          	movff	3937,_USTATcopy	;volatile
  6427  000DB6                     
  6428                           ;mcc_generated_files/usb/usb_device.c: 795:                 endpoint_number = USTATcopy.
      +                          endpoint_number;
  6429  000DB6  3050               	rrcf	_USTATcopy^0,w,c	;volatile
  6430  000DB8  32E8               	rrcf	wreg,f,c
  6431  000DBA  32E8               	rrcf	wreg,f,c
  6432  000DBC  0B0F               	andlw	15
  6433  000DBE  6E42               	movwf	_endpoint_number^0,c	;volatile
  6434  000DC0                     
  6435                           ;mcc_generated_files/usb/usb_device.c: 797:                 (UIR &= 0xF7);
  6436  000DC0  9665               	bcf	101,3,c	;volatile
  6437  000DC2                     
  6438                           ;mcc_generated_files/usb/usb_device.c: 802:                 if(USTATcopy.direction == 0)
  6439  000DC2  B450               	btfsc	_USTATcopy^0,2,c	;volatile
  6440  000DC4  EFE6  F006         	goto	i2u400_41
  6441  000DC8  EFE8  F006         	goto	i2u400_40
  6442  000DCC                     i2u400_41:
  6443  000DCC  EFF2  F006         	goto	i2l4903
  6444  000DD0                     i2u400_40:
  6445  000DD0                     
  6446                           ;mcc_generated_files/usb/usb_device.c: 803:                 {;mcc_generated_files/usb/us
      +                          b_device.c: 804:                     ep_data_out[endpoint_number].bits.ping_pong_state ^
      +                          = 1;
  6447  000DD0  0EDA               	movlw	low _ep_data_out
  6448  000DD2  2442               	addwf	_endpoint_number^0,w,c	;volatile
  6449  000DD4  6ED9               	movwf	fsr2l,c
  6450  000DD6  6ADA               	clrf	fsr2h,c
  6451  000DD8  0E00               	movlw	high _ep_data_out
  6452  000DDA  22DA               	addwfc	fsr2h,f,c
  6453  000DDC  0100               	movlb	0	; () banked
  6454  000DDE  70DF               	btg	indf2,0,c
  6455                           
  6456                           ;mcc_generated_files/usb/usb_device.c: 805:                 }
  6457  000DE0  EFFA  F006         	goto	i2l4905
  6458  000DE4                     i2l4903:
  6459                           
  6460                           ;mcc_generated_files/usb/usb_device.c: 807:                 {;mcc_generated_files/usb/us
      +                          b_device.c: 808:                     ep_data_in[endpoint_number].bits.ping_pong_state ^=
      +                           1;
  6461  000DE4  0EDD               	movlw	low _ep_data_in
  6462  000DE6  2442               	addwf	_endpoint_number^0,w,c	;volatile
  6463  000DE8  6ED9               	movwf	fsr2l,c
  6464  000DEA  6ADA               	clrf	fsr2h,c
  6465  000DEC  0E00               	movlw	high _ep_data_in
  6466  000DEE  22DA               	addwfc	fsr2h,f,c
  6467  000DF0  0100               	movlb	0	; () banked
  6468  000DF2  70DF               	btg	indf2,0,c
  6469  000DF4                     i2l4905:
  6470                           
  6471                           ; BSR set to: 0
  6472                           ;mcc_generated_files/usb/usb_device.c: 814:                 if(endpoint_number == 0)
  6473  000DF4  5042               	movf	_endpoint_number^0,w,c	;volatile
  6474  000DF6  A4D8               	btfss	status,2,c
  6475  000DF8  EF00  F007         	goto	i2u401_41
  6476  000DFC  EF02  F007         	goto	i2u401_40
  6477  000E00                     i2u401_41:
  6478  000E00  EF06  F007         	goto	i2l4909
  6479  000E04                     i2u401_40:
  6480  000E04                     
  6481                           ; BSR set to: 0
  6482                           ;mcc_generated_files/usb/usb_device.c: 815:                 {;mcc_generated_files/usb/us
      +                          b_device.c: 816:                     USBCtrlEPService();
  6483  000E04  EC6F  F016         	call	_USBCtrlEPService	;wreg free
  6484                           
  6485                           ;mcc_generated_files/usb/usb_device.c: 817:                 }
  6486  000E08  EF14  F007         	goto	i2l4911
  6487  000E0C                     i2l4909:
  6488                           
  6489                           ; BSR set to: 0
  6490                           ;mcc_generated_files/usb/usb_device.c: 819:                 {;mcc_generated_files/usb/us
      +                          b_device.c: 820:                     USER_USB_CALLBACK_EVENT_HANDLER((USB_EVENT)EVENT_TR
      +                          ANSFER,(uint8_t*)&USTATcopy.Val,0);
  6491  000E0C  0E00               	movlw	0
  6492  000E0E  6E0E               	movwf	(USER_USB_CALLBACK_EVENT_HANDLER@event+1)^0,c
  6493  000E10  0E72               	movlw	114
  6494  000E12  6E0D               	movwf	USER_USB_CALLBACK_EVENT_HANDLER@event^0,c
  6495  000E14  0E50               	movlw	low _USTATcopy
  6496  000E16  6E0F               	movwf	USER_USB_CALLBACK_EVENT_HANDLER@pdata^0,c
  6497  000E18  0E00               	movlw	high _USTATcopy
  6498  000E1A  6E10               	movwf	(USER_USB_CALLBACK_EVENT_HANDLER@pdata+1)^0,c
  6499  000E1C  0E00               	movlw	0
  6500  000E1E  6E12               	movwf	(USER_USB_CALLBACK_EVENT_HANDLER@size+1)^0,c
  6501  000E20  0E00               	movlw	0
  6502  000E22  6E11               	movwf	USER_USB_CALLBACK_EVENT_HANDLER@size^0,c
  6503  000E24  EC17  F018         	call	_USER_USB_CALLBACK_EVENT_HANDLER	;wreg free
  6504  000E28                     i2l4911:
  6505                           
  6506                           ;mcc_generated_files/usb/usb_device.c: 827:         }
  6507  000E28  2A1F               	incf	USBDeviceTasks@i^0,f,c
  6508  000E2A  0E03               	movlw	3
  6509  000E2C  641F               	cpfsgt	USBDeviceTasks@i^0,c
  6510  000E2E  EF1B  F007         	goto	i2u402_41
  6511  000E32  EF1D  F007         	goto	i2u402_40
  6512  000E36                     i2u402_41:
  6513  000E36  EFD2  F006         	goto	i2l201
  6514  000E3A                     i2u402_40:
  6515  000E3A                     i2l200:
  6516                           
  6517                           ;mcc_generated_files/usb/usb_device.c: 830:     PIR3bits.USBIF = 0;;
  6518  000E3A  94A4               	bcf	164,2,c	;volatile
  6519  000E3C                     i2l190:
  6520  000E3C  0012               	return		;funcret
  6521  000E3E                     __end_of_USBDeviceTasks:
  6522                           	opt callstack 0
  6523                           
  6524 ;; *************** function i2_USBDeviceInit *****************
  6525 ;; Defined at:
  6526 ;;		line 281 in file "mcc_generated_files/usb/usb_device.c"
  6527 ;; Parameters:    Size  Location     Type
  6528 ;;		None
  6529 ;; Auto vars:     Size  Location     Type
  6530 ;;  USBDeviceIni    1   12[COMRAM] unsigned char 
  6531 ;; Return value:  Size  Location     Type
  6532 ;;                  1    wreg      void 
  6533 ;; Registers used:
  6534 ;;		wreg, fsr2l, fsr2h, status,2, status,0, prodl, prodh, cstack
  6535 ;; Tracked objects:
  6536 ;;		On entry : 0/0
  6537 ;;		On exit  : 0/0
  6538 ;;		Unchanged: 0/0
  6539 ;; Data sizes:     COMRAM   BANK0   BANK1   BANK2   BANK3   BANK4   BANK5   BANK6   BANK7
  6540 ;;      Params:         0       0       0       0       0       0       0       0       0
  6541 ;;      Locals:         1       0       0       0       0       0       0       0       0
  6542 ;;      Temps:          0       0       0       0       0       0       0       0       0
  6543 ;;      Totals:         1       0       0       0       0       0       0       0       0
  6544 ;;Total ram usage:        1 bytes
  6545 ;; Hardware stack levels used:    1
  6546 ;; Hardware stack levels required when called:    1
  6547 ;; This function calls:
  6548 ;;		i2_memset
  6549 ;; This function is called by:
  6550 ;;		_USBDeviceTasks
  6551 ;; This function uses a non-reentrant model
  6552 ;;
  6553                           
  6554                           	psect	text37
  6555  001A18                     __ptext37:
  6556                           	opt callstack 0
  6557  001A18                     i2_USBDeviceInit:
  6558                           	opt callstack 9
  6559  001A18                     
  6560                           ;mcc_generated_files/usb/usb_device.c: 283:     uint8_t i;;mcc_generated_files/usb/usb_d
      +                          evice.c: 285:     {PIE3bits.USBIE = 0;};
  6561  001A18  94A3               	bcf	163,2,c	;volatile
  6562  001A1A                     
  6563                           ;mcc_generated_files/usb/usb_device.c: 292:     {UEIR = 0;};
  6564  001A1A  0E00               	movlw	0
  6565  001A1C  6E67               	movwf	103,c	;volatile
  6566                           
  6567                           ;mcc_generated_files/usb/usb_device.c: 295:     {UIR = 0;};
  6568  001A1E  0E00               	movlw	0
  6569  001A20  6E65               	movwf	101,c	;volatile
  6570                           
  6571                           ;mcc_generated_files/usb/usb_device.c: 298:     UEP0 = 0;
  6572  001A22  0E00               	movlw	0
  6573  001A24  6E6A               	movwf	106,c	;volatile
  6574  001A26                     
  6575                           ;mcc_generated_files/usb/usb_device.c: 300:     memset((void*)&UEP1,0x00,(2));;
  6576  001A26  0E6B               	movlw	107
  6577  001A28  6E01               	movwf	i2memset@dest^0,c
  6578  001A2A  0E0F               	movlw	15
  6579  001A2C  6E02               	movwf	(i2memset@dest+1)^0,c
  6580  001A2E  0E00               	movlw	0
  6581  001A30  6E04               	movwf	(i2memset@c+1)^0,c
  6582  001A32  0E00               	movlw	0
  6583  001A34  6E03               	movwf	i2memset@c^0,c
  6584  001A36  0E00               	movlw	0
  6585  001A38  6E06               	movwf	(i2memset@n+1)^0,c
  6586  001A3A  0E02               	movlw	2
  6587  001A3C  6E05               	movwf	i2memset@n^0,c
  6588  001A3E  EC89  F009         	call	i2_memset	;wreg free
  6589  001A42                     
  6590                           ;mcc_generated_files/usb/usb_device.c: 302:     { UCFG = 0x10 | 0x00 | 0x04 | 0x02; UEIE
      +                           = 0x9F; UIE = 0x39 | 0x40 | 0x02; };
  6591  001A42  0E16               	movlw	22
  6592  001A44  6E62               	movwf	98,c	;volatile
  6593  001A46  0E9F               	movlw	159
  6594  001A48  6E66               	movwf	102,c	;volatile
  6595  001A4A  0E7B               	movlw	123
  6596  001A4C  6E64               	movwf	100,c	;volatile
  6597  001A4E                     
  6598                           ;mcc_generated_files/usb/usb_device.c: 311:     for(i = 0; i < (sizeof(BDT)/sizeof(BDT_E
      +                          NTRY)); i++)
  6599  001A4E  0E00               	movlw	0
  6600  001A50  6E0D               	movwf	i2USBDeviceInit@i^0,c
  6601  001A52                     i2l4717:
  6602                           
  6603                           ;mcc_generated_files/usb/usb_device.c: 312:     {;mcc_generated_files/usb/usb_device.c: 
      +                          313:         BDT[i].Val = 0x00;
  6604  001A52  500D               	movf	i2USBDeviceInit@i^0,w,c
  6605  001A54  0D04               	mullw	4
  6606  001A56  0E00               	movlw	0
  6607  001A58  24F3               	addwf	243,w,c
  6608  001A5A  6ED9               	movwf	fsr2l,c
  6609  001A5C  0E04               	movlw	4
  6610  001A5E  20F4               	addwfc	prodh,w,c
  6611  001A60  6EDA               	movwf	fsr2h,c
  6612  001A62  6ADE               	clrf	postinc2,c
  6613  001A64  6ADE               	clrf	postinc2,c
  6614  001A66  6ADE               	clrf	postinc2,c
  6615  001A68  6ADD               	clrf	postdec2,c
  6616  001A6A                     
  6617                           ;mcc_generated_files/usb/usb_device.c: 314:     }
  6618  001A6A  2A0D               	incf	i2USBDeviceInit@i^0,f,c
  6619  001A6C  0E0B               	movlw	11
  6620  001A6E  640D               	cpfsgt	i2USBDeviceInit@i^0,c
  6621  001A70  EF3C  F00D         	goto	i2u373_41
  6622  001A74  EF3E  F00D         	goto	i2u373_40
  6623  001A78                     i2u373_41:
  6624  001A78  EF29  F00D         	goto	i2l4717
  6625  001A7C                     i2u373_40:
  6626  001A7C                     
  6627                           ;mcc_generated_files/usb/usb_device.c: 317:     UCONbits.PPBRST = 1;
  6628  001A7C  8C60               	bsf	96,6,c	;volatile
  6629  001A7E                     
  6630                           ;mcc_generated_files/usb/usb_device.c: 320:     UADDR = 0x00;
  6631  001A7E  0E00               	movlw	0
  6632  001A80  6E63               	movwf	99,c	;volatile
  6633  001A82                     
  6634                           ;mcc_generated_files/usb/usb_device.c: 323:     UCONbits.PKTDIS = 0;
  6635  001A82  9860               	bcf	96,4,c	;volatile
  6636  001A84                     
  6637                           ;mcc_generated_files/usb/usb_device.c: 326:     UCONbits.PPBRST = 0;
  6638  001A84  9C60               	bcf	96,6,c	;volatile
  6639  001A86                     i2l4729:
  6640                           
  6641                           ;mcc_generated_files/usb/usb_device.c: 330:     {;mcc_generated_files/usb/usb_device.c: 
      +                          331:         (UIR &= 0xF7);
  6642  001A86  9665               	bcf	101,3,c	;volatile
  6643  001A88                     
  6644                           ;mcc_generated_files/usb/usb_device.c: 333:         inPipes[0].info.Val = 0;
  6645  001A88  0E00               	movlw	0
  6646  001A8A  0100               	movlb	0	; () banked
  6647  001A8C  6FC5               	movwf	(_inPipes+3)& (0+255),b	;volatile
  6648  001A8E                     
  6649                           ; BSR set to: 0
  6650                           ;mcc_generated_files/usb/usb_device.c: 334:         outPipes[0].info.Val = 0;
  6651  001A8E  0E00               	movlw	0
  6652  001A90  6FBD               	movwf	(_outPipes+3)& (0+255),b	;volatile
  6653  001A92                     
  6654                           ; BSR set to: 0
  6655                           ;mcc_generated_files/usb/usb_device.c: 335:         outPipes[0].wCount.Val = 0;
  6656  001A92  0E00               	movlw	0
  6657  001A94  6FBF               	movwf	(_outPipes+5)& (0+255),b	;volatile
  6658  001A96  0E00               	movlw	0
  6659  001A98  6FBE               	movwf	(_outPipes+4)& (0+255),b	;volatile
  6660  001A9A                     
  6661                           ; BSR set to: 0
  6662                           ;mcc_generated_files/usb/usb_device.c: 336:     }while(UIRbits.TRNIF == 1);
  6663  001A9A  B665               	btfsc	101,3,c	;volatile
  6664  001A9C  EF52  F00D         	goto	i2u374_41
  6665  001AA0  EF54  F00D         	goto	i2u374_40
  6666  001AA4                     i2u374_41:
  6667  001AA4  EF43  F00D         	goto	i2l4729
  6668  001AA8                     i2u374_40:
  6669  001AA8                     
  6670                           ; BSR set to: 0
  6671                           ;mcc_generated_files/usb/usb_device.c: 340:     USBStatusStageEnabledFlag1 = 1;
  6672  001AA8  0E01               	movlw	1
  6673  001AAA  6E3E               	movwf	_USBStatusStageEnabledFlag1^0,c	;volatile
  6674                           
  6675                           ;mcc_generated_files/usb/usb_device.c: 341:     USBStatusStageEnabledFlag2 = 1;
  6676  001AAC  0E01               	movlw	1
  6677  001AAE  6E3D               	movwf	_USBStatusStageEnabledFlag2^0,c	;volatile
  6678                           
  6679                           ;mcc_generated_files/usb/usb_device.c: 343:     USBDeferINDataStagePackets = 0;
  6680  001AB0  0E00               	movlw	0
  6681  001AB2  6E3C               	movwf	_USBDeferINDataStagePackets^0,c	;volatile
  6682                           
  6683                           ;mcc_generated_files/usb/usb_device.c: 344:     USBDeferOUTDataStagePackets = 0;
  6684  001AB4  0E00               	movlw	0
  6685  001AB6  6E3B               	movwf	_USBDeferOUTDataStagePackets^0,c	;volatile
  6686                           
  6687                           ;mcc_generated_files/usb/usb_device.c: 345:     USBBusIsSuspended = 0;
  6688  001AB8  0E00               	movlw	0
  6689  001ABA  6FEA               	movwf	_USBBusIsSuspended& (0+255),b	;volatile
  6690                           
  6691                           ;mcc_generated_files/usb/usb_device.c: 349:     for(i = 0; i < (uint8_t)(2 +1u); i++)
  6692  001ABC  0E00               	movlw	0
  6693  001ABE  6E0D               	movwf	i2USBDeviceInit@i^0,c
  6694  001AC0                     i2l4745:
  6695                           
  6696                           ;mcc_generated_files/usb/usb_device.c: 350:     {;mcc_generated_files/usb/usb_device.c: 
      +                          351:         pBDTEntryIn[i] = 0u;
  6697  001AC0  500D               	movf	i2USBDeviceInit@i^0,w,c
  6698  001AC2  0D02               	mullw	2
  6699  001AC4  0EC8               	movlw	low _pBDTEntryIn
  6700  001AC6  24F3               	addwf	243,w,c
  6701  001AC8  6ED9               	movwf	fsr2l,c
  6702  001ACA  0E00               	movlw	high _pBDTEntryIn
  6703  001ACC  20F4               	addwfc	prodh,w,c
  6704  001ACE  6EDA               	movwf	fsr2h,c
  6705  001AD0  0E00               	movlw	0
  6706  001AD2  6EDE               	movwf	postinc2,c
  6707  001AD4  0E00               	movlw	0
  6708  001AD6  6EDD               	movwf	postdec2,c
  6709                           
  6710                           ;mcc_generated_files/usb/usb_device.c: 352:         pBDTEntryOut[i] = 0u;
  6711  001AD8  500D               	movf	i2USBDeviceInit@i^0,w,c
  6712  001ADA  0D02               	mullw	2
  6713  001ADC  0ECE               	movlw	low _pBDTEntryOut
  6714  001ADE  24F3               	addwf	243,w,c
  6715  001AE0  6ED9               	movwf	fsr2l,c
  6716  001AE2  0E00               	movlw	high _pBDTEntryOut
  6717  001AE4  20F4               	addwfc	prodh,w,c
  6718  001AE6  6EDA               	movwf	fsr2h,c
  6719  001AE8  0E00               	movlw	0
  6720  001AEA  6EDE               	movwf	postinc2,c
  6721  001AEC  0E00               	movlw	0
  6722  001AEE  6EDD               	movwf	postdec2,c
  6723  001AF0                     
  6724                           ;mcc_generated_files/usb/usb_device.c: 353:         ep_data_in[i].Val = 0u;
  6725  001AF0  0EDD               	movlw	low _ep_data_in
  6726  001AF2  240D               	addwf	i2USBDeviceInit@i^0,w,c
  6727  001AF4  6ED9               	movwf	fsr2l,c
  6728  001AF6  6ADA               	clrf	fsr2h,c
  6729  001AF8  0E00               	movlw	high _ep_data_in
  6730  001AFA  22DA               	addwfc	fsr2h,f,c
  6731  001AFC  0E00               	movlw	0
  6732  001AFE  6EDF               	movwf	indf2,c
  6733  001B00                     
  6734                           ;mcc_generated_files/usb/usb_device.c: 354:         ep_data_out[i].Val = 0u;
  6735  001B00  0EDA               	movlw	low _ep_data_out
  6736  001B02  240D               	addwf	i2USBDeviceInit@i^0,w,c
  6737  001B04  6ED9               	movwf	fsr2l,c
  6738  001B06  6ADA               	clrf	fsr2h,c
  6739  001B08  0E00               	movlw	high _ep_data_out
  6740  001B0A  22DA               	addwfc	fsr2h,f,c
  6741  001B0C  0E00               	movlw	0
  6742  001B0E  6EDF               	movwf	indf2,c
  6743  001B10                     
  6744                           ;mcc_generated_files/usb/usb_device.c: 355:     }
  6745  001B10  2A0D               	incf	i2USBDeviceInit@i^0,f,c
  6746  001B12  0E02               	movlw	2
  6747  001B14  640D               	cpfsgt	i2USBDeviceInit@i^0,c
  6748  001B16  EF8F  F00D         	goto	i2u375_41
  6749  001B1A  EF91  F00D         	goto	i2u375_40
  6750  001B1E                     i2u375_41:
  6751  001B1E  EF60  F00D         	goto	i2l4745
  6752  001B22                     i2u375_40:
  6753  001B22                     
  6754                           ;mcc_generated_files/usb/usb_device.c: 358:     pBDTEntryIn[0] = (volatile BDT_ENTRY*)&B
      +                          DT[2];
  6755  001B22  0E08               	movlw	8
  6756  001B24  0100               	movlb	0	; () banked
  6757  001B26  6FC8               	movwf	_pBDTEntryIn& (0+255),b
  6758  001B28  0E04               	movlw	4
  6759  001B2A  6FC9               	movwf	(_pBDTEntryIn+1)& (0+255),b
  6760  001B2C                     
  6761                           ; BSR set to: 0
  6762                           ;mcc_generated_files/usb/usb_device.c: 360:     UEP0 = 0x06|0x10;
  6763  001B2C  0E16               	movlw	22
  6764  001B2E  6E6A               	movwf	106,c	;volatile
  6765  001B30                     
  6766                           ; BSR set to: 0
  6767                           ;mcc_generated_files/usb/usb_device.c: 362:     BDT[0].ADR = ((uint16_t)(&SetupPkt));
  6768  001B30  0E04               	movlw	4
  6769  001B32  0104               	movlb	4	; () banked
  6770  001B34  6F03               	movwf	3,b	;volatile
  6771  001B36  0E30               	movlw	48
  6772  001B38  6F02               	movwf	2,b	;volatile
  6773  001B3A                     
  6774                           ; BSR set to: 4
  6775                           ;mcc_generated_files/usb/usb_device.c: 363:     BDT[0].CNT = 8;
  6776  001B3A  0E08               	movlw	8
  6777  001B3C  6F01               	movwf	1,b	;volatile
  6778  001B3E                     
  6779                           ; BSR set to: 4
  6780                           ;mcc_generated_files/usb/usb_device.c: 364:     BDT[0].STAT.Val = 0x00|0x04;
  6781  001B3E  0E04               	movlw	4
  6782  001B40  6F00               	movwf	0,b	;volatile
  6783  001B42                     
  6784                           ; BSR set to: 4
  6785                           ;mcc_generated_files/usb/usb_device.c: 365:     BDT[0].STAT.Val |= 0x80;
  6786  001B42  8F00               	bsf	0,7,b	;volatile
  6787  001B44                     
  6788                           ; BSR set to: 4
  6789                           ;mcc_generated_files/usb/usb_device.c: 368:     USBActiveConfiguration = 0;
  6790  001B44  0E00               	movlw	0
  6791  001B46  6E51               	movwf	_USBActiveConfiguration^0,c	;volatile
  6792  001B48                     
  6793                           ; BSR set to: 4
  6794                           ;mcc_generated_files/usb/usb_device.c: 370:     USB1msTickCount = 0;
  6795  001B48  0E00               	movlw	0
  6796  001B4A  6E2E               	movwf	_USB1msTickCount^0,c	;volatile
  6797  001B4C  0E00               	movlw	0
  6798  001B4E  6E2F               	movwf	(_USB1msTickCount+1)^0,c	;volatile
  6799  001B50  0E00               	movlw	0
  6800  001B52  6E30               	movwf	(_USB1msTickCount+2)^0,c	;volatile
  6801  001B54  0E00               	movlw	0
  6802  001B56  6E31               	movwf	(_USB1msTickCount+3)^0,c	;volatile
  6803  001B58                     
  6804                           ; BSR set to: 4
  6805                           ;mcc_generated_files/usb/usb_device.c: 371:     USBTicksSinceSuspendEnd = 0;
  6806  001B58  0E00               	movlw	0
  6807  001B5A  0100               	movlb	0	; () banked
  6808  001B5C  6FE9               	movwf	_USBTicksSinceSuspendEnd& (0+255),b	;volatile
  6809  001B5E                     
  6810                           ; BSR set to: 0
  6811                           ;mcc_generated_files/usb/usb_device.c: 374:     USBDeviceState = DETACHED_STATE;
  6812  001B5E  0E00               	movlw	0
  6813  001B60  6E46               	movwf	_USBDeviceState^0,c	;volatile
  6814  001B62                     
  6815                           ; BSR set to: 0
  6816  001B62  0012               	return		;funcret
  6817  001B64                     __end_ofi2_USBDeviceInit:
  6818                           	opt callstack 0
  6819                           
  6820 ;; *************** function _USBWakeFromSuspend *****************
  6821 ;; Defined at:
  6822 ;;		line 2307 in file "mcc_generated_files/usb/usb_device.c"
  6823 ;; Parameters:    Size  Location     Type
  6824 ;;		None
  6825 ;; Auto vars:     Size  Location     Type
  6826 ;;		None
  6827 ;; Return value:  Size  Location     Type
  6828 ;;                  1    wreg      void 
  6829 ;; Registers used:
  6830 ;;		wreg, fsr2l, fsr2h, status,2, status,0, prodl, prodh, cstack
  6831 ;; Tracked objects:
  6832 ;;		On entry : 0/0
  6833 ;;		On exit  : 0/0
  6834 ;;		Unchanged: 0/0
  6835 ;; Data sizes:     COMRAM   BANK0   BANK1   BANK2   BANK3   BANK4   BANK5   BANK6   BANK7
  6836 ;;      Params:         0       0       0       0       0       0       0       0       0
  6837 ;;      Locals:         0       0       0       0       0       0       0       0       0
  6838 ;;      Temps:          0       0       0       0       0       0       0       0       0
  6839 ;;      Totals:         0       0       0       0       0       0       0       0       0
  6840 ;;Total ram usage:        0 bytes
  6841 ;; Hardware stack levels used:    1
  6842 ;; Hardware stack levels required when called:    4
  6843 ;; This function calls:
  6844 ;;		_USER_USB_CALLBACK_EVENT_HANDLER
  6845 ;; This function is called by:
  6846 ;;		_USBDeviceTasks
  6847 ;; This function uses a non-reentrant model
  6848 ;;
  6849                           
  6850                           	psect	text38
  6851  0036F2                     __ptext38:
  6852                           	opt callstack 0
  6853  0036F2                     _USBWakeFromSuspend:
  6854                           	opt callstack 6
  6855  0036F2                     
  6856                           ;mcc_generated_files/usb/usb_device.c: 2309:     USBBusIsSuspended = 0;
  6857  0036F2  0E00               	movlw	0
  6858  0036F4  0100               	movlb	0	; () banked
  6859  0036F6  6FEA               	movwf	_USBBusIsSuspended& (0+255),b	;volatile
  6860  0036F8                     
  6861                           ; BSR set to: 0
  6862                           ;mcc_generated_files/usb/usb_device.c: 2315:     USER_USB_CALLBACK_EVENT_HANDLER((USB_EV
      +                          ENT)EVENT_RESUME,0,0);
  6863  0036F8  0E00               	movlw	0
  6864  0036FA  6E0E               	movwf	(USER_USB_CALLBACK_EVENT_HANDLER@event+1)^0,c
  6865  0036FC  0E74               	movlw	116
  6866  0036FE  6E0D               	movwf	USER_USB_CALLBACK_EVENT_HANDLER@event^0,c
  6867  003700  0E00               	movlw	0
  6868  003702  6E0F               	movwf	USER_USB_CALLBACK_EVENT_HANDLER@pdata^0,c
  6869  003704  0E00               	movlw	0
  6870  003706  6E10               	movwf	(USER_USB_CALLBACK_EVENT_HANDLER@pdata+1)^0,c
  6871  003708  0E00               	movlw	0
  6872  00370A  6E12               	movwf	(USER_USB_CALLBACK_EVENT_HANDLER@size+1)^0,c
  6873  00370C  0E00               	movlw	0
  6874  00370E  6E11               	movwf	USER_USB_CALLBACK_EVENT_HANDLER@size^0,c
  6875  003710  EC17  F018         	call	_USER_USB_CALLBACK_EVENT_HANDLER	;wreg free
  6876  003714                     
  6877                           ;mcc_generated_files/usb/usb_device.c: 2322:         UCONbits.SUSPND = 0;
  6878  003714  9260               	bcf	96,1,c	;volatile
  6879  003716                     
  6880                           ;mcc_generated_files/usb/usb_device.c: 2327:     UIEbits.ACTVIE = 0;
  6881  003716  9464               	bcf	100,2,c	;volatile
  6882                           
  6883                           ;mcc_generated_files/usb/usb_device.c: 2345:     while(UIRbits.ACTVIF)
  6884  003718  EF8F  F01B         	goto	i2l4495
  6885  00371C                     i2l4493:
  6886                           
  6887                           ;mcc_generated_files/usb/usb_device.c: 2347:     {;mcc_generated_files/usb/usb_device.c:
      +                           2348:         (UIR &= 0xFB);
  6888  00371C  9465               	bcf	101,2,c	;volatile
  6889  00371E                     i2l4495:
  6890                           
  6891                           ;mcc_generated_files/usb/usb_device.c: 2345:     while(UIRbits.ACTVIF)
  6892  00371E  B465               	btfsc	101,2,c	;volatile
  6893  003720  EF94  F01B         	goto	i2u342_41
  6894  003724  EF96  F01B         	goto	i2u342_40
  6895  003728                     i2u342_41:
  6896  003728  EF8E  F01B         	goto	i2l4493
  6897  00372C                     i2u342_40:
  6898  00372C                     
  6899                           ;mcc_generated_files/usb/usb_device.c: 2351:     USBTicksSinceSuspendEnd = 0;
  6900  00372C  0E00               	movlw	0
  6901  00372E  0100               	movlb	0	; () banked
  6902  003730  6FE9               	movwf	_USBTicksSinceSuspendEnd& (0+255),b	;volatile
  6903  003732                     
  6904                           ; BSR set to: 0
  6905  003732  0012               	return		;funcret
  6906  003734                     __end_of_USBWakeFromSuspend:
  6907                           	opt callstack 0
  6908                           
  6909 ;; *************** function _USBSuspend *****************
  6910 ;; Defined at:
  6911 ;;		line 2249 in file "mcc_generated_files/usb/usb_device.c"
  6912 ;; Parameters:    Size  Location     Type
  6913 ;;		None
  6914 ;; Auto vars:     Size  Location     Type
  6915 ;;		None
  6916 ;; Return value:  Size  Location     Type
  6917 ;;                  1    wreg      void 
  6918 ;; Registers used:
  6919 ;;		wreg, fsr2l, fsr2h, status,2, status,0, prodl, prodh, cstack
  6920 ;; Tracked objects:
  6921 ;;		On entry : 0/0
  6922 ;;		On exit  : 0/0
  6923 ;;		Unchanged: 0/0
  6924 ;; Data sizes:     COMRAM   BANK0   BANK1   BANK2   BANK3   BANK4   BANK5   BANK6   BANK7
  6925 ;;      Params:         0       0       0       0       0       0       0       0       0
  6926 ;;      Locals:         0       0       0       0       0       0       0       0       0
  6927 ;;      Temps:          0       0       0       0       0       0       0       0       0
  6928 ;;      Totals:         0       0       0       0       0       0       0       0       0
  6929 ;;Total ram usage:        0 bytes
  6930 ;; Hardware stack levels used:    1
  6931 ;; Hardware stack levels required when called:    4
  6932 ;; This function calls:
  6933 ;;		_USER_USB_CALLBACK_EVENT_HANDLER
  6934 ;; This function is called by:
  6935 ;;		_USBDeviceTasks
  6936 ;; This function uses a non-reentrant model
  6937 ;;
  6938                           
  6939                           	psect	text39
  6940  00384C                     __ptext39:
  6941                           	opt callstack 0
  6942  00384C                     _USBSuspend:
  6943                           	opt callstack 6
  6944  00384C                     
  6945                           ;mcc_generated_files/usb/usb_device.c: 2274:     UIEbits.ACTVIE = 1;
  6946  00384C  8464               	bsf	100,2,c	;volatile
  6947  00384E                     
  6948                           ;mcc_generated_files/usb/usb_device.c: 2275:     (UIR &= 0xEF);
  6949  00384E  9865               	bcf	101,4,c	;volatile
  6950  003850                     
  6951                           ;mcc_generated_files/usb/usb_device.c: 2278:         UCONbits.SUSPND = 1;
  6952  003850  8260               	bsf	96,1,c	;volatile
  6953  003852                     
  6954                           ;mcc_generated_files/usb/usb_device.c: 2281:     USBBusIsSuspended = 1;
  6955  003852  0E01               	movlw	1
  6956  003854  0100               	movlb	0	; () banked
  6957  003856  6FEA               	movwf	_USBBusIsSuspended& (0+255),b	;volatile
  6958  003858                     
  6959                           ; BSR set to: 0
  6960                           ;mcc_generated_files/usb/usb_device.c: 2282:     USBTicksSinceSuspendEnd = 0;
  6961  003858  0E00               	movlw	0
  6962  00385A  6FE9               	movwf	_USBTicksSinceSuspendEnd& (0+255),b	;volatile
  6963  00385C                     
  6964                           ; BSR set to: 0
  6965                           ;mcc_generated_files/usb/usb_device.c: 2289:     USER_USB_CALLBACK_EVENT_HANDLER((USB_EV
      +                          ENT)EVENT_SUSPEND,0,0);
  6966  00385C  0E00               	movlw	0
  6967  00385E  6E0E               	movwf	(USER_USB_CALLBACK_EVENT_HANDLER@event+1)^0,c
  6968  003860  0E75               	movlw	117
  6969  003862  6E0D               	movwf	USER_USB_CALLBACK_EVENT_HANDLER@event^0,c
  6970  003864  0E00               	movlw	0
  6971  003866  6E0F               	movwf	USER_USB_CALLBACK_EVENT_HANDLER@pdata^0,c
  6972  003868  0E00               	movlw	0
  6973  00386A  6E10               	movwf	(USER_USB_CALLBACK_EVENT_HANDLER@pdata+1)^0,c
  6974  00386C  0E00               	movlw	0
  6975  00386E  6E12               	movwf	(USER_USB_CALLBACK_EVENT_HANDLER@size+1)^0,c
  6976  003870  0E00               	movlw	0
  6977  003872  6E11               	movwf	USER_USB_CALLBACK_EVENT_HANDLER@size^0,c
  6978  003874  EC17  F018         	call	_USER_USB_CALLBACK_EVENT_HANDLER	;wreg free
  6979  003878  0012               	return		;funcret
  6980  00387A                     __end_of_USBSuspend:
  6981                           	opt callstack 0
  6982                           
  6983 ;; *************** function _USBStallHandler *****************
  6984 ;; Defined at:
  6985 ;;		line 2206 in file "mcc_generated_files/usb/usb_device.c"
  6986 ;; Parameters:    Size  Location     Type
  6987 ;;		None
  6988 ;; Auto vars:     Size  Location     Type
  6989 ;;		None
  6990 ;; Return value:  Size  Location     Type
  6991 ;;                  1    wreg      void 
  6992 ;; Registers used:
  6993 ;;		wreg, fsr2l, fsr2h, status,2, status,0
  6994 ;; Tracked objects:
  6995 ;;		On entry : 0/0
  6996 ;;		On exit  : 0/0
  6997 ;;		Unchanged: 0/0
  6998 ;; Data sizes:     COMRAM   BANK0   BANK1   BANK2   BANK3   BANK4   BANK5   BANK6   BANK7
  6999 ;;      Params:         0       0       0       0       0       0       0       0       0
  7000 ;;      Locals:         0       0       0       0       0       0       0       0       0
  7001 ;;      Temps:          1       0       0       0       0       0       0       0       0
  7002 ;;      Totals:         1       0       0       0       0       0       0       0       0
  7003 ;;Total ram usage:        1 bytes
  7004 ;; Hardware stack levels used:    1
  7005 ;; This function calls:
  7006 ;;		Nothing
  7007 ;; This function is called by:
  7008 ;;		_USBDeviceTasks
  7009 ;; This function uses a non-reentrant model
  7010 ;;
  7011                           
  7012                           	psect	text40
  7013  00341E                     __ptext40:
  7014                           	opt callstack 0
  7015  00341E                     _USBStallHandler:
  7016                           	opt callstack 10
  7017  00341E                     
  7018                           ;mcc_generated_files/usb/usb_device.c: 2218:     if(UEP0bits.EPSTALL == 1)
  7019  00341E  A06A               	btfss	106,0,c	;volatile
  7020  003420  EF14  F01A         	goto	i2u345_41
  7021  003424  EF16  F01A         	goto	i2u345_40
  7022  003428                     i2u345_41:
  7023  003428  EF3D  F01A         	goto	i2l339
  7024  00342C                     i2u345_40:
  7025  00342C                     
  7026                           ;mcc_generated_files/usb/usb_device.c: 2219:     {;mcc_generated_files/usb/usb_device.c:
      +                           2221:         if((pBDTEntryEP0OutCurrent->STAT.Val == 0x80) && (pBDTEntryIn[0]->STAT.Va
      +                          l == (0x80|0x04)))
  7027  00342C  C038  FFD9         	movff	_pBDTEntryEP0OutCurrent,fsr2l
  7028  003430  C039  FFDA         	movff	_pBDTEntryEP0OutCurrent+1,fsr2h
  7029  003434  0E80               	movlw	128
  7030  003436  18DE               	xorwf	postinc2,w,c
  7031  003438  A4D8               	btfss	status,2,c
  7032  00343A  EF21  F01A         	goto	i2u346_41
  7033  00343E  EF23  F01A         	goto	i2u346_40
  7034  003442                     i2u346_41:
  7035  003442  EF3C  F01A         	goto	i2l4531
  7036  003446                     i2u346_40:
  7037  003446  C0C8  FFD9         	movff	_pBDTEntryIn,fsr2l
  7038  00344A  C0C9  FFDA         	movff	_pBDTEntryIn+1,fsr2h
  7039  00344E  0E84               	movlw	132
  7040  003450  18DE               	xorwf	postinc2,w,c
  7041  003452  A4D8               	btfss	status,2,c
  7042  003454  EF2E  F01A         	goto	i2u347_41
  7043  003458  EF30  F01A         	goto	i2u347_40
  7044  00345C                     i2u347_41:
  7045  00345C  EF3C  F01A         	goto	i2l4531
  7046  003460                     i2u347_40:
  7047  003460                     
  7048                           ;mcc_generated_files/usb/usb_device.c: 2222:         {;mcc_generated_files/usb/usb_devic
      +                          e.c: 2224:             pBDTEntryEP0OutCurrent->STAT.Val = 0x00|(0x08 & 0x08)|0x04;
  7049  003460  C038  FFD9         	movff	_pBDTEntryEP0OutCurrent,fsr2l
  7050  003464  C039  FFDA         	movff	_pBDTEntryEP0OutCurrent+1,fsr2h
  7051  003468  0E0C               	movlw	12
  7052  00346A  6EDF               	movwf	indf2,c
  7053  00346C                     
  7054                           ;mcc_generated_files/usb/usb_device.c: 2225:             pBDTEntryEP0OutCurrent->STAT.Va
      +                          l |= 0x80;
  7055  00346C  C038  FFD9         	movff	_pBDTEntryEP0OutCurrent,fsr2l
  7056  003470  C039  FFDA         	movff	_pBDTEntryEP0OutCurrent+1,fsr2h
  7057  003474  0E00               	movlw	0
  7058  003476  8EDB               	bsf	plusw2,7,c
  7059  003478                     i2l4531:
  7060                           
  7061                           ;mcc_generated_files/usb/usb_device.c: 2227:         UEP0bits.EPSTALL = 0;
  7062  003478  906A               	bcf	106,0,c	;volatile
  7063  00347A                     i2l339:
  7064                           
  7065                           ;mcc_generated_files/usb/usb_device.c: 2230:     (UIR &= 0xDF);
  7066  00347A  9A65               	bcf	101,5,c	;volatile
  7067  00347C  0012               	return		;funcret
  7068  00347E                     __end_of_USBStallHandler:
  7069                           	opt callstack 0
  7070                           
  7071 ;; *************** function _USBIncrement1msInternalTimers *****************
  7072 ;; Defined at:
  7073 ;;		line 3029 in file "mcc_generated_files/usb/usb_device.c"
  7074 ;; Parameters:    Size  Location     Type
  7075 ;;		None
  7076 ;; Auto vars:     Size  Location     Type
  7077 ;;		None
  7078 ;; Return value:  Size  Location     Type
  7079 ;;                  1    wreg      void 
  7080 ;; Registers used:
  7081 ;;		wreg, status,2, status,0
  7082 ;; Tracked objects:
  7083 ;;		On entry : 0/0
  7084 ;;		On exit  : 0/0
  7085 ;;		Unchanged: 0/0
  7086 ;; Data sizes:     COMRAM   BANK0   BANK1   BANK2   BANK3   BANK4   BANK5   BANK6   BANK7
  7087 ;;      Params:         0       0       0       0       0       0       0       0       0
  7088 ;;      Locals:         0       0       0       0       0       0       0       0       0
  7089 ;;      Temps:          0       0       0       0       0       0       0       0       0
  7090 ;;      Totals:         0       0       0       0       0       0       0       0       0
  7091 ;;Total ram usage:        0 bytes
  7092 ;; Hardware stack levels used:    1
  7093 ;; This function calls:
  7094 ;;		Nothing
  7095 ;; This function is called by:
  7096 ;;		_USBDeviceTasks
  7097 ;; This function uses a non-reentrant model
  7098 ;;
  7099                           
  7100                           	psect	text41
  7101  0037E6                     __ptext41:
  7102                           	opt callstack 0
  7103  0037E6                     _USBIncrement1msInternalTimers:
  7104                           	opt callstack 10
  7105  0037E6                     
  7106                           ;mcc_generated_files/usb/usb_device.c: 3037:     USB1msTickCount++;
  7107  0037E6  0E01               	movlw	1
  7108  0037E8  262E               	addwf	_USB1msTickCount^0,f,c	;volatile
  7109  0037EA  0E00               	movlw	0
  7110  0037EC  222F               	addwfc	(_USB1msTickCount+1)^0,f,c	;volatile
  7111  0037EE  2230               	addwfc	(_USB1msTickCount+2)^0,f,c	;volatile
  7112  0037F0  2231               	addwfc	(_USB1msTickCount+3)^0,f,c	;volatile
  7113  0037F2                     
  7114                           ;mcc_generated_files/usb/usb_device.c: 3038:     if(USBBusIsSuspended == 0)
  7115  0037F2  0100               	movlb	0	; () banked
  7116  0037F4  51EA               	movf	_USBBusIsSuspended& (0+255),w,b	;volatile
  7117  0037F6  A4D8               	btfss	status,2,c
  7118  0037F8  EF00  F01C         	goto	i2u343_41
  7119  0037FC  EF02  F01C         	goto	i2u343_40
  7120  003800                     i2u343_41:
  7121  003800  EF0C  F01C         	goto	i2l431
  7122  003804                     i2u343_40:
  7123  003804                     
  7124                           ; BSR set to: 0
  7125                           ;mcc_generated_files/usb/usb_device.c: 3039:     {;mcc_generated_files/usb/usb_device.c:
      +                           3040:         USBTicksSinceSuspendEnd++;
  7126  003804  2BE9               	incf	_USBTicksSinceSuspendEnd& (0+255),f,b	;volatile
  7127  003806                     
  7128                           ; BSR set to: 0
  7129                           ;mcc_generated_files/usb/usb_device.c: 3042:         if(USBTicksSinceSuspendEnd == 0)
  7130  003806  51E9               	movf	_USBTicksSinceSuspendEnd& (0+255),w,b	;volatile
  7131  003808  A4D8               	btfss	status,2,c
  7132  00380A  EF09  F01C         	goto	i2u344_41
  7133  00380E  EF0B  F01C         	goto	i2u344_40
  7134  003812                     i2u344_41:
  7135  003812  EF0C  F01C         	goto	i2l431
  7136  003816                     i2u344_40:
  7137  003816                     
  7138                           ; BSR set to: 0
  7139                           ;mcc_generated_files/usb/usb_device.c: 3043:         {;mcc_generated_files/usb/usb_devic
      +                          e.c: 3044:             USBTicksSinceSuspendEnd = 255;
  7140  003816  69E9               	setf	_USBTicksSinceSuspendEnd& (0+255),b	;volatile
  7141  003818                     i2l431:
  7142                           
  7143                           ; BSR set to: 0
  7144  003818  0012               	return		;funcret
  7145  00381A                     __end_of_USBIncrement1msInternalTimers:
  7146                           	opt callstack 0
  7147                           
  7148 ;; *************** function _USBCtrlEPService *****************
  7149 ;; Defined at:
  7150 ;;		line 2376 in file "mcc_generated_files/usb/usb_device.c"
  7151 ;; Parameters:    Size  Location     Type
  7152 ;;		None
  7153 ;; Auto vars:     Size  Location     Type
  7154 ;;		None
  7155 ;; Return value:  Size  Location     Type
  7156 ;;                  1    wreg      void 
  7157 ;; Registers used:
  7158 ;;		wreg, fsr1l, fsr1h, fsr2l, fsr2h, status,2, status,0, tblptrl, tblptrh, tblptru, prodl, prodh, cstack
  7159 ;; Tracked objects:
  7160 ;;		On entry : 0/0
  7161 ;;		On exit  : 0/0
  7162 ;;		Unchanged: 0/0
  7163 ;; Data sizes:     COMRAM   BANK0   BANK1   BANK2   BANK3   BANK4   BANK5   BANK6   BANK7
  7164 ;;      Params:         0       0       0       0       0       0       0       0       0
  7165 ;;      Locals:         0       0       0       0       0       0       0       0       0
  7166 ;;      Temps:          1       0       0       0       0       0       0       0       0
  7167 ;;      Totals:         1       0       0       0       0       0       0       0       0
  7168 ;;Total ram usage:        1 bytes
  7169 ;; Hardware stack levels used:    1
  7170 ;; Hardware stack levels required when called:    7
  7171 ;; This function calls:
  7172 ;;		_USBCtrlTrfInHandler
  7173 ;;		_USBCtrlTrfOutHandler
  7174 ;;		_USBCtrlTrfSetupHandler
  7175 ;;		_memcpy
  7176 ;; This function is called by:
  7177 ;;		_USBDeviceTasks
  7178 ;; This function uses a non-reentrant model
  7179 ;;
  7180                           
  7181                           	psect	text42
  7182  002CDE                     __ptext42:
  7183                           	opt callstack 0
  7184  002CDE                     _USBCtrlEPService:
  7185                           	opt callstack 3
  7186  002CDE                     
  7187                           ;mcc_generated_files/usb/usb_device.c: 2382:         USBStatusStageTimeoutCounter = (uin
      +                          t8_t)45;
  7188  002CDE  0E2D               	movlw	45
  7189  002CE0  6E40               	movwf	_USBStatusStageTimeoutCounter^0,c	;volatile
  7190  002CE2                     
  7191                           ;mcc_generated_files/usb/usb_device.c: 2386:     if((USTATcopy.Val & ~0x02) == 0x00)
  7192  002CE2  C050  F01E         	movff	_USTATcopy,??_USBCtrlEPService	;volatile
  7193  002CE6  0EFD               	movlw	253
  7194  002CE8  161E               	andwf	??_USBCtrlEPService^0,f,c
  7195  002CEA  A4D8               	btfss	status,2,c
  7196  002CEC  EF7A  F016         	goto	i2u348_41
  7197  002CF0  EF7C  F016         	goto	i2u348_40
  7198  002CF4                     i2u348_41:
  7199  002CF4  EFBE  F016         	goto	i2l4551
  7200  002CF8                     i2u348_40:
  7201  002CF8                     
  7202                           ;mcc_generated_files/usb/usb_device.c: 2387:     {;mcc_generated_files/usb/usb_device.c:
      +                           2390:             pBDTEntryEP0OutCurrent = (volatile BDT_ENTRY*)&BDT[(USTATcopy.Val & 0
      +                          x7E)>>1];
  7203  002CF8  C050  F01E         	movff	_USTATcopy,??_USBCtrlEPService	;volatile
  7204  002CFC  90D8               	bcf	status,0,c
  7205  002CFE  321E               	rrcf	??_USBCtrlEPService^0,f,c
  7206  002D00  0E3F               	movlw	63
  7207  002D02  161E               	andwf	??_USBCtrlEPService^0,f,c
  7208  002D04  501E               	movf	??_USBCtrlEPService^0,w,c
  7209  002D06  0D04               	mullw	4
  7210  002D08  0E00               	movlw	0
  7211  002D0A  24F3               	addwf	243,w,c
  7212  002D0C  6E38               	movwf	_pBDTEntryEP0OutCurrent^0,c
  7213  002D0E  0E04               	movlw	4
  7214  002D10  20F4               	addwfc	prodh,w,c
  7215  002D12  6E39               	movwf	(_pBDTEntryEP0OutCurrent+1)^0,c
  7216  002D14                     
  7217                           ;mcc_generated_files/usb/usb_device.c: 2398:         pBDTEntryEP0OutNext = pBDTEntryEP0O
      +                          utCurrent;
  7218  002D14  C038  F036         	movff	_pBDTEntryEP0OutCurrent,_pBDTEntryEP0OutNext
  7219  002D18  C039  F037         	movff	_pBDTEntryEP0OutCurrent+1,_pBDTEntryEP0OutNext+1
  7220  002D1C                     
  7221                           ;mcc_generated_files/usb/usb_device.c: 2400:         pBDTEntryEP0OutNext = (volatile BDT
      +                          _ENTRY*)(((uint16_t)pBDTEntryEP0OutNext) ^ 0x0004);
  7222  002D1C  0E04               	movlw	4
  7223  002D1E  1836               	xorwf	_pBDTEntryEP0OutNext^0,w,c
  7224  002D20  6E36               	movwf	_pBDTEntryEP0OutNext^0,c
  7225  002D22  5037               	movf	(_pBDTEntryEP0OutNext+1)^0,w,c
  7226  002D24  6E37               	movwf	(_pBDTEntryEP0OutNext+1)^0,c
  7227  002D26                     
  7228                           ;mcc_generated_files/usb/usb_device.c: 2403:         if(pBDTEntryEP0OutCurrent->STAT.PID
      +                           == 0xD)
  7229  002D26  C038  FFD9         	movff	_pBDTEntryEP0OutCurrent,fsr2l
  7230  002D2A  C039  FFDA         	movff	_pBDTEntryEP0OutCurrent+1,fsr2h
  7231  002D2E  30DF               	rrcf	indf2,w,c
  7232  002D30  32E8               	rrcf	wreg,f,c
  7233  002D32  0B0F               	andlw	15
  7234  002D34  0A0D               	xorlw	13
  7235  002D36  A4D8               	btfss	status,2,c
  7236  002D38  EFA0  F016         	goto	i2u349_41
  7237  002D3C  EFA2  F016         	goto	i2u349_40
  7238  002D40                     i2u349_41:
  7239  002D40  EFBA  F016         	goto	i2l4549
  7240  002D44                     i2u349_40:
  7241  002D44                     
  7242                           ;mcc_generated_files/usb/usb_device.c: 2404:         {;mcc_generated_files/usb/usb_devic
      +                          e.c: 2409:             memcpy((uint8_t*)&SetupPkt, (uint8_t*)((void *)(pBDTEntryEP0OutCu
      +                          rrent->ADR)), 8);
  7243  002D44  0E30               	movlw	48
  7244  002D46  6E01               	movwf	memcpy@d1^0,c
  7245  002D48  0E04               	movlw	4
  7246  002D4A  6E02               	movwf	(memcpy@d1+1)^0,c
  7247  002D4C  EE20 F002          	lfsr	2,2
  7248  002D50  5038               	movf	_pBDTEntryEP0OutCurrent^0,w,c
  7249  002D52  26D9               	addwf	fsr2l,f,c
  7250  002D54  5039               	movf	(_pBDTEntryEP0OutCurrent+1)^0,w,c
  7251  002D56  22DA               	addwfc	fsr2h,f,c
  7252  002D58  CFDE F003          	movff	postinc2,memcpy@s1
  7253  002D5C  CFDD F004          	movff	postdec2,memcpy@s1+1
  7254  002D60  0E00               	movlw	0
  7255  002D62  6E06               	movwf	(memcpy@n+1)^0,c
  7256  002D64  0E08               	movlw	8
  7257  002D66  6E05               	movwf	memcpy@n^0,c
  7258  002D68  ECC2  F01A         	call	_memcpy	;wreg free
  7259  002D6C                     
  7260                           ;mcc_generated_files/usb/usb_device.c: 2412:             USBCtrlTrfSetupHandler();
  7261  002D6C  ECCF  F017         	call	_USBCtrlTrfSetupHandler	;wreg free
  7262                           
  7263                           ;mcc_generated_files/usb/usb_device.c: 2413:         }
  7264  002D70  EFCA  F016         	goto	i2l358
  7265  002D74                     i2l4549:
  7266                           
  7267                           ;mcc_generated_files/usb/usb_device.c: 2415:         {;mcc_generated_files/usb/usb_devic
      +                          e.c: 2417:             USBCtrlTrfOutHandler();
  7268  002D74  EC0A  F019         	call	_USBCtrlTrfOutHandler	;wreg free
  7269  002D78  EFCA  F016         	goto	i2l358
  7270  002D7C                     i2l4551:
  7271  002D7C  5050               	movf	_USTATcopy^0,w,c	;volatile
  7272  002D7E  0BFD               	andlw	253
  7273  002D80  0A04               	xorlw	4
  7274  002D82  A4D8               	btfss	status,2,c
  7275  002D84  EFC6  F016         	goto	i2u350_41
  7276  002D88  EFC8  F016         	goto	i2u350_40
  7277  002D8C                     i2u350_41:
  7278  002D8C  EFCA  F016         	goto	i2l358
  7279  002D90                     i2u350_40:
  7280  002D90                     
  7281                           ;mcc_generated_files/usb/usb_device.c: 2421:     {;mcc_generated_files/usb/usb_device.c:
      +                           2424:         USBCtrlTrfInHandler();
  7282  002D90  ECFE  F012         	call	_USBCtrlTrfInHandler	;wreg free
  7283  002D94                     i2l358:
  7284  002D94  0012               	return		;funcret
  7285  002D96                     __end_of_USBCtrlEPService:
  7286                           	opt callstack 0
  7287                           
  7288 ;; *************** function _memcpy *****************
  7289 ;; Defined at:
  7290 ;;		line 4 in file "C:\Program Files (x86)\Microchip\xc8\v2.10\pic\sources\c99\common\memcpy.c"
  7291 ;; Parameters:    Size  Location     Type
  7292 ;;  d1              2    0[COMRAM] PTR void 
  7293 ;;		 -> SetupPkt(8), 
  7294 ;;  s1              2    2[COMRAM] PTR const void 
  7295 ;;		 -> CtrlTrfData(8), RAM(2047), SetupPkt(8), 
  7296 ;;  n               2    4[COMRAM] unsigned int 
  7297 ;; Auto vars:     Size  Location     Type
  7298 ;;  s               2    8[COMRAM] PTR const unsigned char 
  7299 ;;		 -> CtrlTrfData(8), RAM(2047), SetupPkt(8), 
  7300 ;;  d               2    6[COMRAM] PTR unsigned char 
  7301 ;;		 -> SetupPkt(8), 
  7302 ;;  tmp             1   10[COMRAM] unsigned char 
  7303 ;; Return value:  Size  Location     Type
  7304 ;;                  2    0[COMRAM] PTR void 
  7305 ;; Registers used:
  7306 ;;		wreg, fsr2l, fsr2h, status,2, status,0
  7307 ;; Tracked objects:
  7308 ;;		On entry : 0/0
  7309 ;;		On exit  : 0/0
  7310 ;;		Unchanged: 0/0
  7311 ;; Data sizes:     COMRAM   BANK0   BANK1   BANK2   BANK3   BANK4   BANK5   BANK6   BANK7
  7312 ;;      Params:         6       0       0       0       0       0       0       0       0
  7313 ;;      Locals:         5       0       0       0       0       0       0       0       0
  7314 ;;      Temps:          0       0       0       0       0       0       0       0       0
  7315 ;;      Totals:        11       0       0       0       0       0       0       0       0
  7316 ;;Total ram usage:       11 bytes
  7317 ;; Hardware stack levels used:    1
  7318 ;; This function calls:
  7319 ;;		Nothing
  7320 ;; This function is called by:
  7321 ;;		_USBCtrlEPService
  7322 ;; This function uses a non-reentrant model
  7323 ;;
  7324                           
  7325                           	psect	text43
  7326  003584                     __ptext43:
  7327                           	opt callstack 0
  7328  003584                     _memcpy:
  7329                           	opt callstack 9
  7330  003584  C003  F009         	movff	memcpy@s1,memcpy@s
  7331  003588  C004  F00A         	movff	memcpy@s1+1,memcpy@s+1
  7332  00358C  C001  F007         	movff	memcpy@d1,memcpy@d
  7333  003590  C002  F008         	movff	memcpy@d1+1,memcpy@d+1
  7334  003594  EFDC  F01A         	goto	i2l4267
  7335  003598                     i2l4259:
  7336  003598  C009  FFD9         	movff	memcpy@s,fsr2l
  7337  00359C  C00A  FFDA         	movff	memcpy@s+1,fsr2h
  7338  0035A0  50DF               	movf	indf2,w,c
  7339  0035A2  6E0B               	movwf	memcpy@tmp^0,c
  7340  0035A4  4A09               	infsnz	memcpy@s^0,f,c
  7341  0035A6  2A0A               	incf	(memcpy@s+1)^0,f,c
  7342  0035A8  C007  FFD9         	movff	memcpy@d,fsr2l
  7343  0035AC  C008  FFDA         	movff	memcpy@d+1,fsr2h
  7344  0035B0  C00B  FFDF         	movff	memcpy@tmp,indf2
  7345  0035B4  4A07               	infsnz	memcpy@d^0,f,c
  7346  0035B6  2A08               	incf	(memcpy@d+1)^0,f,c
  7347  0035B8                     i2l4267:
  7348  0035B8  0605               	decf	memcpy@n^0,f,c
  7349  0035BA  A0D8               	btfss	status,0,c
  7350  0035BC  0606               	decf	(memcpy@n+1)^0,f,c
  7351  0035BE  2805               	incf	memcpy@n^0,w,c
  7352  0035C0  E106               	bnz	i2u326_41
  7353  0035C2  2806               	incf	(memcpy@n+1)^0,w,c
  7354  0035C4  A4D8               	btfss	status,2,c
  7355  0035C6  EFE7  F01A         	goto	i2u326_41
  7356  0035CA  EFE9  F01A         	goto	i2u326_40
  7357  0035CE                     i2u326_41:
  7358  0035CE  EFCC  F01A         	goto	i2l4259
  7359  0035D2                     i2u326_40:
  7360  0035D2  0012               	return		;funcret
  7361  0035D4                     __end_of_memcpy:
  7362                           	opt callstack 0
  7363                           
  7364 ;; *************** function _USBCtrlTrfSetupHandler *****************
  7365 ;; Defined at:
  7366 ;;		line 2469 in file "mcc_generated_files/usb/usb_device.c"
  7367 ;; Parameters:    Size  Location     Type
  7368 ;;		None
  7369 ;; Auto vars:     Size  Location     Type
  7370 ;;		None
  7371 ;; Return value:  Size  Location     Type
  7372 ;;                  1    wreg      void 
  7373 ;; Registers used:
  7374 ;;		wreg, fsr1l, fsr1h, fsr2l, fsr2h, status,2, status,0, tblptrl, tblptrh, tblptru, prodl, prodh, cstack
  7375 ;; Tracked objects:
  7376 ;;		On entry : 0/0
  7377 ;;		On exit  : 0/0
  7378 ;;		Unchanged: 0/0
  7379 ;; Data sizes:     COMRAM   BANK0   BANK1   BANK2   BANK3   BANK4   BANK5   BANK6   BANK7
  7380 ;;      Params:         0       0       0       0       0       0       0       0       0
  7381 ;;      Locals:         0       0       0       0       0       0       0       0       0
  7382 ;;      Temps:          0       0       0       0       0       0       0       0       0
  7383 ;;      Totals:         0       0       0       0       0       0       0       0       0
  7384 ;;Total ram usage:        0 bytes
  7385 ;; Hardware stack levels used:    1
  7386 ;; Hardware stack levels required when called:    6
  7387 ;; This function calls:
  7388 ;;		_USBCheckStdRequest
  7389 ;;		_USBCtrlEPServiceComplete
  7390 ;;		_USER_USB_CALLBACK_EVENT_HANDLER
  7391 ;; This function is called by:
  7392 ;;		_USBCtrlEPService
  7393 ;; This function uses a non-reentrant model
  7394 ;;
  7395                           
  7396                           	psect	text44
  7397  002F9E                     __ptext44:
  7398                           	opt callstack 0
  7399  002F9E                     _USBCtrlTrfSetupHandler:
  7400                           	opt callstack 3
  7401  002F9E                     
  7402                           ;mcc_generated_files/usb/usb_device.c: 2474:     shortPacketStatus = 0;
  7403  002F9E  0E00               	movlw	0
  7404  002FA0  6E45               	movwf	_shortPacketStatus^0,c	;volatile
  7405                           
  7406                           ;mcc_generated_files/usb/usb_device.c: 2475:     USBDeferStatusStagePacket = 0;
  7407  002FA2  0E00               	movlw	0
  7408  002FA4  6E3F               	movwf	_USBDeferStatusStagePacket^0,c	;volatile
  7409                           
  7410                           ;mcc_generated_files/usb/usb_device.c: 2476:     USBDeferINDataStagePackets = 0;
  7411  002FA6  0E00               	movlw	0
  7412  002FA8  6E3C               	movwf	_USBDeferINDataStagePackets^0,c	;volatile
  7413                           
  7414                           ;mcc_generated_files/usb/usb_device.c: 2477:     USBDeferOUTDataStagePackets = 0;
  7415  002FAA  0E00               	movlw	0
  7416  002FAC  6E3B               	movwf	_USBDeferOUTDataStagePackets^0,c	;volatile
  7417                           
  7418                           ;mcc_generated_files/usb/usb_device.c: 2478:     BothEP0OutUOWNsSet = 0;
  7419  002FAE  0E00               	movlw	0
  7420  002FB0  6E41               	movwf	_BothEP0OutUOWNsSet^0,c	;volatile
  7421                           
  7422                           ;mcc_generated_files/usb/usb_device.c: 2479:     controlTransferState = 0;
  7423  002FB2  0E00               	movlw	0
  7424  002FB4  6E44               	movwf	_controlTransferState^0,c	;volatile
  7425  002FB6                     
  7426                           ;mcc_generated_files/usb/usb_device.c: 2488:     pBDTEntryIn[0]->STAT.Val &= ~(0x80);
  7427  002FB6  C0C8  FFD9         	movff	_pBDTEntryIn,fsr2l
  7428  002FBA  C0C9  FFDA         	movff	_pBDTEntryIn+1,fsr2h
  7429  002FBE  0E7F               	movlw	127
  7430  002FC0  16DF               	andwf	indf2,f,c
  7431  002FC2                     
  7432                           ;mcc_generated_files/usb/usb_device.c: 2490:     pBDTEntryIn[0] = (volatile BDT_ENTRY*)(
      +                          ((uint16_t)pBDTEntryIn[0]) ^ 0x0004);
  7433  002FC2  0E04               	movlw	4
  7434  002FC4  0100               	movlb	0	; () banked
  7435  002FC6  19C8               	xorwf	_pBDTEntryIn& (0+255),w,b
  7436  002FC8  6FC8               	movwf	_pBDTEntryIn& (0+255),b
  7437  002FCA  51C9               	movf	(_pBDTEntryIn+1)& (0+255),w,b
  7438  002FCC  6FC9               	movwf	(_pBDTEntryIn+1)& (0+255),b
  7439  002FCE                     
  7440                           ; BSR set to: 0
  7441                           ;mcc_generated_files/usb/usb_device.c: 2491:     pBDTEntryIn[0]->STAT.Val &= ~(0x80);
  7442  002FCE  C0C8  FFD9         	movff	_pBDTEntryIn,fsr2l
  7443  002FD2  C0C9  FFDA         	movff	_pBDTEntryIn+1,fsr2h
  7444  002FD6  0E7F               	movlw	127
  7445  002FD8  16DF               	andwf	indf2,f,c
  7446  002FDA                     
  7447                           ; BSR set to: 0
  7448                           ;mcc_generated_files/usb/usb_device.c: 2492:     pBDTEntryIn[0] = (volatile BDT_ENTRY*)(
      +                          ((uint16_t)pBDTEntryIn[0]) ^ 0x0004);
  7449  002FDA  0E04               	movlw	4
  7450  002FDC  19C8               	xorwf	_pBDTEntryIn& (0+255),w,b
  7451  002FDE  6FC8               	movwf	_pBDTEntryIn& (0+255),b
  7452  002FE0  51C9               	movf	(_pBDTEntryIn+1)& (0+255),w,b
  7453  002FE2  6FC9               	movwf	(_pBDTEntryIn+1)& (0+255),b
  7454  002FE4                     
  7455                           ; BSR set to: 0
  7456                           ;mcc_generated_files/usb/usb_device.c: 2493:     pBDTEntryEP0OutNext->STAT.Val &= ~(0x80
      +                          );
  7457  002FE4  C036  FFD9         	movff	_pBDTEntryEP0OutNext,fsr2l
  7458  002FE8  C037  FFDA         	movff	_pBDTEntryEP0OutNext+1,fsr2h
  7459  002FEC  0E7F               	movlw	127
  7460  002FEE  16DF               	andwf	indf2,f,c
  7461  002FF0                     
  7462                           ; BSR set to: 0
  7463                           ;mcc_generated_files/usb/usb_device.c: 2495:     inPipes[0].info.Val = 0;
  7464  002FF0  0E00               	movlw	0
  7465  002FF2  6FC5               	movwf	(_inPipes+3)& (0+255),b	;volatile
  7466  002FF4                     
  7467                           ; BSR set to: 0
  7468                           ;mcc_generated_files/usb/usb_device.c: 2496:     inPipes[0].wCount.Val = 0;
  7469  002FF4  0E00               	movlw	0
  7470  002FF6  6FC7               	movwf	(_inPipes+5)& (0+255),b	;volatile
  7471  002FF8  0E00               	movlw	0
  7472  002FFA  6FC6               	movwf	(_inPipes+4)& (0+255),b	;volatile
  7473  002FFC                     
  7474                           ; BSR set to: 0
  7475                           ;mcc_generated_files/usb/usb_device.c: 2497:     outPipes[0].info.Val = 0;
  7476  002FFC  0E00               	movlw	0
  7477  002FFE  6FBD               	movwf	(_outPipes+3)& (0+255),b	;volatile
  7478  003000                     
  7479                           ; BSR set to: 0
  7480                           ;mcc_generated_files/usb/usb_device.c: 2498:     outPipes[0].wCount.Val = 0;
  7481  003000  0E00               	movlw	0
  7482  003002  6FBF               	movwf	(_outPipes+5)& (0+255),b	;volatile
  7483  003004  0E00               	movlw	0
  7484  003006  6FBE               	movwf	(_outPipes+4)& (0+255),b	;volatile
  7485  003008                     
  7486                           ; BSR set to: 0
  7487                           ;mcc_generated_files/usb/usb_device.c: 2504:     USBCheckStdRequest();
  7488  003008  ECD6  F010         	call	_USBCheckStdRequest	;wreg free
  7489  00300C                     
  7490                           ;mcc_generated_files/usb/usb_device.c: 2505:     USER_USB_CALLBACK_EVENT_HANDLER((USB_EV
      +                          ENT)EVENT_EP0_REQUEST,0,0);
  7491  00300C  0E00               	movlw	0
  7492  00300E  6E0E               	movwf	(USER_USB_CALLBACK_EVENT_HANDLER@event+1)^0,c
  7493  003010  0E03               	movlw	3
  7494  003012  6E0D               	movwf	USER_USB_CALLBACK_EVENT_HANDLER@event^0,c
  7495  003014  0E00               	movlw	0
  7496  003016  6E0F               	movwf	USER_USB_CALLBACK_EVENT_HANDLER@pdata^0,c
  7497  003018  0E00               	movlw	0
  7498  00301A  6E10               	movwf	(USER_USB_CALLBACK_EVENT_HANDLER@pdata+1)^0,c
  7499  00301C  0E00               	movlw	0
  7500  00301E  6E12               	movwf	(USER_USB_CALLBACK_EVENT_HANDLER@size+1)^0,c
  7501  003020  0E00               	movlw	0
  7502  003022  6E11               	movwf	USER_USB_CALLBACK_EVENT_HANDLER@size^0,c
  7503  003024  EC17  F018         	call	_USER_USB_CALLBACK_EVENT_HANDLER	;wreg free
  7504  003028                     
  7505                           ;mcc_generated_files/usb/usb_device.c: 2518:     USBCtrlEPServiceComplete();
  7506  003028  EC96  F00F         	call	_USBCtrlEPServiceComplete	;wreg free
  7507  00302C  0012               	return		;funcret
  7508  00302E                     __end_of_USBCtrlTrfSetupHandler:
  7509                           	opt callstack 0
  7510                           
  7511 ;; *************** function _USBCtrlEPServiceComplete *****************
  7512 ;; Defined at:
  7513 ;;		line 1620 in file "mcc_generated_files/usb/usb_device.c"
  7514 ;; Parameters:    Size  Location     Type
  7515 ;;		None
  7516 ;; Auto vars:     Size  Location     Type
  7517 ;;		None
  7518 ;; Return value:  Size  Location     Type
  7519 ;;                  1    wreg      void 
  7520 ;; Registers used:
  7521 ;;		wreg, fsr1l, fsr1h, fsr2l, fsr2h, status,2, status,0, tblptrl, tblptrh, tblptru, cstack
  7522 ;; Tracked objects:
  7523 ;;		On entry : 0/0
  7524 ;;		On exit  : 0/0
  7525 ;;		Unchanged: 0/0
  7526 ;; Data sizes:     COMRAM   BANK0   BANK1   BANK2   BANK3   BANK4   BANK5   BANK6   BANK7
  7527 ;;      Params:         0       0       0       0       0       0       0       0       0
  7528 ;;      Locals:         0       0       0       0       0       0       0       0       0
  7529 ;;      Temps:          0       0       0       0       0       0       0       0       0
  7530 ;;      Totals:         0       0       0       0       0       0       0       0       0
  7531 ;;Total ram usage:        0 bytes
  7532 ;; Hardware stack levels used:    1
  7533 ;; Hardware stack levels required when called:    2
  7534 ;; This function calls:
  7535 ;;		_USBCtrlEPAllowDataStage
  7536 ;;		_USBCtrlEPAllowStatusStage
  7537 ;; This function is called by:
  7538 ;;		_USBCtrlTrfSetupHandler
  7539 ;; This function uses a non-reentrant model
  7540 ;;
  7541                           
  7542                           	psect	text45
  7543  001F2C                     __ptext45:
  7544                           	opt callstack 0
  7545  001F2C                     _USBCtrlEPServiceComplete:
  7546                           	opt callstack 6
  7547  001F2C                     
  7548                           ;mcc_generated_files/usb/usb_device.c: 1626:     UCONbits.PKTDIS = 0;
  7549  001F2C  9860               	bcf	96,4,c	;volatile
  7550                           
  7551                           ;mcc_generated_files/usb/usb_device.c: 1632:     if(inPipes[0].info.bits.busy == 0)
  7552  001F2E  0100               	movlb	0	; () banked
  7553  001F30  BFC5               	btfsc	(_inPipes+3)& (0+255),7,b	;volatile
  7554  001F32  EF9D  F00F         	goto	i2u301_41
  7555  001F36  EF9F  F00F         	goto	i2u301_40
  7556  001F3A                     i2u301_41:
  7557  001F3A  EFE4  F00F         	goto	i2l263
  7558  001F3E                     i2u301_40:
  7559  001F3E                     
  7560                           ; BSR set to: 0
  7561                           ;mcc_generated_files/usb/usb_device.c: 1633:     {;mcc_generated_files/usb/usb_device.c:
      +                           1634:         if(outPipes[0].info.bits.busy == 1)
  7562  001F3E  AFBD               	btfss	(_outPipes+3)& (0+255),7,b	;volatile
  7563  001F40  EFA4  F00F         	goto	i2u302_41
  7564  001F44  EFA6  F00F         	goto	i2u302_40
  7565  001F48                     i2u302_41:
  7566  001F48  EFB8  F00F         	goto	i2l4015
  7567  001F4C                     i2u302_40:
  7568  001F4C                     
  7569                           ; BSR set to: 0
  7570                           ;mcc_generated_files/usb/usb_device.c: 1635:         {;mcc_generated_files/usb/usb_devic
      +                          e.c: 1636:             controlTransferState = 2;
  7571  001F4C  0E02               	movlw	2
  7572  001F4E  6E44               	movwf	_controlTransferState^0,c	;volatile
  7573                           
  7574                           ;mcc_generated_files/usb/usb_device.c: 1647:             if(USBDeferOUTDataStagePackets 
      +                          == 0)
  7575  001F50  503B               	movf	_USBDeferOUTDataStagePackets^0,w,c	;volatile
  7576  001F52  A4D8               	btfss	status,2,c
  7577  001F54  EFAE  F00F         	goto	i2u303_41
  7578  001F58  EFB0  F00F         	goto	i2u303_40
  7579  001F5C                     i2u303_41:
  7580  001F5C  EFB2  F00F         	goto	i2l4011
  7581  001F60                     i2u303_40:
  7582  001F60                     
  7583                           ; BSR set to: 0
  7584                           ;mcc_generated_files/usb/usb_device.c: 1648:             {;mcc_generated_files/usb/usb_d
      +                          evice.c: 1649:                 USBCtrlEPAllowDataStage();
  7585  001F60  ECCB  F016         	call	_USBCtrlEPAllowDataStage	;wreg free
  7586  001F64                     i2l4011:
  7587                           
  7588                           ;mcc_generated_files/usb/usb_device.c: 1654:             USBStatusStageEnabledFlag2 = 0;
  7589  001F64  0E00               	movlw	0
  7590  001F66  6E3D               	movwf	_USBStatusStageEnabledFlag2^0,c	;volatile
  7591  001F68                     
  7592                           ;mcc_generated_files/usb/usb_device.c: 1655:             USBStatusStageEnabledFlag1 = 0;
  7593  001F68  0E00               	movlw	0
  7594  001F6A  6E3E               	movwf	_USBStatusStageEnabledFlag1^0,c	;volatile
  7595                           
  7596                           ;mcc_generated_files/usb/usb_device.c: 1656:         }
  7597  001F6C  EF36  F010         	goto	i2l273
  7598  001F70                     i2l4015:
  7599                           
  7600                           ; BSR set to: 0
  7601                           ;mcc_generated_files/usb/usb_device.c: 1658:         {;mcc_generated_files/usb/usb_devic
      +                          e.c: 1663:             pBDTEntryEP0OutNext->CNT = 8;
  7602  001F70  EE20 F001          	lfsr	2,1
  7603  001F74  5036               	movf	_pBDTEntryEP0OutNext^0,w,c
  7604  001F76  26D9               	addwf	fsr2l,f,c
  7605  001F78  5037               	movf	(_pBDTEntryEP0OutNext+1)^0,w,c
  7606  001F7A  22DA               	addwfc	fsr2h,f,c
  7607  001F7C  0E08               	movlw	8
  7608  001F7E  6EDF               	movwf	indf2,c
  7609                           
  7610                           ;mcc_generated_files/usb/usb_device.c: 1664:             pBDTEntryEP0OutNext->ADR = ((ui
      +                          nt16_t)(&SetupPkt));
  7611  001F80  EE20 F002          	lfsr	2,2
  7612  001F84  5036               	movf	_pBDTEntryEP0OutNext^0,w,c
  7613  001F86  26D9               	addwf	fsr2l,f,c
  7614  001F88  5037               	movf	(_pBDTEntryEP0OutNext+1)^0,w,c
  7615  001F8A  22DA               	addwfc	fsr2h,f,c
  7616  001F8C  0E30               	movlw	48
  7617  001F8E  6EDE               	movwf	postinc2,c
  7618  001F90  0E04               	movlw	4
  7619  001F92  6EDD               	movwf	postdec2,c
  7620  001F94                     
  7621                           ; BSR set to: 0
  7622                           ;mcc_generated_files/usb/usb_device.c: 1665:             pBDTEntryEP0OutNext->STAT.Val =
      +                           0x00|(0x08 & 0x08)|0x04;
  7623  001F94  C036  FFD9         	movff	_pBDTEntryEP0OutNext,fsr2l
  7624  001F98  C037  FFDA         	movff	_pBDTEntryEP0OutNext+1,fsr2h
  7625  001F9C  0E0C               	movlw	12
  7626  001F9E  6EDF               	movwf	indf2,c
  7627  001FA0                     
  7628                           ; BSR set to: 0
  7629                           ;mcc_generated_files/usb/usb_device.c: 1666:             pBDTEntryEP0OutNext->STAT.Val |
      +                          = 0x80;
  7630  001FA0  C036  FFD9         	movff	_pBDTEntryEP0OutNext,fsr2l
  7631  001FA4  C037  FFDA         	movff	_pBDTEntryEP0OutNext+1,fsr2h
  7632  001FA8  0E00               	movlw	0
  7633  001FAA  8EDB               	bsf	plusw2,7,c
  7634                           
  7635                           ;mcc_generated_files/usb/usb_device.c: 1667:             pBDTEntryIn[0]->STAT.Val = 0x04
      +                          ;
  7636  001FAC  C0C8  FFD9         	movff	_pBDTEntryIn,fsr2l
  7637  001FB0  C0C9  FFDA         	movff	_pBDTEntryIn+1,fsr2h
  7638  001FB4  0E04               	movlw	4
  7639  001FB6  6EDF               	movwf	indf2,c
  7640  001FB8                     
  7641                           ; BSR set to: 0
  7642                           ;mcc_generated_files/usb/usb_device.c: 1668:             pBDTEntryIn[0]->STAT.Val |= 0x8
      +                          0;
  7643  001FB8  C0C8  FFD9         	movff	_pBDTEntryIn,fsr2l
  7644  001FBC  C0C9  FFDA         	movff	_pBDTEntryIn+1,fsr2h
  7645  001FC0  0E00               	movlw	0
  7646  001FC2  8EDB               	bsf	plusw2,7,c
  7647  001FC4  EF36  F010         	goto	i2l273
  7648  001FC8                     i2l263:
  7649                           
  7650                           ; BSR set to: 0
  7651                           ;mcc_generated_files/usb/usb_device.c: 1672:     {;mcc_generated_files/usb/usb_device.c:
      +                           1673:   if(SetupPkt.DataDir == (0x80>>7))
  7652  001FC8  0104               	movlb	4	; () banked
  7653  001FCA  AF30               	btfss	48,7,b	;volatile
  7654  001FCC  EFEA  F00F         	goto	i2u304_41
  7655  001FD0  EFEC  F00F         	goto	i2u304_40
  7656  001FD4                     i2u304_41:
  7657  001FD4  EF08  F010         	goto	i2l4035
  7658  001FD8                     i2u304_40:
  7659  001FD8                     
  7660                           ; BSR set to: 4
  7661                           ;mcc_generated_files/usb/usb_device.c: 1674:   {;mcc_generated_files/usb/usb_device.c: 1
      +                          675:    controlTransferState = 1;
  7662  001FD8  0E01               	movlw	1
  7663  001FDA  6E44               	movwf	_controlTransferState^0,c	;volatile
  7664                           
  7665                           ;mcc_generated_files/usb/usb_device.c: 1689:    if(USBDeferINDataStagePackets == 0)
  7666  001FDC  503C               	movf	_USBDeferINDataStagePackets^0,w,c	;volatile
  7667  001FDE  A4D8               	btfss	status,2,c
  7668  001FE0  EFF4  F00F         	goto	i2u305_41
  7669  001FE4  EFF6  F00F         	goto	i2u305_40
  7670  001FE8                     i2u305_41:
  7671  001FE8  EFF8  F00F         	goto	i2l4027
  7672  001FEC                     i2u305_40:
  7673  001FEC                     
  7674                           ; BSR set to: 4
  7675                           ;mcc_generated_files/usb/usb_device.c: 1690:             {;mcc_generated_files/usb/usb_d
      +                          evice.c: 1691:                 USBCtrlEPAllowDataStage();
  7676  001FEC  ECCB  F016         	call	_USBCtrlEPAllowDataStage	;wreg free
  7677  001FF0                     i2l4027:
  7678                           
  7679                           ;mcc_generated_files/usb/usb_device.c: 1714:             USBStatusStageEnabledFlag2 = 0;
  7680  001FF0  0E00               	movlw	0
  7681  001FF2  6E3D               	movwf	_USBStatusStageEnabledFlag2^0,c	;volatile
  7682  001FF4                     
  7683                           ;mcc_generated_files/usb/usb_device.c: 1715:             USBStatusStageEnabledFlag1 = 0;
  7684  001FF4  0E00               	movlw	0
  7685  001FF6  6E3E               	movwf	_USBStatusStageEnabledFlag1^0,c	;volatile
  7686  001FF8                     
  7687                           ;mcc_generated_files/usb/usb_device.c: 1716:             if(USBDeferStatusStagePacket ==
      +                           0)
  7688  001FF8  503F               	movf	_USBDeferStatusStagePacket^0,w,c	;volatile
  7689  001FFA  A4D8               	btfss	status,2,c
  7690  001FFC  EF02  F010         	goto	i2u306_41
  7691  002000  EF04  F010         	goto	i2u306_40
  7692  002004                     i2u306_41:
  7693  002004  EF36  F010         	goto	i2l273
  7694  002008                     i2u306_40:
  7695  002008                     i2l4033:
  7696                           
  7697                           ;mcc_generated_files/usb/usb_device.c: 1717:             {;mcc_generated_files/usb/usb_d
      +                          evice.c: 1718:                 USBCtrlEPAllowStatusStage();
  7698  002008  EC83  F013         	call	_USBCtrlEPAllowStatusStage	;wreg free
  7699  00200C  EF36  F010         	goto	i2l273
  7700  002010                     i2l4035:
  7701                           
  7702                           ; BSR set to: 4
  7703                           ;mcc_generated_files/usb/usb_device.c: 1722:   {;mcc_generated_files/usb/usb_device.c: 1
      +                          733:    controlTransferState = 2;
  7704  002010  0E02               	movlw	2
  7705  002012  6E44               	movwf	_controlTransferState^0,c	;volatile
  7706  002014                     
  7707                           ; BSR set to: 4
  7708                           ;mcc_generated_files/usb/usb_device.c: 1736:    pBDTEntryEP0OutNext->CNT = 8;
  7709  002014  EE20 F001          	lfsr	2,1
  7710  002018  5036               	movf	_pBDTEntryEP0OutNext^0,w,c
  7711  00201A  26D9               	addwf	fsr2l,f,c
  7712  00201C  5037               	movf	(_pBDTEntryEP0OutNext+1)^0,w,c
  7713  00201E  22DA               	addwfc	fsr2h,f,c
  7714  002020  0E08               	movlw	8
  7715  002022  6EDF               	movwf	indf2,c
  7716  002024                     
  7717                           ; BSR set to: 4
  7718                           ;mcc_generated_files/usb/usb_device.c: 1737:    pBDTEntryEP0OutNext->ADR = ((uint16_t)(&
      +                          SetupPkt));
  7719  002024  EE20 F002          	lfsr	2,2
  7720  002028  5036               	movf	_pBDTEntryEP0OutNext^0,w,c
  7721  00202A  26D9               	addwf	fsr2l,f,c
  7722  00202C  5037               	movf	(_pBDTEntryEP0OutNext+1)^0,w,c
  7723  00202E  22DA               	addwfc	fsr2h,f,c
  7724  002030  0E30               	movlw	48
  7725  002032  6EDE               	movwf	postinc2,c
  7726  002034  0E04               	movlw	4
  7727  002036  6EDD               	movwf	postdec2,c
  7728  002038                     
  7729                           ; BSR set to: 4
  7730                           ;mcc_generated_files/usb/usb_device.c: 1738:    pBDTEntryEP0OutNext->STAT.Val = 0x04;
  7731  002038  C036  FFD9         	movff	_pBDTEntryEP0OutNext,fsr2l
  7732  00203C  C037  FFDA         	movff	_pBDTEntryEP0OutNext+1,fsr2h
  7733  002040  0E04               	movlw	4
  7734  002042  6EDF               	movwf	indf2,c
  7735  002044                     
  7736                           ; BSR set to: 4
  7737                           ;mcc_generated_files/usb/usb_device.c: 1739:             pBDTEntryEP0OutNext->STAT.Val |
      +                          = 0x80;
  7738  002044  C036  FFD9         	movff	_pBDTEntryEP0OutNext,fsr2l
  7739  002048  C037  FFDA         	movff	_pBDTEntryEP0OutNext+1,fsr2h
  7740  00204C  0E00               	movlw	0
  7741  00204E  8EDB               	bsf	plusw2,7,c
  7742  002050                     
  7743                           ; BSR set to: 4
  7744                           ;mcc_generated_files/usb/usb_device.c: 1742:             USBStatusStageEnabledFlag2 = 0;
  7745  002050  0E00               	movlw	0
  7746  002052  6E3D               	movwf	_USBStatusStageEnabledFlag2^0,c	;volatile
  7747  002054                     
  7748                           ; BSR set to: 4
  7749                           ;mcc_generated_files/usb/usb_device.c: 1743:             USBStatusStageEnabledFlag1 = 0;
  7750  002054  0E00               	movlw	0
  7751  002056  6E3E               	movwf	_USBStatusStageEnabledFlag1^0,c	;volatile
  7752  002058                     
  7753                           ; BSR set to: 4
  7754                           ;mcc_generated_files/usb/usb_device.c: 1744:    if(USBDeferStatusStagePacket == 0)
  7755  002058  503F               	movf	_USBDeferStatusStagePacket^0,w,c	;volatile
  7756  00205A  A4D8               	btfss	status,2,c
  7757  00205C  EF32  F010         	goto	i2u307_41
  7758  002060  EF34  F010         	goto	i2u307_40
  7759  002064                     i2u307_41:
  7760  002064  EF36  F010         	goto	i2l273
  7761  002068                     i2u307_40:
  7762  002068  EF04  F010         	goto	i2l4033
  7763  00206C                     i2l273:
  7764  00206C  0012               	return		;funcret
  7765  00206E                     __end_of_USBCtrlEPServiceComplete:
  7766                           	opt callstack 0
  7767                           
  7768 ;; *************** function _USBCtrlEPAllowDataStage *****************
  7769 ;; Defined at:
  7770 ;;		line 1492 in file "mcc_generated_files/usb/usb_device.c"
  7771 ;; Parameters:    Size  Location     Type
  7772 ;;		None
  7773 ;; Auto vars:     Size  Location     Type
  7774 ;;		None
  7775 ;; Return value:  Size  Location     Type
  7776 ;;                  1    wreg      void 
  7777 ;; Registers used:
  7778 ;;		wreg, fsr1l, fsr1h, fsr2l, fsr2h, status,2, status,0, tblptrl, tblptrh, tblptru, cstack
  7779 ;; Tracked objects:
  7780 ;;		On entry : 0/0
  7781 ;;		On exit  : 0/0
  7782 ;;		Unchanged: 0/0
  7783 ;; Data sizes:     COMRAM   BANK0   BANK1   BANK2   BANK3   BANK4   BANK5   BANK6   BANK7
  7784 ;;      Params:         0       0       0       0       0       0       0       0       0
  7785 ;;      Locals:         0       0       0       0       0       0       0       0       0
  7786 ;;      Temps:          0       0       0       0       0       0       0       0       0
  7787 ;;      Totals:         0       0       0       0       0       0       0       0       0
  7788 ;;Total ram usage:        0 bytes
  7789 ;; Hardware stack levels used:    1
  7790 ;; Hardware stack levels required when called:    1
  7791 ;; This function calls:
  7792 ;;		_USBCtrlTrfTxService
  7793 ;; This function is called by:
  7794 ;;		_USBCtrlEPServiceComplete
  7795 ;; This function uses a non-reentrant model
  7796 ;;
  7797                           
  7798                           	psect	text46
  7799  002D96                     __ptext46:
  7800                           	opt callstack 0
  7801  002D96                     _USBCtrlEPAllowDataStage:
  7802                           	opt callstack 6
  7803  002D96                     
  7804                           ;mcc_generated_files/usb/usb_device.c: 1494:     USBDeferINDataStagePackets = 0;
  7805  002D96  0E00               	movlw	0
  7806  002D98  6E3C               	movwf	_USBDeferINDataStagePackets^0,c	;volatile
  7807                           
  7808                           ;mcc_generated_files/usb/usb_device.c: 1495:     USBDeferOUTDataStagePackets = 0;
  7809  002D9A  0E00               	movlw	0
  7810  002D9C  6E3B               	movwf	_USBDeferOUTDataStagePackets^0,c	;volatile
  7811  002D9E                     
  7812                           ;mcc_generated_files/usb/usb_device.c: 1497:     if(controlTransferState == 2)
  7813  002D9E  0E02               	movlw	2
  7814  002DA0  1844               	xorwf	_controlTransferState^0,w,c	;volatile
  7815  002DA2  A4D8               	btfss	status,2,c
  7816  002DA4  EFD6  F016         	goto	i2u263_41
  7817  002DA8  EFD8  F016         	goto	i2u263_40
  7818  002DAC                     i2u263_41:
  7819  002DAC  EFF8  F016         	goto	i2l3765
  7820  002DB0                     i2u263_40:
  7821  002DB0                     
  7822                           ;mcc_generated_files/usb/usb_device.c: 1498:     {;mcc_generated_files/usb/usb_device.c:
      +                           1500:         pBDTEntryEP0OutNext->CNT = 8;
  7823  002DB0  EE20 F001          	lfsr	2,1
  7824  002DB4  5036               	movf	_pBDTEntryEP0OutNext^0,w,c
  7825  002DB6  26D9               	addwf	fsr2l,f,c
  7826  002DB8  5037               	movf	(_pBDTEntryEP0OutNext+1)^0,w,c
  7827  002DBA  22DA               	addwfc	fsr2h,f,c
  7828  002DBC  0E08               	movlw	8
  7829  002DBE  6EDF               	movwf	indf2,c
  7830                           
  7831                           ;mcc_generated_files/usb/usb_device.c: 1501:         pBDTEntryEP0OutNext->ADR = ((uint16
      +                          _t)(&CtrlTrfData));
  7832  002DC0  EE20 F002          	lfsr	2,2
  7833  002DC4  5036               	movf	_pBDTEntryEP0OutNext^0,w,c
  7834  002DC6  26D9               	addwf	fsr2l,f,c
  7835  002DC8  5037               	movf	(_pBDTEntryEP0OutNext+1)^0,w,c
  7836  002DCA  22DA               	addwfc	fsr2h,f,c
  7837  002DCC  0E38               	movlw	56
  7838  002DCE  6EDE               	movwf	postinc2,c
  7839  002DD0  0E04               	movlw	4
  7840  002DD2  6EDD               	movwf	postdec2,c
  7841  002DD4                     
  7842                           ;mcc_generated_files/usb/usb_device.c: 1502:         pBDTEntryEP0OutNext->STAT.Val = 0x4
      +                          0|(0x08 & 0x08);
  7843  002DD4  C036  FFD9         	movff	_pBDTEntryEP0OutNext,fsr2l
  7844  002DD8  C037  FFDA         	movff	_pBDTEntryEP0OutNext+1,fsr2h
  7845  002DDC  0E48               	movlw	72
  7846  002DDE  6EDF               	movwf	indf2,c
  7847  002DE0                     
  7848                           ;mcc_generated_files/usb/usb_device.c: 1503:         pBDTEntryEP0OutNext->STAT.Val |= 0x
      +                          80;
  7849  002DE0  C036  FFD9         	movff	_pBDTEntryEP0OutNext,fsr2l
  7850  002DE4  C037  FFDA         	movff	_pBDTEntryEP0OutNext+1,fsr2h
  7851  002DE8  0E00               	movlw	0
  7852  002DEA  8EDB               	bsf	plusw2,7,c
  7853                           
  7854                           ;mcc_generated_files/usb/usb_device.c: 1504:     }
  7855  002DEC  EF24  F017         	goto	i2l255
  7856  002DF0                     i2l3765:
  7857                           
  7858                           ;mcc_generated_files/usb/usb_device.c: 1506:     {;mcc_generated_files/usb/usb_device.c:
      +                           1509:   if(SetupPkt.wLength < inPipes[0].wCount.Val)
  7859  002DF0  0100               	movlb	0	; () banked
  7860  002DF2  51C6               	movf	(_inPipes+4)& (0+255),w,b	;volatile
  7861  002DF4  0104               	movlb	4	; () banked
  7862  002DF6  5D36               	subwf	54,w,b	;volatile
  7863  002DF8  0100               	movlb	0	; () banked
  7864  002DFA  51C7               	movf	(_inPipes+5)& (0+255),w,b	;volatile
  7865  002DFC  0104               	movlb	4	; () banked
  7866  002DFE  5937               	subwfb	55,w,b	;volatile
  7867  002E00  B0D8               	btfsc	status,0,c
  7868  002E02  EF05  F017         	goto	i2u264_41
  7869  002E06  EF07  F017         	goto	i2u264_40
  7870  002E0A                     i2u264_41:
  7871  002E0A  EF0B  F017         	goto	i2l3769
  7872  002E0E                     i2u264_40:
  7873  002E0E                     
  7874                           ; BSR set to: 4
  7875                           ;mcc_generated_files/usb/usb_device.c: 1510:   {;mcc_generated_files/usb/usb_device.c: 1
      +                          511:    inPipes[0].wCount.Val = SetupPkt.wLength;
  7876  002E0E  C436 F0C6          	movff	1078,_inPipes+4	;volatile
  7877  002E12  C437 F0C7          	movff	1079,_inPipes+5	;volatile
  7878  002E16                     i2l3769:
  7879                           
  7880                           ; BSR set to: 4
  7881                           ;mcc_generated_files/usb/usb_device.c: 1513:   USBCtrlTrfTxService();
  7882  002E16  EC69  F011         	call	_USBCtrlTrfTxService	;wreg free
  7883  002E1A                     
  7884                           ;mcc_generated_files/usb/usb_device.c: 1518:   pBDTEntryIn[0]->ADR = ((uint16_t)(&CtrlTr
      +                          fData));
  7885  002E1A  0100               	movlb	0	; () banked
  7886  002E1C  EE20 F002          	lfsr	2,2
  7887  002E20  51C8               	movf	_pBDTEntryIn& (0+255),w,b
  7888  002E22  26D9               	addwf	fsr2l,f,c
  7889  002E24  51C9               	movf	(_pBDTEntryIn+1)& (0+255),w,b
  7890  002E26  22DA               	addwfc	fsr2h,f,c
  7891  002E28  0E38               	movlw	56
  7892  002E2A  6EDE               	movwf	postinc2,c
  7893  002E2C  0E04               	movlw	4
  7894  002E2E  6EDD               	movwf	postdec2,c
  7895  002E30                     
  7896                           ; BSR set to: 0
  7897                           ;mcc_generated_files/usb/usb_device.c: 1519:   pBDTEntryIn[0]->STAT.Val = 0x40|(0x08 & 0
      +                          x08);
  7898  002E30  C0C8  FFD9         	movff	_pBDTEntryIn,fsr2l
  7899  002E34  C0C9  FFDA         	movff	_pBDTEntryIn+1,fsr2h
  7900  002E38  0E48               	movlw	72
  7901  002E3A  6EDF               	movwf	indf2,c
  7902  002E3C                     
  7903                           ; BSR set to: 0
  7904                           ;mcc_generated_files/usb/usb_device.c: 1520:         pBDTEntryIn[0]->STAT.Val |= 0x80;
  7905  002E3C  C0C8  FFD9         	movff	_pBDTEntryIn,fsr2l
  7906  002E40  C0C9  FFDA         	movff	_pBDTEntryIn+1,fsr2h
  7907  002E44  0E00               	movlw	0
  7908  002E46  8EDB               	bsf	plusw2,7,c
  7909  002E48                     i2l255:
  7910  002E48  0012               	return		;funcret
  7911  002E4A                     __end_of_USBCtrlEPAllowDataStage:
  7912                           	opt callstack 0
  7913                           
  7914 ;; *************** function _USBCheckStdRequest *****************
  7915 ;; Defined at:
  7916 ;;		line 2690 in file "mcc_generated_files/usb/usb_device.c"
  7917 ;; Parameters:    Size  Location     Type
  7918 ;;		None
  7919 ;; Auto vars:     Size  Location     Type
  7920 ;;		None
  7921 ;; Return value:  Size  Location     Type
  7922 ;;                  1    wreg      void 
  7923 ;; Registers used:
  7924 ;;		wreg, fsr1l, fsr1h, fsr2l, fsr2h, status,2, status,0, tblptrl, tblptrh, tblptru, prodl, prodh, cstack
  7925 ;; Tracked objects:
  7926 ;;		On entry : 0/0
  7927 ;;		On exit  : 0/0
  7928 ;;		Unchanged: 0/0
  7929 ;; Data sizes:     COMRAM   BANK0   BANK1   BANK2   BANK3   BANK4   BANK5   BANK6   BANK7
  7930 ;;      Params:         0       0       0       0       0       0       0       0       0
  7931 ;;      Locals:         0       0       0       0       0       0       0       0       0
  7932 ;;      Temps:          2       0       0       0       0       0       0       0       0
  7933 ;;      Totals:         2       0       0       0       0       0       0       0       0
  7934 ;;Total ram usage:        2 bytes
  7935 ;; Hardware stack levels used:    1
  7936 ;; Hardware stack levels required when called:    5
  7937 ;; This function calls:
  7938 ;;		_USBStdFeatureReqHandler
  7939 ;;		_USBStdGetDscHandler
  7940 ;;		_USBStdGetStatusHandler
  7941 ;;		_USBStdSetCfgHandler
  7942 ;;		_USER_USB_CALLBACK_EVENT_HANDLER
  7943 ;; This function is called by:
  7944 ;;		_USBCtrlTrfSetupHandler
  7945 ;; This function uses a non-reentrant model
  7946 ;;
  7947                           
  7948                           	psect	text47
  7949  0021AC                     __ptext47:
  7950                           	opt callstack 0
  7951  0021AC                     _USBCheckStdRequest:
  7952                           	opt callstack 3
  7953  0021AC                     
  7954                           ;mcc_generated_files/usb/usb_device.c: 2692:     if(SetupPkt.RequestType != (0x00>>5)) r
      +                          eturn;
  7955  0021AC  0104               	movlb	4	; () banked
  7956  0021AE  3930               	swapf	48,w,b	;volatile
  7957  0021B0  32E8               	rrcf	wreg,f,c
  7958  0021B2  0B03               	andlw	3
  7959  0021B4  0900               	iorlw	0
  7960  0021B6  B4D8               	btfsc	status,2,c
  7961  0021B8  EFE0  F010         	goto	i2u313_41
  7962  0021BC  EFE2  F010         	goto	i2u313_40
  7963  0021C0                     i2u313_41:
  7964  0021C0  EF2F  F011         	goto	i2l4133
  7965  0021C4                     i2u313_40:
  7966  0021C4  EF68  F011         	goto	i2l386
  7967  0021C8                     i2l388:
  7968                           
  7969                           ; BSR set to: 4
  7970                           ;mcc_generated_files/usb/usb_device.c: 2697:             inPipes[0].info.bits.busy = 1;
  7971  0021C8  0100               	movlb	0	; () banked
  7972  0021CA  8FC5               	bsf	(_inPipes+3)& (0+255),7,b	;volatile
  7973  0021CC                     
  7974                           ; BSR set to: 0
  7975                           ;mcc_generated_files/usb/usb_device.c: 2698:             USBDeviceState = ADR_PENDING_ST
      +                          ATE;
  7976  0021CC  0E08               	movlw	8
  7977  0021CE  6E46               	movwf	_USBDeviceState^0,c	;volatile
  7978                           
  7979                           ;mcc_generated_files/usb/usb_device.c: 2700:             break;
  7980  0021D0  EF68  F011         	goto	i2l386
  7981  0021D4                     i2l4103:
  7982                           
  7983                           ; BSR set to: 4
  7984                           ;mcc_generated_files/usb/usb_device.c: 2702:             USBStdGetDscHandler();
  7985  0021D4  EC44  F00A         	call	_USBStdGetDscHandler	;wreg free
  7986                           
  7987                           ;mcc_generated_files/usb/usb_device.c: 2703:             break;
  7988  0021D8  EF68  F011         	goto	i2l386
  7989  0021DC                     i2l4105:
  7990                           
  7991                           ; BSR set to: 4
  7992                           ;mcc_generated_files/usb/usb_device.c: 2705:             USBStdSetCfgHandler();
  7993  0021DC  ECFC  F013         	call	_USBStdSetCfgHandler	;wreg free
  7994                           
  7995                           ;mcc_generated_files/usb/usb_device.c: 2706:             break;
  7996  0021E0  EF68  F011         	goto	i2l386
  7997  0021E4                     i2l4107:
  7998                           
  7999                           ; BSR set to: 4
  8000                           ;mcc_generated_files/usb/usb_device.c: 2708:             inPipes[0].pSrc.bRam = (uint8_t
      +                          *)&USBActiveConfiguration;
  8001  0021E4  0E51               	movlw	low _USBActiveConfiguration
  8002  0021E6  0100               	movlb	0	; () banked
  8003  0021E8  6FC2               	movwf	_inPipes& (0+255),b	;volatile
  8004  0021EA  0E00               	movlw	high _USBActiveConfiguration
  8005  0021EC  6FC3               	movwf	(_inPipes+1)& (0+255),b	;volatile
  8006  0021EE                     
  8007                           ; BSR set to: 0
  8008                           ;mcc_generated_files/usb/usb_device.c: 2709:             inPipes[0].info.bits.ctrl_trf_m
      +                          em = 0x01;
  8009  0021EE  81C5               	bsf	(_inPipes+3)& (0+255),0,b	;volatile
  8010  0021F0                     
  8011                           ; BSR set to: 0
  8012                           ;mcc_generated_files/usb/usb_device.c: 2710:             inPipes[0].wCount.v[0] = 1;
  8013  0021F0  0E01               	movlw	1
  8014  0021F2  6FC6               	movwf	(_inPipes+4)& (0+255),b	;volatile
  8015  0021F4                     
  8016                           ; BSR set to: 0
  8017                           ;mcc_generated_files/usb/usb_device.c: 2711:             inPipes[0].info.bits.busy = 1;
  8018  0021F4  8FC5               	bsf	(_inPipes+3)& (0+255),7,b	;volatile
  8019                           
  8020                           ;mcc_generated_files/usb/usb_device.c: 2712:             break;
  8021  0021F6  EF68  F011         	goto	i2l386
  8022  0021FA                     i2l4115:
  8023                           
  8024                           ; BSR set to: 4
  8025                           ;mcc_generated_files/usb/usb_device.c: 2714:             USBStdGetStatusHandler();
  8026  0021FA  ECF1  F011         	call	_USBStdGetStatusHandler	;wreg free
  8027                           
  8028                           ;mcc_generated_files/usb/usb_device.c: 2715:             break;
  8029  0021FE  EF68  F011         	goto	i2l386
  8030  002202                     i2l4117:
  8031                           
  8032                           ; BSR set to: 4
  8033                           ;mcc_generated_files/usb/usb_device.c: 2718:             USBStdFeatureReqHandler();
  8034  002202  EC5D  F004         	call	_USBStdFeatureReqHandler	;wreg free
  8035                           
  8036                           ;mcc_generated_files/usb/usb_device.c: 2719:             break;
  8037  002206  EF68  F011         	goto	i2l386
  8038  00220A                     i2l4119:
  8039                           
  8040                           ; BSR set to: 4
  8041                           ;mcc_generated_files/usb/usb_device.c: 2721:             inPipes[0].pSrc.bRam = (uint8_t
      +                          *)&USBAlternateInterface[SetupPkt.bIntfID];
  8042  00220A  0E4E               	movlw	low _USBAlternateInterface
  8043  00220C  2534               	addwf	52,w,b	;volatile
  8044  00220E  0100               	movlb	0	; () banked
  8045  002210  6FC2               	movwf	_inPipes& (0+255),b	;volatile
  8046  002212  6BC3               	clrf	(_inPipes+1)& (0+255),b	;volatile
  8047  002214  0E00               	movlw	high _USBAlternateInterface
  8048  002216  23C3               	addwfc	(_inPipes+1)& (0+255),f,b	;volatile
  8049  002218                     
  8050                           ; BSR set to: 0
  8051                           ;mcc_generated_files/usb/usb_device.c: 2722:             inPipes[0].info.bits.ctrl_trf_m
      +                          em = 0x01;
  8052  002218  81C5               	bsf	(_inPipes+3)& (0+255),0,b	;volatile
  8053  00221A                     
  8054                           ; BSR set to: 0
  8055                           ;mcc_generated_files/usb/usb_device.c: 2723:             inPipes[0].wCount.v[0] = 1;
  8056  00221A  0E01               	movlw	1
  8057  00221C  6FC6               	movwf	(_inPipes+4)& (0+255),b	;volatile
  8058  00221E                     
  8059                           ; BSR set to: 0
  8060                           ;mcc_generated_files/usb/usb_device.c: 2724:             inPipes[0].info.bits.busy = 1;
  8061  00221E  8FC5               	bsf	(_inPipes+3)& (0+255),7,b	;volatile
  8062                           
  8063                           ;mcc_generated_files/usb/usb_device.c: 2725:             break;
  8064  002220  EF68  F011         	goto	i2l386
  8065  002224                     i2l397:
  8066                           
  8067                           ; BSR set to: 4
  8068                           ;mcc_generated_files/usb/usb_device.c: 2727:             inPipes[0].info.bits.busy = 1;
  8069  002224  0100               	movlb	0	; () banked
  8070  002226  8FC5               	bsf	(_inPipes+3)& (0+255),7,b	;volatile
  8071  002228                     
  8072                           ; BSR set to: 0
  8073                           ;mcc_generated_files/usb/usb_device.c: 2728:             USBAlternateInterface[SetupPkt.
      +                          bIntfID] = SetupPkt.bAltID;
  8074  002228  0E4E               	movlw	low _USBAlternateInterface
  8075  00222A  0104               	movlb	4	; () banked
  8076  00222C  2534               	addwf	52,w,b	;volatile
  8077  00222E  6ED9               	movwf	fsr2l,c
  8078  002230  6ADA               	clrf	fsr2h,c
  8079  002232  0E00               	movlw	high _USBAlternateInterface
  8080  002234  22DA               	addwfc	fsr2h,f,c
  8081  002236  C432 FFDF          	movff	1074,indf2	;volatile
  8082                           
  8083                           ;mcc_generated_files/usb/usb_device.c: 2729:             break;
  8084  00223A  EF68  F011         	goto	i2l386
  8085  00223E                     i2l4129:
  8086                           
  8087                           ; BSR set to: 4
  8088                           ;mcc_generated_files/usb/usb_device.c: 2731:             USER_USB_CALLBACK_EVENT_HANDLER
      +                          ((USB_EVENT)EVENT_SET_DESCRIPTOR,0,0);
  8089  00223E  0E00               	movlw	0
  8090  002240  6E0E               	movwf	(USER_USB_CALLBACK_EVENT_HANDLER@event+1)^0,c
  8091  002242  0E02               	movlw	2
  8092  002244  6E0D               	movwf	USER_USB_CALLBACK_EVENT_HANDLER@event^0,c
  8093  002246  0E00               	movlw	0
  8094  002248  6E0F               	movwf	USER_USB_CALLBACK_EVENT_HANDLER@pdata^0,c
  8095  00224A  0E00               	movlw	0
  8096  00224C  6E10               	movwf	(USER_USB_CALLBACK_EVENT_HANDLER@pdata+1)^0,c
  8097  00224E  0E00               	movlw	0
  8098  002250  6E12               	movwf	(USER_USB_CALLBACK_EVENT_HANDLER@size+1)^0,c
  8099  002252  0E00               	movlw	0
  8100  002254  6E11               	movwf	USER_USB_CALLBACK_EVENT_HANDLER@size^0,c
  8101  002256  EC17  F018         	call	_USER_USB_CALLBACK_EVENT_HANDLER	;wreg free
  8102                           
  8103                           ;mcc_generated_files/usb/usb_device.c: 2732:             break;
  8104  00225A  EF68  F011         	goto	i2l386
  8105  00225E                     i2l4133:
  8106                           
  8107                           ; BSR set to: 4
  8108  00225E  5131               	movf	49,w,b	;volatile
  8109  002260  6E1C               	movwf	??_USBCheckStdRequest^0,c
  8110  002262  6A1D               	clrf	(??_USBCheckStdRequest+1)^0,c
  8111                           
  8112                           ; Switch on 2 bytes has been partitioned into a top level switch of size 1, and 1 sub-sw
      +                          itches
  8113                           ; Switch size 1, requested type "simple"
  8114                           ; Number of cases is 1, Range of values is 0 to 0
  8115                           ; switch strategies available:
  8116                           ; Name         Instructions Cycles
  8117                           ; simple_byte            4     3 (average)
  8118                           ;	Chosen strategy is simple_byte
  8119  002264  501D               	movf	(??_USBCheckStdRequest+1)^0,w,c
  8120  002266  0A00               	xorlw	0	; case 0
  8121  002268  B4D8               	btfsc	status,2,c
  8122  00226A  EF39  F011         	goto	i2l6211
  8123  00226E  EF68  F011         	goto	i2l386
  8124  002272                     i2l6211:
  8125                           
  8126                           ; BSR set to: 4
  8127                           ; Switch size 1, requested type "simple"
  8128                           ; Number of cases is 11, Range of values is 0 to 12
  8129                           ; switch strategies available:
  8130                           ; Name         Instructions Cycles
  8131                           ; simple_byte           34    18 (average)
  8132                           ;	Chosen strategy is simple_byte
  8133  002272  501C               	movf	??_USBCheckStdRequest^0,w,c
  8134  002274  0A00               	xorlw	0	; case 0
  8135  002276  B4D8               	btfsc	status,2,c
  8136  002278  EFFD  F010         	goto	i2l4115
  8137  00227C  0A01               	xorlw	1	; case 1
  8138  00227E  B4D8               	btfsc	status,2,c
  8139  002280  EF01  F011         	goto	i2l4117
  8140  002284  0A02               	xorlw	2	; case 3
  8141  002286  B4D8               	btfsc	status,2,c
  8142  002288  EF01  F011         	goto	i2l4117
  8143  00228C  0A06               	xorlw	6	; case 5
  8144  00228E  B4D8               	btfsc	status,2,c
  8145  002290  EFE4  F010         	goto	i2l388
  8146  002294  0A03               	xorlw	3	; case 6
  8147  002296  B4D8               	btfsc	status,2,c
  8148  002298  EFEA  F010         	goto	i2l4103
  8149  00229C  0A01               	xorlw	1	; case 7
  8150  00229E  B4D8               	btfsc	status,2,c
  8151  0022A0  EF1F  F011         	goto	i2l4129
  8152  0022A4  0A0F               	xorlw	15	; case 8
  8153  0022A6  B4D8               	btfsc	status,2,c
  8154  0022A8  EFF2  F010         	goto	i2l4107
  8155  0022AC  0A01               	xorlw	1	; case 9
  8156  0022AE  B4D8               	btfsc	status,2,c
  8157  0022B0  EFEE  F010         	goto	i2l4105
  8158  0022B4  0A03               	xorlw	3	; case 10
  8159  0022B6  B4D8               	btfsc	status,2,c
  8160  0022B8  EF05  F011         	goto	i2l4119
  8161  0022BC  0A01               	xorlw	1	; case 11
  8162  0022BE  B4D8               	btfsc	status,2,c
  8163  0022C0  EF12  F011         	goto	i2l397
  8164  0022C4  0A07               	xorlw	7	; case 12
  8165  0022C6  B4D8               	btfsc	status,2,c
  8166  0022C8  EF68  F011         	goto	i2l386
  8167  0022CC  EF68  F011         	goto	i2l386
  8168  0022D0                     i2l386:
  8169  0022D0  0012               	return		;funcret
  8170  0022D2                     __end_of_USBCheckStdRequest:
  8171                           	opt callstack 0
  8172                           
  8173 ;; *************** function _USBStdSetCfgHandler *****************
  8174 ;; Defined at:
  8175 ;;		line 1972 in file "mcc_generated_files/usb/usb_device.c"
  8176 ;; Parameters:    Size  Location     Type
  8177 ;;		None
  8178 ;; Auto vars:     Size  Location     Type
  8179 ;;  i               1   20[COMRAM] unsigned char 
  8180 ;; Return value:  Size  Location     Type
  8181 ;;                  1    wreg      void 
  8182 ;; Registers used:
  8183 ;;		wreg, fsr2l, fsr2h, status,2, status,0, prodl, prodh, cstack
  8184 ;; Tracked objects:
  8185 ;;		On entry : 0/0
  8186 ;;		On exit  : 0/0
  8187 ;;		Unchanged: 0/0
  8188 ;; Data sizes:     COMRAM   BANK0   BANK1   BANK2   BANK3   BANK4   BANK5   BANK6   BANK7
  8189 ;;      Params:         0       0       0       0       0       0       0       0       0
  8190 ;;      Locals:         1       0       0       0       0       0       0       0       0
  8191 ;;      Temps:          0       0       0       0       0       0       0       0       0
  8192 ;;      Totals:         1       0       0       0       0       0       0       0       0
  8193 ;;Total ram usage:        1 bytes
  8194 ;; Hardware stack levels used:    1
  8195 ;; Hardware stack levels required when called:    4
  8196 ;; This function calls:
  8197 ;;		_USER_USB_CALLBACK_EVENT_HANDLER
  8198 ;;		i2_memset
  8199 ;; This function is called by:
  8200 ;;		_USBCheckStdRequest
  8201 ;; This function uses a non-reentrant model
  8202 ;;
  8203                           
  8204                           	psect	text48
  8205  0027F8                     __ptext48:
  8206                           	opt callstack 0
  8207  0027F8                     _USBStdSetCfgHandler:
  8208                           	opt callstack 3
  8209  0027F8                     
  8210                           ;mcc_generated_files/usb/usb_device.c: 1974:     uint8_t i;;mcc_generated_files/usb/usb_
      +                          device.c: 1977:     inPipes[0].info.bits.busy = 1;
  8211  0027F8  0100               	movlb	0	; () banked
  8212  0027FA  8FC5               	bsf	(_inPipes+3)& (0+255),7,b	;volatile
  8213  0027FC                     
  8214                           ; BSR set to: 0
  8215                           ;mcc_generated_files/usb/usb_device.c: 1980:     memset((void*)&UEP1,0x00,(2));;
  8216  0027FC  0E6B               	movlw	107
  8217  0027FE  6E01               	movwf	i2memset@dest^0,c
  8218  002800  0E0F               	movlw	15
  8219  002802  6E02               	movwf	(i2memset@dest+1)^0,c
  8220  002804  0E00               	movlw	0
  8221  002806  6E04               	movwf	(i2memset@c+1)^0,c
  8222  002808  0E00               	movlw	0
  8223  00280A  6E03               	movwf	i2memset@c^0,c
  8224  00280C  0E00               	movlw	0
  8225  00280E  6E06               	movwf	(i2memset@n+1)^0,c
  8226  002810  0E02               	movlw	2
  8227  002812  6E05               	movwf	i2memset@n^0,c
  8228  002814  EC89  F009         	call	i2_memset	;wreg free
  8229                           
  8230                           ;mcc_generated_files/usb/usb_device.c: 1983:     memset((void*)&BDT[0], 0x00, sizeof(BDT
      +                          ));
  8231  002818  0E00               	movlw	0
  8232  00281A  6E01               	movwf	i2memset@dest^0,c
  8233  00281C  0E04               	movlw	4
  8234  00281E  6E02               	movwf	(i2memset@dest+1)^0,c
  8235  002820  0E00               	movlw	0
  8236  002822  6E04               	movwf	(i2memset@c+1)^0,c
  8237  002824  0E00               	movlw	0
  8238  002826  6E03               	movwf	i2memset@c^0,c
  8239  002828  0E00               	movlw	0
  8240  00282A  6E06               	movwf	(i2memset@n+1)^0,c
  8241  00282C  0E30               	movlw	48
  8242  00282E  6E05               	movwf	i2memset@n^0,c
  8243  002830  EC89  F009         	call	i2_memset	;wreg free
  8244  002834                     
  8245                           ;mcc_generated_files/usb/usb_device.c: 1986:     UCONbits.PPBRST = 1;
  8246  002834  8C60               	bsf	96,6,c	;volatile
  8247  002836                     
  8248                           ;mcc_generated_files/usb/usb_device.c: 1991:  for(i = 0; i < (uint8_t)(2 +1u); i++)
  8249  002836  0E00               	movlw	0
  8250  002838  6E15               	movwf	USBStdSetCfgHandler@i^0,c
  8251  00283A                     i2l3789:
  8252                           
  8253                           ;mcc_generated_files/usb/usb_device.c: 1992:  {;mcc_generated_files/usb/usb_device.c: 19
      +                          93:   ep_data_in[i].Val = 0u;
  8254  00283A  0EDD               	movlw	low _ep_data_in
  8255  00283C  2415               	addwf	USBStdSetCfgHandler@i^0,w,c
  8256  00283E  6ED9               	movwf	fsr2l,c
  8257  002840  6ADA               	clrf	fsr2h,c
  8258  002842  0E00               	movlw	high _ep_data_in
  8259  002844  22DA               	addwfc	fsr2h,f,c
  8260  002846  0E00               	movlw	0
  8261  002848  6EDF               	movwf	indf2,c
  8262                           
  8263                           ;mcc_generated_files/usb/usb_device.c: 1994:         ep_data_out[i].Val = 0u;
  8264  00284A  0EDA               	movlw	low _ep_data_out
  8265  00284C  2415               	addwf	USBStdSetCfgHandler@i^0,w,c
  8266  00284E  6ED9               	movwf	fsr2l,c
  8267  002850  6ADA               	clrf	fsr2h,c
  8268  002852  0E00               	movlw	high _ep_data_out
  8269  002854  22DA               	addwfc	fsr2h,f,c
  8270  002856  0E00               	movlw	0
  8271  002858  6EDF               	movwf	indf2,c
  8272  00285A                     
  8273                           ;mcc_generated_files/usb/usb_device.c: 1995:  }
  8274  00285A  2A15               	incf	USBStdSetCfgHandler@i^0,f,c
  8275  00285C  0E02               	movlw	2
  8276  00285E  6415               	cpfsgt	USBStdSetCfgHandler@i^0,c
  8277  002860  EF34  F014         	goto	i2u265_41
  8278  002864  EF36  F014         	goto	i2u265_40
  8279  002868                     i2u265_41:
  8280  002868  EF1D  F014         	goto	i2l3789
  8281  00286C                     i2u265_40:
  8282  00286C                     
  8283                           ;mcc_generated_files/usb/usb_device.c: 1998:     memset((void*)&USBAlternateInterface,0x
      +                          00,2);
  8284  00286C  0E4E               	movlw	low _USBAlternateInterface
  8285  00286E  6E01               	movwf	i2memset@dest^0,c
  8286  002870  0E00               	movlw	high _USBAlternateInterface
  8287  002872  6E02               	movwf	(i2memset@dest+1)^0,c
  8288  002874  0E00               	movlw	0
  8289  002876  6E04               	movwf	(i2memset@c+1)^0,c
  8290  002878  0E00               	movlw	0
  8291  00287A  6E03               	movwf	i2memset@c^0,c
  8292  00287C  0E00               	movlw	0
  8293  00287E  6E06               	movwf	(i2memset@n+1)^0,c
  8294  002880  0E02               	movlw	2
  8295  002882  6E05               	movwf	i2memset@n^0,c
  8296  002884  EC89  F009         	call	i2_memset	;wreg free
  8297  002888                     
  8298                           ;mcc_generated_files/usb/usb_device.c: 2001:     UCONbits.PPBRST = 0;
  8299  002888  9C60               	bcf	96,6,c	;volatile
  8300  00288A                     
  8301                           ;mcc_generated_files/usb/usb_device.c: 2003:     pBDTEntryIn[0] = (volatile BDT_ENTRY*)&
      +                          BDT[2];
  8302  00288A  0E08               	movlw	8
  8303  00288C  0100               	movlb	0	; () banked
  8304  00288E  6FC8               	movwf	_pBDTEntryIn& (0+255),b
  8305  002890  0E04               	movlw	4
  8306  002892  6FC9               	movwf	(_pBDTEntryIn+1)& (0+255),b
  8307  002894                     
  8308                           ; BSR set to: 0
  8309                           ;mcc_generated_files/usb/usb_device.c: 2006:     pBDTEntryEP0OutCurrent = (volatile BDT_
      +                          ENTRY*)&BDT[0];
  8310  002894  0E00               	movlw	0
  8311  002896  6E38               	movwf	_pBDTEntryEP0OutCurrent^0,c
  8312  002898  0E04               	movlw	4
  8313  00289A  6E39               	movwf	(_pBDTEntryEP0OutCurrent+1)^0,c
  8314  00289C                     
  8315                           ; BSR set to: 0
  8316                           ;mcc_generated_files/usb/usb_device.c: 2007:     pBDTEntryEP0OutNext = pBDTEntryEP0OutCu
      +                          rrent;
  8317  00289C  C038  F036         	movff	_pBDTEntryEP0OutCurrent,_pBDTEntryEP0OutNext
  8318  0028A0  C039  F037         	movff	_pBDTEntryEP0OutCurrent+1,_pBDTEntryEP0OutNext+1
  8319  0028A4                     
  8320                           ; BSR set to: 0
  8321                           ;mcc_generated_files/usb/usb_device.c: 2010:     USBActiveConfiguration = SetupPkt.bConf
      +                          igurationValue;
  8322  0028A4  C432 F051          	movff	1074,_USBActiveConfiguration	;volatile
  8323  0028A8                     
  8324                           ; BSR set to: 0
  8325                           ;mcc_generated_files/usb/usb_device.c: 2013:     if(USBActiveConfiguration == 0)
  8326  0028A8  5051               	movf	_USBActiveConfiguration^0,w,c	;volatile
  8327  0028AA  A4D8               	btfss	status,2,c
  8328  0028AC  EF5A  F014         	goto	i2u266_41
  8329  0028B0  EF5C  F014         	goto	i2u266_40
  8330  0028B4                     i2u266_41:
  8331  0028B4  EF60  F014         	goto	i2l3811
  8332  0028B8                     i2u266_40:
  8333  0028B8                     
  8334                           ; BSR set to: 0
  8335                           ;mcc_generated_files/usb/usb_device.c: 2014:     {;mcc_generated_files/usb/usb_device.c:
      +                           2016:         USBDeviceState = ADDRESS_STATE;
  8336  0028B8  0E10               	movlw	16
  8337  0028BA  6E46               	movwf	_USBDeviceState^0,c	;volatile
  8338                           
  8339                           ;mcc_generated_files/usb/usb_device.c: 2017:     }
  8340  0028BC  EF70  F014         	goto	i2l308
  8341  0028C0                     i2l3811:
  8342                           
  8343                           ; BSR set to: 0
  8344                           ;mcc_generated_files/usb/usb_device.c: 2019:     {;mcc_generated_files/usb/usb_device.c:
      +                           2021:         USER_USB_CALLBACK_EVENT_HANDLER((USB_EVENT)EVENT_CONFIGURED,(void*)&USBAc
      +                          tiveConfiguration,1);
  8345  0028C0  0E00               	movlw	0
  8346  0028C2  6E0E               	movwf	(USER_USB_CALLBACK_EVENT_HANDLER@event+1)^0,c
  8347  0028C4  0E01               	movlw	1
  8348  0028C6  6E0D               	movwf	USER_USB_CALLBACK_EVENT_HANDLER@event^0,c
  8349  0028C8  0E51               	movlw	low _USBActiveConfiguration
  8350  0028CA  6E0F               	movwf	USER_USB_CALLBACK_EVENT_HANDLER@pdata^0,c
  8351  0028CC  0E00               	movlw	high _USBActiveConfiguration
  8352  0028CE  6E10               	movwf	(USER_USB_CALLBACK_EVENT_HANDLER@pdata+1)^0,c
  8353  0028D0  0E00               	movlw	0
  8354  0028D2  6E12               	movwf	(USER_USB_CALLBACK_EVENT_HANDLER@size+1)^0,c
  8355  0028D4  0E01               	movlw	1
  8356  0028D6  6E11               	movwf	USER_USB_CALLBACK_EVENT_HANDLER@size^0,c
  8357  0028D8  EC17  F018         	call	_USER_USB_CALLBACK_EVENT_HANDLER	;wreg free
  8358  0028DC                     
  8359                           ;mcc_generated_files/usb/usb_device.c: 2026:         USBDeviceState = CONFIGURED_STATE;
  8360  0028DC  0E20               	movlw	32
  8361  0028DE  6E46               	movwf	_USBDeviceState^0,c	;volatile
  8362  0028E0                     i2l308:
  8363  0028E0  0012               	return		;funcret
  8364  0028E2                     __end_of_USBStdSetCfgHandler:
  8365                           	opt callstack 0
  8366                           
  8367 ;; *************** function i2_memset *****************
  8368 ;; Defined at:
  8369 ;;		line 4 in file "C:\Program Files (x86)\Microchip\xc8\v2.10\pic\sources\c99\common\memset.c"
  8370 ;; Parameters:    Size  Location     Type
  8371 ;;  dest            2    0[COMRAM] PTR void 
  8372 ;;		 -> USBAlternateInterface(2), BDT(48), UEP1(1), 
  8373 ;;  c               2    2[COMRAM] int 
  8374 ;;  n               2    4[COMRAM] unsigned int 
  8375 ;; Auto vars:     Size  Location     Type
  8376 ;;  memset          2   10[COMRAM] PTR unsigned char 
  8377 ;;		 -> USBAlternateInterface(2), BDT(48), UEP1(1), 
  8378 ;;  memset          2    8[COMRAM] unsigned int 
  8379 ;; Return value:  Size  Location     Type
  8380 ;;                  2    0[COMRAM] PTR void 
  8381 ;; Registers used:
  8382 ;;		wreg, fsr2l, fsr2h, status,2, status,0
  8383 ;; Tracked objects:
  8384 ;;		On entry : 0/0
  8385 ;;		On exit  : 0/0
  8386 ;;		Unchanged: 0/0
  8387 ;; Data sizes:     COMRAM   BANK0   BANK1   BANK2   BANK3   BANK4   BANK5   BANK6   BANK7
  8388 ;;      Params:         6       0       0       0       0       0       0       0       0
  8389 ;;      Locals:         4       0       0       0       0       0       0       0       0
  8390 ;;      Temps:          2       0       0       0       0       0       0       0       0
  8391 ;;      Totals:        12       0       0       0       0       0       0       0       0
  8392 ;;Total ram usage:       12 bytes
  8393 ;; Hardware stack levels used:    1
  8394 ;; This function calls:
  8395 ;;		Nothing
  8396 ;; This function is called by:
  8397 ;;		_USBStdSetCfgHandler
  8398 ;;		i2_USBDeviceInit
  8399 ;; This function uses a non-reentrant model
  8400 ;;
  8401                           
  8402                           	psect	text49
  8403  001312                     __ptext49:
  8404                           	opt callstack 0
  8405  001312                     i2_memset:
  8406                           	opt callstack 9
  8407  001312  C001  F00B         	movff	i2memset@dest,i2memset@s
  8408  001316  C002  F00C         	movff	i2memset@dest+1,i2memset@s+1
  8409  00131A  5005               	movf	i2memset@n^0,w,c
  8410  00131C  1006               	iorwf	(i2memset@n+1)^0,w,c
  8411  00131E  A4D8               	btfss	status,2,c
  8412  001320  EF94  F009         	goto	i2u252_41
  8413  001324  EF96  F009         	goto	i2u252_40
  8414  001328                     i2u252_41:
  8415  001328  EF98  F009         	goto	i2l3675
  8416  00132C                     i2u252_40:
  8417  00132C  EF43  F00A         	goto	i2l1449
  8418  001330                     i2l3675:
  8419  001330  C00B  FFD9         	movff	i2memset@s,fsr2l
  8420  001334  C00C  FFDA         	movff	i2memset@s+1,fsr2h
  8421  001338  C003  FFDF         	movff	i2memset@c,indf2
  8422  00133C  5005               	movf	i2memset@n^0,w,c
  8423  00133E  240B               	addwf	i2memset@s^0,w,c
  8424  001340  6E07               	movwf	??i2_memset^0,c
  8425  001342  5006               	movf	(i2memset@n+1)^0,w,c
  8426  001344  200C               	addwfc	(i2memset@s+1)^0,w,c
  8427  001346  6E08               	movwf	(??i2_memset+1)^0,c
  8428  001348  0EFF               	movlw	255
  8429  00134A  2407               	addwf	??i2_memset^0,w,c
  8430  00134C  6ED9               	movwf	fsr2l,c
  8431  00134E  0EFF               	movlw	255
  8432  001350  2008               	addwfc	(??i2_memset+1)^0,w,c
  8433  001352  6EDA               	movwf	fsr2h,c
  8434  001354  C003  FFDF         	movff	i2memset@c,indf2
  8435  001358  5006               	movf	(i2memset@n+1)^0,w,c
  8436  00135A  E107               	bnz	i2u253_41
  8437  00135C  0E03               	movlw	3
  8438  00135E  5C05               	subwf	i2memset@n^0,w,c
  8439  001360  B0D8               	btfsc	status,0,c
  8440  001362  EFB5  F009         	goto	i2u253_41
  8441  001366  EFB7  F009         	goto	i2u253_40
  8442  00136A                     i2u253_41:
  8443  00136A  EFB9  F009         	goto	i2l3681
  8444  00136E                     i2u253_40:
  8445  00136E  EF43  F00A         	goto	i2l1449
  8446  001372                     i2l3681:
  8447  001372  EE20 F001          	lfsr	2,1
  8448  001376  500B               	movf	i2memset@s^0,w,c
  8449  001378  26D9               	addwf	fsr2l,f,c
  8450  00137A  500C               	movf	(i2memset@s+1)^0,w,c
  8451  00137C  22DA               	addwfc	fsr2h,f,c
  8452  00137E  C003  FFDF         	movff	i2memset@c,indf2
  8453  001382  EE20 F002          	lfsr	2,2
  8454  001386  500B               	movf	i2memset@s^0,w,c
  8455  001388  26D9               	addwf	fsr2l,f,c
  8456  00138A  500C               	movf	(i2memset@s+1)^0,w,c
  8457  00138C  22DA               	addwfc	fsr2h,f,c
  8458  00138E  C003  FFDF         	movff	i2memset@c,indf2
  8459  001392  5005               	movf	i2memset@n^0,w,c
  8460  001394  240B               	addwf	i2memset@s^0,w,c
  8461  001396  6E07               	movwf	??i2_memset^0,c
  8462  001398  5006               	movf	(i2memset@n+1)^0,w,c
  8463  00139A  200C               	addwfc	(i2memset@s+1)^0,w,c
  8464  00139C  6E08               	movwf	(??i2_memset+1)^0,c
  8465  00139E  0EFE               	movlw	254
  8466  0013A0  2407               	addwf	??i2_memset^0,w,c
  8467  0013A2  6ED9               	movwf	fsr2l,c
  8468  0013A4  0EFF               	movlw	255
  8469  0013A6  2008               	addwfc	(??i2_memset+1)^0,w,c
  8470  0013A8  6EDA               	movwf	fsr2h,c
  8471  0013AA  C003  FFDF         	movff	i2memset@c,indf2
  8472  0013AE  5005               	movf	i2memset@n^0,w,c
  8473  0013B0  240B               	addwf	i2memset@s^0,w,c
  8474  0013B2  6E07               	movwf	??i2_memset^0,c
  8475  0013B4  5006               	movf	(i2memset@n+1)^0,w,c
  8476  0013B6  200C               	addwfc	(i2memset@s+1)^0,w,c
  8477  0013B8  6E08               	movwf	(??i2_memset+1)^0,c
  8478  0013BA  0EFD               	movlw	253
  8479  0013BC  2407               	addwf	??i2_memset^0,w,c
  8480  0013BE  6ED9               	movwf	fsr2l,c
  8481  0013C0  0EFF               	movlw	255
  8482  0013C2  2008               	addwfc	(??i2_memset+1)^0,w,c
  8483  0013C4  6EDA               	movwf	fsr2h,c
  8484  0013C6  C003  FFDF         	movff	i2memset@c,indf2
  8485  0013CA  5006               	movf	(i2memset@n+1)^0,w,c
  8486  0013CC  E107               	bnz	i2u254_41
  8487  0013CE  0E07               	movlw	7
  8488  0013D0  5C05               	subwf	i2memset@n^0,w,c
  8489  0013D2  B0D8               	btfsc	status,0,c
  8490  0013D4  EFEE  F009         	goto	i2u254_41
  8491  0013D8  EFF0  F009         	goto	i2u254_40
  8492  0013DC                     i2u254_41:
  8493  0013DC  EFF2  F009         	goto	i2l3687
  8494  0013E0                     i2u254_40:
  8495  0013E0  EF43  F00A         	goto	i2l1449
  8496  0013E4                     i2l3687:
  8497  0013E4  EE20 F003          	lfsr	2,3
  8498  0013E8  500B               	movf	i2memset@s^0,w,c
  8499  0013EA  26D9               	addwf	fsr2l,f,c
  8500  0013EC  500C               	movf	(i2memset@s+1)^0,w,c
  8501  0013EE  22DA               	addwfc	fsr2h,f,c
  8502  0013F0  C003  FFDF         	movff	i2memset@c,indf2
  8503  0013F4  5005               	movf	i2memset@n^0,w,c
  8504  0013F6  240B               	addwf	i2memset@s^0,w,c
  8505  0013F8  6E07               	movwf	??i2_memset^0,c
  8506  0013FA  5006               	movf	(i2memset@n+1)^0,w,c
  8507  0013FC  200C               	addwfc	(i2memset@s+1)^0,w,c
  8508  0013FE  6E08               	movwf	(??i2_memset+1)^0,c
  8509  001400  0EFC               	movlw	252
  8510  001402  2407               	addwf	??i2_memset^0,w,c
  8511  001404  6ED9               	movwf	fsr2l,c
  8512  001406  0EFF               	movlw	255
  8513  001408  2008               	addwfc	(??i2_memset+1)^0,w,c
  8514  00140A  6EDA               	movwf	fsr2h,c
  8515  00140C  C003  FFDF         	movff	i2memset@c,indf2
  8516  001410  5006               	movf	(i2memset@n+1)^0,w,c
  8517  001412  E107               	bnz	i2u255_41
  8518  001414  0E09               	movlw	9
  8519  001416  5C05               	subwf	i2memset@n^0,w,c
  8520  001418  B0D8               	btfsc	status,0,c
  8521  00141A  EF11  F00A         	goto	i2u255_41
  8522  00141E  EF13  F00A         	goto	i2u255_40
  8523  001422                     i2u255_41:
  8524  001422  EF15  F00A         	goto	i2l3693
  8525  001426                     i2u255_40:
  8526  001426  EF43  F00A         	goto	i2l1449
  8527  00142A                     i2l3693:
  8528  00142A  C00B  F007         	movff	i2memset@s,??i2_memset
  8529  00142E  C00C  F008         	movff	i2memset@s+1,??i2_memset+1
  8530  001432  1E07               	comf	??i2_memset^0,f,c
  8531  001434  1E08               	comf	(??i2_memset+1)^0,f,c
  8532  001436  4A07               	infsnz	??i2_memset^0,f,c
  8533  001438  2A08               	incf	(??i2_memset+1)^0,f,c
  8534  00143A  0E03               	movlw	3
  8535  00143C  1407               	andwf	??i2_memset^0,w,c
  8536  00143E  6E09               	movwf	i2memset@k^0,c
  8537  001440  6A0A               	clrf	(i2memset@k+1)^0,c
  8538  001442  5009               	movf	i2memset@k^0,w,c
  8539  001444  260B               	addwf	i2memset@s^0,f,c
  8540  001446  500A               	movf	(i2memset@k+1)^0,w,c
  8541  001448  220C               	addwfc	(i2memset@s+1)^0,f,c
  8542  00144A  5009               	movf	i2memset@k^0,w,c
  8543  00144C  5E05               	subwf	i2memset@n^0,f,c
  8544  00144E  500A               	movf	(i2memset@k+1)^0,w,c
  8545  001450  5A06               	subwfb	(i2memset@n+1)^0,f,c
  8546  001452  0EFC               	movlw	252
  8547  001454  1605               	andwf	i2memset@n^0,f,c
  8548  001456  0EFF               	movlw	255
  8549  001458  1606               	andwf	(i2memset@n+1)^0,f,c
  8550  00145A  EF3A  F00A         	goto	i2l3701
  8551  00145E                     i2l3695:
  8552  00145E  C00B  FFD9         	movff	i2memset@s,fsr2l
  8553  001462  C00C  FFDA         	movff	i2memset@s+1,fsr2h
  8554  001466  C003  FFDF         	movff	i2memset@c,indf2
  8555  00146A  0605               	decf	i2memset@n^0,f,c
  8556  00146C  A0D8               	btfss	status,0,c
  8557  00146E  0606               	decf	(i2memset@n+1)^0,f,c
  8558  001470  4A0B               	infsnz	i2memset@s^0,f,c
  8559  001472  2A0C               	incf	(i2memset@s+1)^0,f,c
  8560  001474                     i2l3701:
  8561  001474  5005               	movf	i2memset@n^0,w,c
  8562  001476  1006               	iorwf	(i2memset@n+1)^0,w,c
  8563  001478  A4D8               	btfss	status,2,c
  8564  00147A  EF41  F00A         	goto	i2u256_41
  8565  00147E  EF43  F00A         	goto	i2u256_40
  8566  001482                     i2u256_41:
  8567  001482  EF2F  F00A         	goto	i2l3695
  8568  001486                     i2u256_40:
  8569  001486                     i2l1449:
  8570  001486  0012               	return		;funcret
  8571  001488                     __end_ofi2_memset:
  8572                           	opt callstack 0
  8573                           
  8574 ;; *************** function _USBStdGetStatusHandler *****************
  8575 ;; Defined at:
  8576 ;;		line 2133 in file "mcc_generated_files/usb/usb_device.c"
  8577 ;; Parameters:    Size  Location     Type
  8578 ;;		None
  8579 ;; Auto vars:     Size  Location     Type
  8580 ;;  p               2    2[COMRAM] PTR struct __BDT
  8581 ;;		 -> RAM(2047), NULL(0), BDT(48), 
  8582 ;; Return value:  Size  Location     Type
  8583 ;;                  1    wreg      void 
  8584 ;; Registers used:
  8585 ;;		wreg, fsr2l, fsr2h, status,2, status,0, prodl, prodh
  8586 ;; Tracked objects:
  8587 ;;		On entry : 0/0
  8588 ;;		On exit  : 0/0
  8589 ;;		Unchanged: 0/0
  8590 ;; Data sizes:     COMRAM   BANK0   BANK1   BANK2   BANK3   BANK4   BANK5   BANK6   BANK7
  8591 ;;      Params:         0       0       0       0       0       0       0       0       0
  8592 ;;      Locals:         2       0       0       0       0       0       0       0       0
  8593 ;;      Temps:          2       0       0       0       0       0       0       0       0
  8594 ;;      Totals:         4       0       0       0       0       0       0       0       0
  8595 ;;Total ram usage:        4 bytes
  8596 ;; Hardware stack levels used:    1
  8597 ;; This function calls:
  8598 ;;		Nothing
  8599 ;; This function is called by:
  8600 ;;		_USBCheckStdRequest
  8601 ;; This function uses a non-reentrant model
  8602 ;;
  8603                           
  8604                           	psect	text50
  8605  0023E2                     __ptext50:
  8606                           	opt callstack 0
  8607  0023E2                     _USBStdGetStatusHandler:
  8608                           	opt callstack 7
  8609  0023E2                     
  8610                           ;mcc_generated_files/usb/usb_device.c: 2135:     CtrlTrfData[0] = 0;
  8611  0023E2  0E00               	movlw	0
  8612  0023E4  0104               	movlb	4	; () banked
  8613  0023E6  6F38               	movwf	56,b	;volatile
  8614                           
  8615                           ;mcc_generated_files/usb/usb_device.c: 2136:     CtrlTrfData[1] = 0;
  8616  0023E8  0E00               	movlw	0
  8617  0023EA  6F39               	movwf	57,b	;volatile
  8618                           
  8619                           ;mcc_generated_files/usb/usb_device.c: 2138:     switch(SetupPkt.Recipient)
  8620  0023EC  EF4E  F012         	goto	i2l3871
  8621  0023F0                     i2l326:
  8622                           
  8623                           ; BSR set to: 4
  8624                           ;mcc_generated_files/usb/usb_device.c: 2141:             inPipes[0].info.bits.busy = 1;
  8625  0023F0  0100               	movlb	0	; () banked
  8626  0023F2  8FC5               	bsf	(_inPipes+3)& (0+255),7,b	;volatile
  8627  0023F4                     
  8628                           ; BSR set to: 0
  8629                           ;mcc_generated_files/usb/usb_device.c: 2151:             if(RemoteWakeup == 1)
  8630  0023F4  0443               	decf	_RemoteWakeup^0,w,c	;volatile
  8631  0023F6  A4D8               	btfss	status,2,c
  8632  0023F8  EF00  F012         	goto	i2u273_41
  8633  0023FC  EF02  F012         	goto	i2u273_40
  8634  002400                     i2u273_41:
  8635  002400  EF68  F012         	goto	i2l329
  8636  002404                     i2u273_40:
  8637  002404                     
  8638                           ; BSR set to: 0
  8639                           ;mcc_generated_files/usb/usb_device.c: 2152:             {;mcc_generated_files/usb/usb_d
      +                          evice.c: 2153:                 CtrlTrfData[0]|=0x02;
  8640  002404  0104               	movlb	4	; () banked
  8641  002406  8338               	bsf	56,1,b	;volatile
  8642  002408  EF68  F012         	goto	i2l329
  8643  00240C                     i2l330:
  8644                           
  8645                           ; BSR set to: 4
  8646                           ;mcc_generated_files/usb/usb_device.c: 2157:             inPipes[0].info.bits.busy = 1;
  8647  00240C  0100               	movlb	0	; () banked
  8648  00240E  8FC5               	bsf	(_inPipes+3)& (0+255),7,b	;volatile
  8649                           
  8650                           ;mcc_generated_files/usb/usb_device.c: 2158:             break;
  8651  002410  EF68  F012         	goto	i2l329
  8652  002414                     i2l331:
  8653                           
  8654                           ; BSR set to: 4
  8655                           ;mcc_generated_files/usb/usb_device.c: 2160:             inPipes[0].info.bits.busy = 1;
  8656  002414  0100               	movlb	0	; () banked
  8657  002416  8FC5               	bsf	(_inPipes+3)& (0+255),7,b	;volatile
  8658                           
  8659                           ;mcc_generated_files/usb/usb_device.c: 2164:             {;mcc_generated_files/usb/usb_d
      +                          evice.c: 2165:                 BDT_ENTRY *p;;mcc_generated_files/usb/usb_device.c: 2167:
      +                                           if(SetupPkt.EPDir == 0)
  8660  002418  0104               	movlb	4	; () banked
  8661  00241A  BF34               	btfsc	52,7,b	;volatile
  8662  00241C  EF12  F012         	goto	i2u274_41
  8663  002420  EF14  F012         	goto	i2u274_40
  8664  002424                     i2u274_41:
  8665  002424  EF25  F012         	goto	i2l3861
  8666  002428                     i2u274_40:
  8667  002428                     
  8668                           ; BSR set to: 4
  8669                           ;mcc_generated_files/usb/usb_device.c: 2168:                 {;mcc_generated_files/usb/u
      +                          sb_device.c: 2169:                     p = (BDT_ENTRY*)pBDTEntryOut[SetupPkt.EPNum];
  8670  002428  5134               	movf	52,w,b	;volatile
  8671  00242A  0B0F               	andlw	15
  8672  00242C  6E01               	movwf	??_USBStdGetStatusHandler^0,c
  8673  00242E  5001               	movf	??_USBStdGetStatusHandler^0,w,c
  8674  002430  0D02               	mullw	2
  8675  002432  0ECE               	movlw	low _pBDTEntryOut
  8676  002434  24F3               	addwf	243,w,c
  8677  002436  6ED9               	movwf	fsr2l,c
  8678  002438  0E00               	movlw	high _pBDTEntryOut
  8679  00243A  20F4               	addwfc	prodh,w,c
  8680  00243C  6EDA               	movwf	fsr2h,c
  8681  00243E  CFDE F003          	movff	postinc2,USBStdGetStatusHandler@p
  8682  002442  CFDD F004          	movff	postdec2,USBStdGetStatusHandler@p+1
  8683                           
  8684                           ;mcc_generated_files/usb/usb_device.c: 2170:                 }
  8685  002446  EF34  F012         	goto	i2l3863
  8686  00244A                     i2l3861:
  8687                           
  8688                           ; BSR set to: 4
  8689                           ;mcc_generated_files/usb/usb_device.c: 2172:                 {;mcc_generated_files/usb/u
      +                          sb_device.c: 2173:                     p = (BDT_ENTRY*)pBDTEntryIn[SetupPkt.EPNum];
  8690  00244A  5134               	movf	52,w,b	;volatile
  8691  00244C  0B0F               	andlw	15
  8692  00244E  6E01               	movwf	??_USBStdGetStatusHandler^0,c
  8693  002450  5001               	movf	??_USBStdGetStatusHandler^0,w,c
  8694  002452  0D02               	mullw	2
  8695  002454  0EC8               	movlw	low _pBDTEntryIn
  8696  002456  24F3               	addwf	243,w,c
  8697  002458  6ED9               	movwf	fsr2l,c
  8698  00245A  0E00               	movlw	high _pBDTEntryIn
  8699  00245C  20F4               	addwfc	prodh,w,c
  8700  00245E  6EDA               	movwf	fsr2h,c
  8701  002460  CFDE F003          	movff	postinc2,USBStdGetStatusHandler@p
  8702  002464  CFDD F004          	movff	postdec2,USBStdGetStatusHandler@p+1
  8703  002468                     i2l3863:
  8704                           
  8705                           ; BSR set to: 4
  8706                           ;mcc_generated_files/usb/usb_device.c: 2176:                 if((p->STAT.UOWN == 1) && (
      +                          p->STAT.BSTALL == 1))
  8707  002468  C003  FFD9         	movff	USBStdGetStatusHandler@p,fsr2l
  8708  00246C  C004  FFDA         	movff	USBStdGetStatusHandler@p+1,fsr2h
  8709  002470  AEDF               	btfss	indf2,7,c
  8710  002472  EF3D  F012         	goto	i2u275_41
  8711  002476  EF3F  F012         	goto	i2u275_40
  8712  00247A                     i2u275_41:
  8713  00247A  EF68  F012         	goto	i2l329
  8714  00247E                     i2u275_40:
  8715  00247E                     
  8716                           ; BSR set to: 4
  8717  00247E  C003  FFD9         	movff	USBStdGetStatusHandler@p,fsr2l
  8718  002482  C004  FFDA         	movff	USBStdGetStatusHandler@p+1,fsr2h
  8719  002486  A4DF               	btfss	indf2,2,c
  8720  002488  EF48  F012         	goto	i2u276_41
  8721  00248C  EF4A  F012         	goto	i2u276_40
  8722  002490                     i2u276_41:
  8723  002490  EF68  F012         	goto	i2l329
  8724  002494                     i2u276_40:
  8725  002494                     
  8726                           ; BSR set to: 4
  8727                           ;mcc_generated_files/usb/usb_device.c: 2177:                     CtrlTrfData[0]=0x01;
  8728  002494  0E01               	movlw	1
  8729  002496  6F38               	movwf	56,b	;volatile
  8730  002498  EF68  F012         	goto	i2l329
  8731  00249C                     i2l3871:
  8732                           
  8733                           ; BSR set to: 4
  8734  00249C  5130               	movf	48,w,b	;volatile
  8735  00249E  0B1F               	andlw	31
  8736  0024A0  6E01               	movwf	??_USBStdGetStatusHandler^0,c
  8737  0024A2  6A02               	clrf	(??_USBStdGetStatusHandler+1)^0,c
  8738                           
  8739                           ; Switch on 2 bytes has been partitioned into a top level switch of size 1, and 1 sub-sw
      +                          itches
  8740                           ; Switch size 1, requested type "simple"
  8741                           ; Number of cases is 1, Range of values is 0 to 0
  8742                           ; switch strategies available:
  8743                           ; Name         Instructions Cycles
  8744                           ; simple_byte            4     3 (average)
  8745                           ;	Chosen strategy is simple_byte
  8746  0024A4  5002               	movf	(??_USBStdGetStatusHandler+1)^0,w,c
  8747  0024A6  0A00               	xorlw	0	; case 0
  8748  0024A8  B4D8               	btfsc	status,2,c
  8749  0024AA  EF59  F012         	goto	i2l6213
  8750  0024AE  EF68  F012         	goto	i2l329
  8751  0024B2                     i2l6213:
  8752                           
  8753                           ; BSR set to: 4
  8754                           ; Switch size 1, requested type "simple"
  8755                           ; Number of cases is 3, Range of values is 0 to 2
  8756                           ; switch strategies available:
  8757                           ; Name         Instructions Cycles
  8758                           ; simple_byte           10     6 (average)
  8759                           ;	Chosen strategy is simple_byte
  8760  0024B2  5001               	movf	??_USBStdGetStatusHandler^0,w,c
  8761  0024B4  0A00               	xorlw	0	; case 0
  8762  0024B6  B4D8               	btfsc	status,2,c
  8763  0024B8  EFF8  F011         	goto	i2l326
  8764  0024BC  0A01               	xorlw	1	; case 1
  8765  0024BE  B4D8               	btfsc	status,2,c
  8766  0024C0  EF06  F012         	goto	i2l330
  8767  0024C4  0A03               	xorlw	3	; case 2
  8768  0024C6  B4D8               	btfsc	status,2,c
  8769  0024C8  EF0A  F012         	goto	i2l331
  8770  0024CC  EF68  F012         	goto	i2l329
  8771  0024D0                     i2l329:
  8772                           
  8773                           ;mcc_generated_files/usb/usb_device.c: 2182:     if(inPipes[0].info.bits.busy == 1)
  8774  0024D0  0100               	movlb	0	; () banked
  8775  0024D2  AFC5               	btfss	(_inPipes+3)& (0+255),7,b	;volatile
  8776  0024D4  EF6E  F012         	goto	i2u277_41
  8777  0024D8  EF70  F012         	goto	i2u277_40
  8778  0024DC                     i2u277_41:
  8779  0024DC  EF77  F012         	goto	i2l336
  8780  0024E0                     i2u277_40:
  8781  0024E0                     
  8782                           ; BSR set to: 0
  8783                           ;mcc_generated_files/usb/usb_device.c: 2183:     {;mcc_generated_files/usb/usb_device.c:
      +                           2184:         inPipes[0].pSrc.bRam = (uint8_t*)&CtrlTrfData;
  8784  0024E0  0E38               	movlw	56
  8785  0024E2  6FC2               	movwf	_inPipes& (0+255),b	;volatile
  8786  0024E4  0E04               	movlw	4
  8787  0024E6  6FC3               	movwf	(_inPipes+1)& (0+255),b	;volatile
  8788  0024E8                     
  8789                           ; BSR set to: 0
  8790                           ;mcc_generated_files/usb/usb_device.c: 2185:         inPipes[0].info.bits.ctrl_trf_mem =
      +                           0x01;
  8791  0024E8  81C5               	bsf	(_inPipes+3)& (0+255),0,b	;volatile
  8792  0024EA                     
  8793                           ; BSR set to: 0
  8794                           ;mcc_generated_files/usb/usb_device.c: 2186:         inPipes[0].wCount.v[0] = 2;
  8795  0024EA  0E02               	movlw	2
  8796  0024EC  6FC6               	movwf	(_inPipes+4)& (0+255),b	;volatile
  8797  0024EE                     i2l336:
  8798                           
  8799                           ; BSR set to: 0
  8800  0024EE  0012               	return		;funcret
  8801  0024F0                     __end_of_USBStdGetStatusHandler:
  8802                           	opt callstack 0
  8803                           
  8804 ;; *************** function _USBStdGetDscHandler *****************
  8805 ;; Defined at:
  8806 ;;		line 2047 in file "mcc_generated_files/usb/usb_device.c"
  8807 ;; Parameters:    Size  Location     Type
  8808 ;;		None
  8809 ;; Auto vars:     Size  Location     Type
  8810 ;;		None
  8811 ;; Return value:  Size  Location     Type
  8812 ;;                  1    wreg      void 
  8813 ;; Registers used:
  8814 ;;		wreg, fsr1l, fsr1h, status,2, status,0, tblptrl, tblptrh, tblptru, prodl, prodh
  8815 ;; Tracked objects:
  8816 ;;		On entry : 0/0
  8817 ;;		On exit  : 0/0
  8818 ;;		Unchanged: 0/0
  8819 ;; Data sizes:     COMRAM   BANK0   BANK1   BANK2   BANK3   BANK4   BANK5   BANK6   BANK7
  8820 ;;      Params:         0       0       0       0       0       0       0       0       0
  8821 ;;      Locals:         0       0       0       0       0       0       0       0       0
  8822 ;;      Temps:          2       0       0       0       0       0       0       0       0
  8823 ;;      Totals:         2       0       0       0       0       0       0       0       0
  8824 ;;Total ram usage:        2 bytes
  8825 ;; Hardware stack levels used:    1
  8826 ;; This function calls:
  8827 ;;		Nothing
  8828 ;; This function is called by:
  8829 ;;		_USBCheckStdRequest
  8830 ;; This function uses a non-reentrant model
  8831 ;;
  8832                           
  8833                           	psect	text51
  8834  001488                     __ptext51:
  8835                           	opt callstack 0
  8836  001488                     _USBStdGetDscHandler:
  8837                           	opt callstack 7
  8838  001488                     
  8839                           ;mcc_generated_files/usb/usb_device.c: 2049:     if(SetupPkt.bmRequestType == 0x80)
  8840  001488  0E80               	movlw	128
  8841  00148A  0104               	movlb	4	; () banked
  8842  00148C  1930               	xorwf	48,w,b	;volatile
  8843  00148E  A4D8               	btfss	status,2,c
  8844  001490  EF4C  F00A         	goto	i2u267_41
  8845  001494  EF4E  F00A         	goto	i2u267_40
  8846  001498                     i2u267_41:
  8847  001498  EFFD  F00A         	goto	i2l322
  8848  00149C                     i2u267_40:
  8849  00149C                     
  8850                           ; BSR set to: 4
  8851                           ;mcc_generated_files/usb/usb_device.c: 2050:     {;mcc_generated_files/usb/usb_device.c:
      +                           2051:         inPipes[0].info.Val = 0x00 | 0x80 | 0x40;
  8852  00149C  0EC0               	movlw	192
  8853  00149E  0100               	movlb	0	; () banked
  8854  0014A0  6FC5               	movwf	(_inPipes+3)& (0+255),b	;volatile
  8855                           
  8856                           ;mcc_generated_files/usb/usb_device.c: 2053:         switch(SetupPkt.bDescriptorType)
  8857  0014A2  EFE3  F00A         	goto	i2l3845
  8858  0014A6                     i2l3819:
  8859                           
  8860                           ; BSR set to: 4
  8861                           ;mcc_generated_files/usb/usb_device.c: 2059:                     inPipes[0].pSrc.bRom = 
      +                          (const uint8_t*)&device_dsc;
  8862  0014A6  0E98               	movlw	low _device_dsc
  8863  0014A8  0100               	movlb	0	; () banked
  8864  0014AA  6FC2               	movwf	_inPipes& (0+255),b	;volatile
  8865  0014AC  0E08               	movlw	high _device_dsc
  8866  0014AE  6FC3               	movwf	(_inPipes+1)& (0+255),b	;volatile
  8867  0014B0                     
  8868                           ; BSR set to: 0
  8869                           ;mcc_generated_files/usb/usb_device.c: 2061:                 inPipes[0].wCount.Val = siz
      +                          eof(device_dsc);
  8870  0014B0  0E00               	movlw	0
  8871  0014B2  6FC7               	movwf	(_inPipes+5)& (0+255),b	;volatile
  8872  0014B4  0E12               	movlw	18
  8873  0014B6  6FC6               	movwf	(_inPipes+4)& (0+255),b	;volatile
  8874                           
  8875                           ;mcc_generated_files/usb/usb_device.c: 2062:                 break;
  8876  0014B8  EFFD  F00A         	goto	i2l322
  8877  0014BC                     i2l3823:
  8878                           
  8879                           ; BSR set to: 4
  8880                           ;mcc_generated_files/usb/usb_device.c: 2067:                 if(SetupPkt.bDscIndex < 1)
  8881  0014BC  5132               	movf	50,w,b	;volatile
  8882  0014BE  A4D8               	btfss	status,2,c
  8883  0014C0  EF64  F00A         	goto	i2u268_41
  8884  0014C4  EF66  F00A         	goto	i2u268_40
  8885  0014C8                     i2u268_41:
  8886  0014C8  EFA7  F00A         	goto	i2l3831
  8887  0014CC                     i2u268_40:
  8888  0014CC                     
  8889                           ; BSR set to: 4
  8890                           ;mcc_generated_files/usb/usb_device.c: 2068:                 {;mcc_generated_files/usb/u
      +                          sb_device.c: 2072:                         inPipes[0].pSrc.bRom = *(USB_CD_Ptr+SetupPkt.
      +                          bDscIndex);
  8891  0014CC  5132               	movf	50,w,b	;volatile
  8892  0014CE  0D02               	mullw	2
  8893  0014D0  0E07               	movlw	low _USB_CD_Ptr
  8894  0014D2  24F3               	addwf	243,w,c
  8895  0014D4  6EF6               	movwf	tblptrl,c
  8896  0014D6  0E08               	movlw	high _USB_CD_Ptr
  8897  0014D8  20F4               	addwfc	244,w,c
  8898  0014DA  6EF7               	movwf	tblptrh,c
  8899  0014DC                     	if	0	;There are less than 3 active tblptr bytes
  8900  0014DC                     	endif
  8901  0014DC  0009               	tblrd		*+
  8902  0014DE  CFF5 F0C2          	movff	tablat,_inPipes	;volatile
  8903  0014E2  000A               	tblrd		*-
  8904  0014E4  CFF5 F0C3          	movff	tablat,_inPipes+1	;volatile
  8905  0014E8                     
  8906                           ; BSR set to: 4
  8907                           ;mcc_generated_files/usb/usb_device.c: 2078:                     inPipes[0].wCount.byte.
      +                          LB = *(inPipes[0].pSrc.bRom+2);
  8908  0014E8  0E02               	movlw	2
  8909  0014EA  0100               	movlb	0	; () banked
  8910  0014EC  25C2               	addwf	_inPipes& (0+255),w,b	;volatile
  8911  0014EE  6E01               	movwf	??_USBStdGetDscHandler^0,c
  8912  0014F0  0E00               	movlw	0
  8913  0014F2  21C3               	addwfc	(_inPipes+1)& (0+255),w,b	;volatile
  8914  0014F4  6E02               	movwf	(??_USBStdGetDscHandler+1)^0,c
  8915  0014F6  C001  FFF6         	movff	??_USBStdGetDscHandler,tblptrl
  8916  0014FA  C002  FFF7         	movff	??_USBStdGetDscHandler+1,tblptrh
  8917  0014FE  6AF8               	clrf	tblptru,c
  8918  001500  0E07               	movlw	(high __ramtop+-1)
  8919  001502  64F7               	cpfsgt	tblptrh,c
  8920  001504  D003               	bra	i2u269_47
  8921  001506  0008               	tblrd		*
  8922  001508  50F5               	movf	tablat,w,c
  8923  00150A  D005               	bra	i2u269_40
  8924  00150C                     i2u269_47:
  8925  00150C  CFF6 FFE1          	movff	tblptrl,fsr1l
  8926  001510  CFF7 FFE2          	movff	tblptrh,fsr1h
  8927  001514  50E7               	movf	indf1,w,c
  8928  001516                     i2u269_40:
  8929  001516  0100               	movlb	0	; () banked
  8930  001518  6FC6               	movwf	(_inPipes+4)& (0+255),b	;volatile
  8931  00151A                     
  8932                           ; BSR set to: 0
  8933                           ;mcc_generated_files/usb/usb_device.c: 2079:                     inPipes[0].wCount.byte.
      +                          HB = *(inPipes[0].pSrc.bRom+3);
  8934  00151A  0E03               	movlw	3
  8935  00151C  25C2               	addwf	_inPipes& (0+255),w,b	;volatile
  8936  00151E  6E01               	movwf	??_USBStdGetDscHandler^0,c
  8937  001520  0E00               	movlw	0
  8938  001522  21C3               	addwfc	(_inPipes+1)& (0+255),w,b	;volatile
  8939  001524  6E02               	movwf	(??_USBStdGetDscHandler+1)^0,c
  8940  001526  C001  FFF6         	movff	??_USBStdGetDscHandler,tblptrl
  8941  00152A  C002  FFF7         	movff	??_USBStdGetDscHandler+1,tblptrh
  8942  00152E  6AF8               	clrf	tblptru,c
  8943  001530  0E07               	movlw	(high __ramtop+-1)
  8944  001532  64F7               	cpfsgt	tblptrh,c
  8945  001534  D003               	bra	i2u270_47
  8946  001536  0008               	tblrd		*
  8947  001538  50F5               	movf	tablat,w,c
  8948  00153A  D005               	bra	i2u270_40
  8949  00153C                     i2u270_47:
  8950  00153C  CFF6 FFE1          	movff	tblptrl,fsr1l
  8951  001540  CFF7 FFE2          	movff	tblptrh,fsr1h
  8952  001544  50E7               	movf	indf1,w,c
  8953  001546                     i2u270_40:
  8954  001546  0100               	movlb	0	; () banked
  8955  001548  6FC7               	movwf	(_inPipes+5)& (0+255),b	;volatile
  8956                           
  8957                           ;mcc_generated_files/usb/usb_device.c: 2080:                 }
  8958  00154A  EFFD  F00A         	goto	i2l322
  8959  00154E                     i2l3831:
  8960                           
  8961                           ; BSR set to: 4
  8962                           ;mcc_generated_files/usb/usb_device.c: 2082:     {;mcc_generated_files/usb/usb_device.c:
      +                           2083:      inPipes[0].info.Val = 0;
  8963  00154E  0E00               	movlw	0
  8964  001550  0100               	movlb	0	; () banked
  8965  001552  6FC5               	movwf	(_inPipes+3)& (0+255),b	;volatile
  8966  001554  EFFD  F00A         	goto	i2l322
  8967  001558                     i2l3833:
  8968                           
  8969                           ; BSR set to: 4
  8970                           ;mcc_generated_files/usb/usb_device.c: 2090:                 if(SetupPkt.bDscIndex<3)
  8971  001558  0E03               	movlw	3
  8972  00155A  6132               	cpfslt	50,b	;volatile
  8973  00155C  EFB2  F00A         	goto	i2u271_41
  8974  001560  EFB4  F00A         	goto	i2u271_40
  8975  001564                     i2u271_41:
  8976  001564  EFD9  F00A         	goto	i2l3839
  8977  001568                     i2u271_40:
  8978  001568                     
  8979                           ; BSR set to: 4
  8980                           ;mcc_generated_files/usb/usb_device.c: 2091:                 {;mcc_generated_files/usb/u
      +                          sb_device.c: 2093:                     inPipes[0].pSrc.bRom = *(USB_SD_Ptr+SetupPkt.bDsc
      +                          Index);
  8981  001568  5132               	movf	50,w,b	;volatile
  8982  00156A  0D02               	mullw	2
  8983  00156C  0E01               	movlw	low _USB_SD_Ptr
  8984  00156E  24F3               	addwf	243,w,c
  8985  001570  6EF6               	movwf	tblptrl,c
  8986  001572  0E08               	movlw	high _USB_SD_Ptr
  8987  001574  20F4               	addwfc	244,w,c
  8988  001576  6EF7               	movwf	tblptrh,c
  8989  001578                     	if	0	;There are less than 3 active tblptr bytes
  8990  001578                     	endif
  8991  001578  0009               	tblrd		*+
  8992  00157A  CFF5 F0C2          	movff	tablat,_inPipes	;volatile
  8993  00157E  000A               	tblrd		*-
  8994  001580  CFF5 F0C3          	movff	tablat,_inPipes+1	;volatile
  8995  001584                     
  8996                           ; BSR set to: 4
  8997                           ;mcc_generated_files/usb/usb_device.c: 2095:                     inPipes[0].wCount.Val =
      +                           *inPipes[0].pSrc.bRom;
  8998  001584  C0C2  FFF6         	movff	_inPipes,tblptrl	;volatile
  8999  001588  C0C3  FFF7         	movff	_inPipes+1,tblptrh	;volatile
  9000  00158C  6AF8               	clrf	tblptru,c
  9001  00158E  0E07               	movlw	(high __ramtop+-1)
  9002  001590  64F7               	cpfsgt	tblptrh,c
  9003  001592  D003               	bra	i2u272_47
  9004  001594  0008               	tblrd		*
  9005  001596  50F5               	movf	tablat,w,c
  9006  001598  D005               	bra	i2u272_40
  9007  00159A                     i2u272_47:
  9008  00159A  CFF6 FFE1          	movff	tblptrl,fsr1l
  9009  00159E  CFF7 FFE2          	movff	tblptrh,fsr1h
  9010  0015A2  50E7               	movf	indf1,w,c
  9011  0015A4                     i2u272_40:
  9012  0015A4  6E01               	movwf	??_USBStdGetDscHandler^0,c
  9013  0015A6  5001               	movf	??_USBStdGetDscHandler^0,w,c
  9014  0015A8  0100               	movlb	0	; () banked
  9015  0015AA  6FC6               	movwf	(_inPipes+4)& (0+255),b	;volatile
  9016  0015AC  6BC7               	clrf	(_inPipes+5)& (0+255),b	;volatile
  9017                           
  9018                           ;mcc_generated_files/usb/usb_device.c: 2096:                 }
  9019  0015AE  EFFD  F00A         	goto	i2l322
  9020  0015B2                     i2l3839:
  9021                           
  9022                           ; BSR set to: 4
  9023                           ;mcc_generated_files/usb/usb_device.c: 2107:                 {;mcc_generated_files/usb/u
      +                          sb_device.c: 2108:                     inPipes[0].info.Val = 0;
  9024  0015B2  0E00               	movlw	0
  9025  0015B4  0100               	movlb	0	; () banked
  9026  0015B6  6FC5               	movwf	(_inPipes+3)& (0+255),b	;volatile
  9027  0015B8  EFFD  F00A         	goto	i2l322
  9028  0015BC                     i2l3841:
  9029                           
  9030                           ; BSR set to: 4
  9031                           ;mcc_generated_files/usb/usb_device.c: 2112:                 inPipes[0].info.Val = 0;
  9032  0015BC  0E00               	movlw	0
  9033  0015BE  0100               	movlb	0	; () banked
  9034  0015C0  6FC5               	movwf	(_inPipes+3)& (0+255),b	;volatile
  9035                           
  9036                           ;mcc_generated_files/usb/usb_device.c: 2113:                 break;
  9037  0015C2  EFFD  F00A         	goto	i2l322
  9038  0015C6                     i2l3845:
  9039                           
  9040                           ; BSR set to: 0
  9041  0015C6  0104               	movlb	4	; () banked
  9042  0015C8  5133               	movf	51,w,b	;volatile
  9043  0015CA  6E01               	movwf	??_USBStdGetDscHandler^0,c
  9044  0015CC  6A02               	clrf	(??_USBStdGetDscHandler+1)^0,c
  9045                           
  9046                           ; Switch on 2 bytes has been partitioned into a top level switch of size 1, and 1 sub-sw
      +                          itches
  9047                           ; Switch size 1, requested type "simple"
  9048                           ; Number of cases is 1, Range of values is 0 to 0
  9049                           ; switch strategies available:
  9050                           ; Name         Instructions Cycles
  9051                           ; simple_byte            4     3 (average)
  9052                           ;	Chosen strategy is simple_byte
  9053  0015CE  5002               	movf	(??_USBStdGetDscHandler+1)^0,w,c
  9054  0015D0  0A00               	xorlw	0	; case 0
  9055  0015D2  B4D8               	btfsc	status,2,c
  9056  0015D4  EFEE  F00A         	goto	i2l6215
  9057  0015D8  EFDE  F00A         	goto	i2l3841
  9058  0015DC                     i2l6215:
  9059                           
  9060                           ; BSR set to: 4
  9061                           ; Switch size 1, requested type "simple"
  9062                           ; Number of cases is 3, Range of values is 1 to 3
  9063                           ; switch strategies available:
  9064                           ; Name         Instructions Cycles
  9065                           ; simple_byte           10     6 (average)
  9066                           ;	Chosen strategy is simple_byte
  9067  0015DC  5001               	movf	??_USBStdGetDscHandler^0,w,c
  9068  0015DE  0A01               	xorlw	1	; case 1
  9069  0015E0  B4D8               	btfsc	status,2,c
  9070  0015E2  EF53  F00A         	goto	i2l3819
  9071  0015E6  0A03               	xorlw	3	; case 2
  9072  0015E8  B4D8               	btfsc	status,2,c
  9073  0015EA  EF5E  F00A         	goto	i2l3823
  9074  0015EE  0A01               	xorlw	1	; case 3
  9075  0015F0  B4D8               	btfsc	status,2,c
  9076  0015F2  EFAC  F00A         	goto	i2l3833
  9077  0015F6  EFDE  F00A         	goto	i2l3841
  9078  0015FA                     i2l322:
  9079  0015FA  0012               	return		;funcret
  9080  0015FC                     __end_of_USBStdGetDscHandler:
  9081                           	opt callstack 0
  9082                           
  9083 ;; *************** function _USBStdFeatureReqHandler *****************
  9084 ;; Defined at:
  9085 ;;		line 2758 in file "mcc_generated_files/usb/usb_device.c"
  9086 ;; Parameters:    Size  Location     Type
  9087 ;;		None
  9088 ;; Auto vars:     Size  Location     Type
  9089 ;;  p               2   25[COMRAM] PTR struct __BDT
  9090 ;;		 -> RAM(2047), NULL(0), BDT(48), 
  9091 ;;  pUEP            2   22[COMRAM] PTR unsigned char 
  9092 ;;		 -> UEP0(1), 
  9093 ;;  current_ep_d    1   24[COMRAM] struct .
  9094 ;; Return value:  Size  Location     Type
  9095 ;;                  1    wreg      void 
  9096 ;; Registers used:
  9097 ;;		wreg, fsr2l, fsr2h, status,2, status,0, prodl, prodh, cstack
  9098 ;; Tracked objects:
  9099 ;;		On entry : 0/0
  9100 ;;		On exit  : 0/0
  9101 ;;		Unchanged: 0/0
  9102 ;; Data sizes:     COMRAM   BANK0   BANK1   BANK2   BANK3   BANK4   BANK5   BANK6   BANK7
  9103 ;;      Params:         0       0       0       0       0       0       0       0       0
  9104 ;;      Locals:         5       0       0       0       0       0       0       0       0
  9105 ;;      Temps:          2       0       0       0       0       0       0       0       0
  9106 ;;      Totals:         7       0       0       0       0       0       0       0       0
  9107 ;;Total ram usage:        7 bytes
  9108 ;; Hardware stack levels used:    1
  9109 ;; Hardware stack levels required when called:    4
  9110 ;; This function calls:
  9111 ;;		_USER_USB_CALLBACK_EVENT_HANDLER
  9112 ;; This function is called by:
  9113 ;;		_USBCheckStdRequest
  9114 ;; This function uses a non-reentrant model
  9115 ;;
  9116                           
  9117                           	psect	text52
  9118  0008BA                     __ptext52:
  9119                           	opt callstack 0
  9120  0008BA                     _USBStdFeatureReqHandler:
  9121                           	opt callstack 3
  9122  0008BA                     
  9123                           ;mcc_generated_files/usb/usb_device.c: 2760:     BDT_ENTRY *p;;mcc_generated_files/usb/u
      +                          sb_device.c: 2761:     EP_STATUS current_ep_data;;mcc_generated_files/usb/usb_device.c: 
      +                          2765:         unsigned char* pUEP;;mcc_generated_files/usb/usb_device.c: 2803:     if((S
      +                          etupPkt.bFeature == 1)&&
  9124  0008BA  0104               	movlb	4	; () banked
  9125  0008BC  0532               	decf	50,w,b	;volatile
  9126  0008BE  A4D8               	btfss	status,2,c
  9127  0008C0  EF64  F004         	goto	i2u278_41
  9128  0008C4  EF66  F004         	goto	i2u278_40
  9129  0008C8                     i2u278_41:
  9130  0008C8  EF82  F004         	goto	i2l403
  9131  0008CC                     i2u278_40:
  9132  0008CC                     
  9133                           ; BSR set to: 4
  9134  0008CC  5130               	movf	48,w,b	;volatile
  9135  0008CE  0B1F               	andlw	31
  9136  0008D0  0900               	iorlw	0
  9137  0008D2  A4D8               	btfss	status,2,c
  9138  0008D4  EF6E  F004         	goto	i2u279_41
  9139  0008D8  EF70  F004         	goto	i2u279_40
  9140  0008DC                     i2u279_41:
  9141  0008DC  EF82  F004         	goto	i2l403
  9142  0008E0                     i2u279_40:
  9143  0008E0                     
  9144                           ; BSR set to: 4
  9145                           ;mcc_generated_files/usb/usb_device.c: 2805:     {;mcc_generated_files/usb/usb_device.c:
      +                           2806:         inPipes[0].info.bits.busy = 1;
  9146  0008E0  0100               	movlb	0	; () banked
  9147  0008E2  8FC5               	bsf	(_inPipes+3)& (0+255),7,b	;volatile
  9148  0008E4                     
  9149                           ; BSR set to: 0
  9150                           ;mcc_generated_files/usb/usb_device.c: 2807:         if(SetupPkt.bRequest == 3)
  9151  0008E4  0E03               	movlw	3
  9152  0008E6  0104               	movlb	4	; () banked
  9153  0008E8  1931               	xorwf	49,w,b	;volatile
  9154  0008EA  A4D8               	btfss	status,2,c
  9155  0008EC  EF7A  F004         	goto	i2u280_41
  9156  0008F0  EF7C  F004         	goto	i2u280_40
  9157  0008F4                     i2u280_41:
  9158  0008F4  EF80  F004         	goto	i2l3893
  9159  0008F8                     i2u280_40:
  9160  0008F8                     
  9161                           ; BSR set to: 4
  9162                           ;mcc_generated_files/usb/usb_device.c: 2808:             RemoteWakeup = 1;
  9163  0008F8  0E01               	movlw	1
  9164  0008FA  6E43               	movwf	_RemoteWakeup^0,c	;volatile
  9165  0008FC  EF82  F004         	goto	i2l403
  9166  000900                     i2l3893:
  9167                           
  9168                           ; BSR set to: 4
  9169                           ;mcc_generated_files/usb/usb_device.c: 2810:             RemoteWakeup = 0;
  9170  000900  0E00               	movlw	0
  9171  000902  6E43               	movwf	_RemoteWakeup^0,c	;volatile
  9172  000904                     i2l403:
  9173                           
  9174                           ; BSR set to: 4
  9175                           ;mcc_generated_files/usb/usb_device.c: 2814:     if((SetupPkt.bFeature == 0)&&
  9176  000904  5132               	movf	50,w,b	;volatile
  9177  000906  A4D8               	btfss	status,2,c
  9178  000908  EF88  F004         	goto	i2u281_41
  9179  00090C  EF8A  F004         	goto	i2u281_40
  9180  000910                     i2u281_41:
  9181  000910  EF0A  F006         	goto	i2l426
  9182  000914                     i2u281_40:
  9183  000914                     
  9184                           ; BSR set to: 4
  9185  000914  5130               	movf	48,w,b	;volatile
  9186  000916  0B1F               	andlw	31
  9187  000918  0A02               	xorlw	2
  9188  00091A  A4D8               	btfss	status,2,c
  9189  00091C  EF92  F004         	goto	i2u282_41
  9190  000920  EF94  F004         	goto	i2u282_40
  9191  000924                     i2u282_41:
  9192  000924  EF0A  F006         	goto	i2l426
  9193  000928                     i2u282_40:
  9194  000928                     
  9195                           ; BSR set to: 4
  9196  000928  5134               	movf	52,w,b	;volatile
  9197  00092A  0B0F               	andlw	15
  9198  00092C  0900               	iorlw	0
  9199  00092E  B4D8               	btfsc	status,2,c
  9200  000930  EF9C  F004         	goto	i2u283_41
  9201  000934  EF9E  F004         	goto	i2u283_40
  9202  000938                     i2u283_41:
  9203  000938  EF0A  F006         	goto	i2l426
  9204  00093C                     i2u283_40:
  9205  00093C                     
  9206                           ; BSR set to: 4
  9207  00093C  5134               	movf	52,w,b	;volatile
  9208  00093E  0B0F               	andlw	15
  9209  000940  6E15               	movwf	??_USBStdFeatureReqHandler^0,c
  9210  000942  0E03               	movlw	3
  9211  000944  6015               	cpfslt	??_USBStdFeatureReqHandler^0,c
  9212  000946  EFA7  F004         	goto	i2u284_41
  9213  00094A  EFA9  F004         	goto	i2u284_40
  9214  00094E                     i2u284_41:
  9215  00094E  EF0A  F006         	goto	i2l426
  9216  000952                     i2u284_40:
  9217  000952                     
  9218                           ; BSR set to: 4
  9219  000952  0E20               	movlw	32
  9220  000954  1846               	xorwf	_USBDeviceState^0,w,c	;volatile
  9221  000956  A4D8               	btfss	status,2,c
  9222  000958  EFB0  F004         	goto	i2u285_41
  9223  00095C  EFB2  F004         	goto	i2u285_40
  9224  000960                     i2u285_41:
  9225  000960  EF0A  F006         	goto	i2l426
  9226  000964                     i2u285_40:
  9227  000964                     
  9228                           ; BSR set to: 4
  9229                           ;mcc_generated_files/usb/usb_device.c: 2818:     {;mcc_generated_files/usb/usb_device.c:
      +                           2821:   inPipes[0].info.bits.busy = 1;
  9230  000964  0100               	movlb	0	; () banked
  9231  000966  8FC5               	bsf	(_inPipes+3)& (0+255),7,b	;volatile
  9232                           
  9233                           ;mcc_generated_files/usb/usb_device.c: 2824:         if(SetupPkt.EPDir == 0)
  9234  000968  0104               	movlb	4	; () banked
  9235  00096A  BF34               	btfsc	52,7,b	;volatile
  9236  00096C  EFBA  F004         	goto	i2u286_41
  9237  000970  EFBC  F004         	goto	i2u286_40
  9238  000974                     i2u286_41:
  9239  000974  EFD9  F004         	goto	i2l3909
  9240  000978                     i2u286_40:
  9241  000978                     
  9242                           ; BSR set to: 4
  9243                           ;mcc_generated_files/usb/usb_device.c: 2825:         {;mcc_generated_files/usb/usb_devic
      +                          e.c: 2826:             p = (BDT_ENTRY*)pBDTEntryOut[SetupPkt.EPNum];
  9244  000978  5134               	movf	52,w,b	;volatile
  9245  00097A  0B0F               	andlw	15
  9246  00097C  6E15               	movwf	??_USBStdFeatureReqHandler^0,c
  9247  00097E  5015               	movf	??_USBStdFeatureReqHandler^0,w,c
  9248  000980  0D02               	mullw	2
  9249  000982  0ECE               	movlw	low _pBDTEntryOut
  9250  000984  24F3               	addwf	243,w,c
  9251  000986  6ED9               	movwf	fsr2l,c
  9252  000988  0E00               	movlw	high _pBDTEntryOut
  9253  00098A  20F4               	addwfc	prodh,w,c
  9254  00098C  6EDA               	movwf	fsr2h,c
  9255  00098E  CFDE F01A          	movff	postinc2,USBStdFeatureReqHandler@p
  9256  000992  CFDD F01B          	movff	postdec2,USBStdFeatureReqHandler@p+1
  9257  000996                     
  9258                           ; BSR set to: 4
  9259                           ;mcc_generated_files/usb/usb_device.c: 2827:             current_ep_data.Val = ep_data_o
      +                          ut[SetupPkt.EPNum].Val;
  9260  000996  5134               	movf	52,w,b	;volatile
  9261  000998  0B0F               	andlw	15
  9262  00099A  6E15               	movwf	??_USBStdFeatureReqHandler^0,c
  9263  00099C  6A16               	clrf	(??_USBStdFeatureReqHandler+1)^0,c
  9264  00099E  0EDA               	movlw	low _ep_data_out
  9265  0009A0  2415               	addwf	??_USBStdFeatureReqHandler^0,w,c
  9266  0009A2  6ED9               	movwf	fsr2l,c
  9267  0009A4  0E00               	movlw	high _ep_data_out
  9268  0009A6  2016               	addwfc	(??_USBStdFeatureReqHandler+1)^0,w,c
  9269  0009A8  6EDA               	movwf	fsr2h,c
  9270  0009AA  50DF               	movf	indf2,w,c
  9271  0009AC  6E19               	movwf	USBStdFeatureReqHandler@current_ep_data^0,c
  9272                           
  9273                           ;mcc_generated_files/usb/usb_device.c: 2828:         }
  9274  0009AE  EFF4  F004         	goto	i2l3913
  9275  0009B2                     i2l3909:
  9276                           
  9277                           ; BSR set to: 4
  9278                           ;mcc_generated_files/usb/usb_device.c: 2830:         {;mcc_generated_files/usb/usb_devic
      +                          e.c: 2831:             p = (BDT_ENTRY*)pBDTEntryIn[SetupPkt.EPNum];
  9279  0009B2  5134               	movf	52,w,b	;volatile
  9280  0009B4  0B0F               	andlw	15
  9281  0009B6  6E15               	movwf	??_USBStdFeatureReqHandler^0,c
  9282  0009B8  5015               	movf	??_USBStdFeatureReqHandler^0,w,c
  9283  0009BA  0D02               	mullw	2
  9284  0009BC  0EC8               	movlw	low _pBDTEntryIn
  9285  0009BE  24F3               	addwf	243,w,c
  9286  0009C0  6ED9               	movwf	fsr2l,c
  9287  0009C2  0E00               	movlw	high _pBDTEntryIn
  9288  0009C4  20F4               	addwfc	prodh,w,c
  9289  0009C6  6EDA               	movwf	fsr2h,c
  9290  0009C8  CFDE F01A          	movff	postinc2,USBStdFeatureReqHandler@p
  9291  0009CC  CFDD F01B          	movff	postdec2,USBStdFeatureReqHandler@p+1
  9292  0009D0                     
  9293                           ; BSR set to: 4
  9294                           ;mcc_generated_files/usb/usb_device.c: 2832:             current_ep_data.Val = ep_data_i
      +                          n[SetupPkt.EPNum].Val;
  9295  0009D0  5134               	movf	52,w,b	;volatile
  9296  0009D2  0B0F               	andlw	15
  9297  0009D4  6E15               	movwf	??_USBStdFeatureReqHandler^0,c
  9298  0009D6  6A16               	clrf	(??_USBStdFeatureReqHandler+1)^0,c
  9299  0009D8  0EDD               	movlw	low _ep_data_in
  9300  0009DA  2415               	addwf	??_USBStdFeatureReqHandler^0,w,c
  9301  0009DC  6ED9               	movwf	fsr2l,c
  9302  0009DE  0E00               	movlw	high _ep_data_in
  9303  0009E0  2016               	addwfc	(??_USBStdFeatureReqHandler+1)^0,w,c
  9304  0009E2  6EDA               	movwf	fsr2h,c
  9305  0009E4  50DF               	movf	indf2,w,c
  9306  0009E6  6E19               	movwf	USBStdFeatureReqHandler@current_ep_data^0,c
  9307  0009E8                     i2l3913:
  9308                           
  9309                           ; BSR set to: 4
  9310                           ;mcc_generated_files/usb/usb_device.c: 2839:             if(current_ep_data.bits.ping_po
      +                          ng_state == 0)
  9311  0009E8  B019               	btfsc	USBStdFeatureReqHandler@current_ep_data^0,0,c
  9312  0009EA  EFF9  F004         	goto	i2u287_41
  9313  0009EE  EFFB  F004         	goto	i2u287_40
  9314  0009F2                     i2u287_41:
  9315  0009F2  EF03  F005         	goto	i2l3917
  9316  0009F6                     i2u287_40:
  9317  0009F6                     
  9318                           ; BSR set to: 4
  9319                           ;mcc_generated_files/usb/usb_device.c: 2840:             {;mcc_generated_files/usb/usb_d
      +                          evice.c: 2841:                 p = (BDT_ENTRY*)(((uint16_t)p) & (~0x0004));
  9320  0009F6  0EFB               	movlw	251
  9321  0009F8  141A               	andwf	USBStdFeatureReqHandler@p^0,w,c
  9322  0009FA  6E1A               	movwf	USBStdFeatureReqHandler@p^0,c
  9323  0009FC  0EFF               	movlw	255
  9324  0009FE  141B               	andwf	(USBStdFeatureReqHandler@p+1)^0,w,c
  9325  000A00  6E1B               	movwf	(USBStdFeatureReqHandler@p+1)^0,c
  9326                           
  9327                           ;mcc_generated_files/usb/usb_device.c: 2842:             }
  9328  000A02  EF08  F005         	goto	i2l3919
  9329  000A06                     i2l3917:
  9330                           
  9331                           ; BSR set to: 4
  9332                           ;mcc_generated_files/usb/usb_device.c: 2844:             {;mcc_generated_files/usb/usb_d
      +                          evice.c: 2845:                 p = (BDT_ENTRY*)(((uint16_t)p) | 0x0004);
  9333  000A06  0E04               	movlw	4
  9334  000A08  101A               	iorwf	USBStdFeatureReqHandler@p^0,w,c
  9335  000A0A  6E1A               	movwf	USBStdFeatureReqHandler@p^0,c
  9336  000A0C  501B               	movf	(USBStdFeatureReqHandler@p+1)^0,w,c
  9337  000A0E  6E1B               	movwf	(USBStdFeatureReqHandler@p+1)^0,c
  9338  000A10                     i2l3919:
  9339                           
  9340                           ; BSR set to: 4
  9341                           ;mcc_generated_files/usb/usb_device.c: 2851:         if(SetupPkt.EPDir == 0)
  9342  000A10  BF34               	btfsc	52,7,b	;volatile
  9343  000A12  EF0D  F005         	goto	i2u288_41
  9344  000A16  EF0F  F005         	goto	i2u288_40
  9345  000A1A                     i2u288_41:
  9346  000A1A  EF20  F005         	goto	i2l3923
  9347  000A1E                     i2u288_40:
  9348  000A1E                     
  9349                           ; BSR set to: 4
  9350                           ;mcc_generated_files/usb/usb_device.c: 2852:         {;mcc_generated_files/usb/usb_devic
      +                          e.c: 2853:             pBDTEntryOut[SetupPkt.EPNum] = (volatile BDT_ENTRY *)p;
  9351  000A1E  5134               	movf	52,w,b	;volatile
  9352  000A20  0B0F               	andlw	15
  9353  000A22  6E15               	movwf	??_USBStdFeatureReqHandler^0,c
  9354  000A24  5015               	movf	??_USBStdFeatureReqHandler^0,w,c
  9355  000A26  0D02               	mullw	2
  9356  000A28  0ECE               	movlw	low _pBDTEntryOut
  9357  000A2A  24F3               	addwf	243,w,c
  9358  000A2C  6ED9               	movwf	fsr2l,c
  9359  000A2E  0E00               	movlw	high _pBDTEntryOut
  9360  000A30  20F4               	addwfc	prodh,w,c
  9361  000A32  6EDA               	movwf	fsr2h,c
  9362  000A34  C01A  FFDE         	movff	USBStdFeatureReqHandler@p,postinc2
  9363  000A38  C01B  FFDD         	movff	USBStdFeatureReqHandler@p+1,postdec2
  9364                           
  9365                           ;mcc_generated_files/usb/usb_device.c: 2854:         }
  9366  000A3C  EF2F  F005         	goto	i2l3925
  9367  000A40                     i2l3923:
  9368                           
  9369                           ; BSR set to: 4
  9370                           ;mcc_generated_files/usb/usb_device.c: 2856:         {;mcc_generated_files/usb/usb_devic
      +                          e.c: 2857:             pBDTEntryIn[SetupPkt.EPNum] = (volatile BDT_ENTRY *)p;
  9371  000A40  5134               	movf	52,w,b	;volatile
  9372  000A42  0B0F               	andlw	15
  9373  000A44  6E15               	movwf	??_USBStdFeatureReqHandler^0,c
  9374  000A46  5015               	movf	??_USBStdFeatureReqHandler^0,w,c
  9375  000A48  0D02               	mullw	2
  9376  000A4A  0EC8               	movlw	low _pBDTEntryIn
  9377  000A4C  24F3               	addwf	243,w,c
  9378  000A4E  6ED9               	movwf	fsr2l,c
  9379  000A50  0E00               	movlw	high _pBDTEntryIn
  9380  000A52  20F4               	addwfc	prodh,w,c
  9381  000A54  6EDA               	movwf	fsr2h,c
  9382  000A56  C01A  FFDE         	movff	USBStdFeatureReqHandler@p,postinc2
  9383  000A5A  C01B  FFDD         	movff	USBStdFeatureReqHandler@p+1,postdec2
  9384  000A5E                     i2l3925:
  9385                           
  9386                           ; BSR set to: 4
  9387                           ;mcc_generated_files/usb/usb_device.c: 2861:         if(SetupPkt.bRequest == 3)
  9388  000A5E  0E03               	movlw	3
  9389  000A60  1931               	xorwf	49,w,b	;volatile
  9390  000A62  A4D8               	btfss	status,2,c
  9391  000A64  EF36  F005         	goto	i2u289_41
  9392  000A68  EF38  F005         	goto	i2u289_40
  9393  000A6C                     i2u289_41:
  9394  000A6C  EF72  F005         	goto	i2l3935
  9395  000A70                     i2u289_40:
  9396  000A70                     
  9397                           ; BSR set to: 4
  9398                           ;mcc_generated_files/usb/usb_device.c: 2862:         {;mcc_generated_files/usb/usb_devic
      +                          e.c: 2863:             if(p->STAT.UOWN == 1)
  9399  000A70  C01A  FFD9         	movff	USBStdFeatureReqHandler@p,fsr2l
  9400  000A74  C01B  FFDA         	movff	USBStdFeatureReqHandler@p+1,fsr2h
  9401  000A78  AEDF               	btfss	indf2,7,c
  9402  000A7A  EF41  F005         	goto	i2u290_41
  9403  000A7E  EF43  F005         	goto	i2u290_40
  9404  000A82                     i2u290_41:
  9405  000A82  EF64  F005         	goto	i2l414
  9406  000A86                     i2u290_40:
  9407  000A86                     
  9408                           ; BSR set to: 4
  9409                           ;mcc_generated_files/usb/usb_device.c: 2864:             {;mcc_generated_files/usb/usb_d
      +                          evice.c: 2867:                 if(SetupPkt.EPDir == 0)
  9410  000A86  BF34               	btfsc	52,7,b	;volatile
  9411  000A88  EF48  F005         	goto	i2u291_41
  9412  000A8C  EF4A  F005         	goto	i2u291_40
  9413  000A90                     i2u291_41:
  9414  000A90  EF58  F005         	goto	i2l3933
  9415  000A94                     i2u291_40:
  9416  000A94                     
  9417                           ; BSR set to: 4
  9418                           ;mcc_generated_files/usb/usb_device.c: 2868:                 {;mcc_generated_files/usb/u
      +                          sb_device.c: 2869:                     ep_data_out[SetupPkt.EPNum].bits.transfer_termina
      +                          ted = 1;
  9419  000A94  5134               	movf	52,w,b	;volatile
  9420  000A96  0B0F               	andlw	15
  9421  000A98  6E15               	movwf	??_USBStdFeatureReqHandler^0,c
  9422  000A9A  6A16               	clrf	(??_USBStdFeatureReqHandler+1)^0,c
  9423  000A9C  0EDA               	movlw	low _ep_data_out
  9424  000A9E  2415               	addwf	??_USBStdFeatureReqHandler^0,w,c
  9425  000AA0  6ED9               	movwf	fsr2l,c
  9426  000AA2  0E00               	movlw	high _ep_data_out
  9427  000AA4  2016               	addwfc	(??_USBStdFeatureReqHandler+1)^0,w,c
  9428  000AA6  6EDA               	movwf	fsr2h,c
  9429  000AA8  0100               	movlb	0	; () banked
  9430  000AAA  82DF               	bsf	indf2,1,c
  9431                           
  9432                           ;mcc_generated_files/usb/usb_device.c: 2870:                 }
  9433  000AAC  EF64  F005         	goto	i2l414
  9434  000AB0                     i2l3933:
  9435                           
  9436                           ; BSR set to: 4
  9437                           ;mcc_generated_files/usb/usb_device.c: 2872:                 {;mcc_generated_files/usb/u
      +                          sb_device.c: 2873:                     ep_data_in[SetupPkt.EPNum].bits.transfer_terminat
      +                          ed = 1;
  9438  000AB0  5134               	movf	52,w,b	;volatile
  9439  000AB2  0B0F               	andlw	15
  9440  000AB4  6E15               	movwf	??_USBStdFeatureReqHandler^0,c
  9441  000AB6  6A16               	clrf	(??_USBStdFeatureReqHandler+1)^0,c
  9442  000AB8  0EDD               	movlw	low _ep_data_in
  9443  000ABA  2415               	addwf	??_USBStdFeatureReqHandler^0,w,c
  9444  000ABC  6ED9               	movwf	fsr2l,c
  9445  000ABE  0E00               	movlw	high _ep_data_in
  9446  000AC0  2016               	addwfc	(??_USBStdFeatureReqHandler+1)^0,w,c
  9447  000AC2  6EDA               	movwf	fsr2h,c
  9448  000AC4  0100               	movlb	0	; () banked
  9449  000AC6  82DF               	bsf	indf2,1,c
  9450  000AC8                     i2l414:
  9451                           
  9452                           ;mcc_generated_files/usb/usb_device.c: 2878:             p->STAT.Val |= 0x04;
  9453  000AC8  C01A  FFD9         	movff	USBStdFeatureReqHandler@p,fsr2l
  9454  000ACC  C01B  FFDA         	movff	USBStdFeatureReqHandler@p+1,fsr2h
  9455  000AD0  0E00               	movlw	0
  9456  000AD2  84DB               	bsf	plusw2,2,c
  9457                           
  9458                           ;mcc_generated_files/usb/usb_device.c: 2879:             p->STAT.Val |= 0x80;
  9459  000AD4  C01A  FFD9         	movff	USBStdFeatureReqHandler@p,fsr2l
  9460  000AD8  C01B  FFDA         	movff	USBStdFeatureReqHandler@p+1,fsr2h
  9461  000ADC  0E00               	movlw	0
  9462  000ADE  8EDB               	bsf	plusw2,7,c
  9463                           
  9464                           ;mcc_generated_files/usb/usb_device.c: 2880:         }
  9465  000AE0  EF0A  F006         	goto	i2l426
  9466  000AE4                     i2l3935:
  9467                           
  9468                           ; BSR set to: 4
  9469                           ;mcc_generated_files/usb/usb_device.c: 2882:         {;mcc_generated_files/usb/usb_devic
      +                          e.c: 2886:                 p = (BDT_ENTRY*)(((uint16_t)p) ^ 0x0004);
  9470  000AE4  0E04               	movlw	4
  9471  000AE6  181A               	xorwf	USBStdFeatureReqHandler@p^0,w,c
  9472  000AE8  6E1A               	movwf	USBStdFeatureReqHandler@p^0,c
  9473  000AEA  501B               	movf	(USBStdFeatureReqHandler@p+1)^0,w,c
  9474  000AEC  6E1B               	movwf	(USBStdFeatureReqHandler@p+1)^0,c
  9475  000AEE                     
  9476                           ; BSR set to: 4
  9477                           ;mcc_generated_files/usb/usb_device.c: 2888:                 if(p->STAT.UOWN == 1)
  9478  000AEE  C01A  FFD9         	movff	USBStdFeatureReqHandler@p,fsr2l
  9479  000AF2  C01B  FFDA         	movff	USBStdFeatureReqHandler@p+1,fsr2h
  9480  000AF6  AEDF               	btfss	indf2,7,c
  9481  000AF8  EF80  F005         	goto	i2u292_41
  9482  000AFC  EF82  F005         	goto	i2u292_40
  9483  000B00                     i2u292_41:
  9484  000B00  EF9E  F005         	goto	i2l3945
  9485  000B04                     i2u292_40:
  9486  000B04                     
  9487                           ; BSR set to: 4
  9488                           ;mcc_generated_files/usb/usb_device.c: 2889:                 {;mcc_generated_files/usb/u
      +                          sb_device.c: 2892:                     p->STAT.Val &= (~0x80);
  9489  000B04  C01A  FFD9         	movff	USBStdFeatureReqHandler@p,fsr2l
  9490  000B08  C01B  FFDA         	movff	USBStdFeatureReqHandler@p+1,fsr2h
  9491  000B0C  0E7F               	movlw	127
  9492  000B0E  16DF               	andwf	indf2,f,c
  9493  000B10                     
  9494                           ; BSR set to: 4
  9495                           ;mcc_generated_files/usb/usb_device.c: 2893:                     p->STAT.Val |= 0x40;
  9496  000B10  C01A  FFD9         	movff	USBStdFeatureReqHandler@p,fsr2l
  9497  000B14  C01B  FFDA         	movff	USBStdFeatureReqHandler@p+1,fsr2h
  9498  000B18  0E00               	movlw	0
  9499  000B1A  8CDB               	bsf	plusw2,6,c
  9500  000B1C                     
  9501                           ; BSR set to: 4
  9502                           ;mcc_generated_files/usb/usb_device.c: 2894:                     USER_USB_CALLBACK_EVENT
      +                          _HANDLER((USB_EVENT)EVENT_TRANSFER_TERMINATED,p,sizeof(p));
  9503  000B1C  0E00               	movlw	0
  9504  000B1E  6E0E               	movwf	(USER_USB_CALLBACK_EVENT_HANDLER@event+1)^0,c
  9505  000B20  0E05               	movlw	5
  9506  000B22  6E0D               	movwf	USER_USB_CALLBACK_EVENT_HANDLER@event^0,c
  9507  000B24  C01A  F00F         	movff	USBStdFeatureReqHandler@p,USER_USB_CALLBACK_EVENT_HANDLER@pdata
  9508  000B28  C01B  F010         	movff	USBStdFeatureReqHandler@p+1,USER_USB_CALLBACK_EVENT_HANDLER@pdata+1
  9509  000B2C  0E00               	movlw	0
  9510  000B2E  6E12               	movwf	(USER_USB_CALLBACK_EVENT_HANDLER@size+1)^0,c
  9511  000B30  0E02               	movlw	2
  9512  000B32  6E11               	movwf	USER_USB_CALLBACK_EVENT_HANDLER@size^0,c
  9513  000B34  EC17  F018         	call	_USER_USB_CALLBACK_EVENT_HANDLER	;wreg free
  9514                           
  9515                           ;mcc_generated_files/usb/usb_device.c: 2895:                 }
  9516  000B38  EFA4  F005         	goto	i2l3947
  9517  000B3C                     i2l3945:
  9518                           
  9519                           ; BSR set to: 4
  9520                           ;mcc_generated_files/usb/usb_device.c: 2897:                 {;mcc_generated_files/usb/u
      +                          sb_device.c: 2899:      p->STAT.Val |= 0x40;
  9521  000B3C  C01A  FFD9         	movff	USBStdFeatureReqHandler@p,fsr2l
  9522  000B40  C01B  FFDA         	movff	USBStdFeatureReqHandler@p+1,fsr2h
  9523  000B44  0E00               	movlw	0
  9524  000B46  8CDB               	bsf	plusw2,6,c
  9525  000B48                     i2l3947:
  9526                           
  9527                           ;mcc_generated_files/usb/usb_device.c: 2904:                 p = (BDT_ENTRY*)(((uint16_t
      +                          )p) ^ 0x0004);
  9528  000B48  0E04               	movlw	4
  9529  000B4A  181A               	xorwf	USBStdFeatureReqHandler@p^0,w,c
  9530  000B4C  6E1A               	movwf	USBStdFeatureReqHandler@p^0,c
  9531  000B4E  501B               	movf	(USBStdFeatureReqHandler@p+1)^0,w,c
  9532  000B50  6E1B               	movwf	(USBStdFeatureReqHandler@p+1)^0,c
  9533  000B52                     
  9534                           ;mcc_generated_files/usb/usb_device.c: 2910:                 if((current_ep_data.bits.tr
      +                          ansfer_terminated != 0) || (p->STAT.UOWN == 1))
  9535  000B52  B219               	btfsc	USBStdFeatureReqHandler@current_ep_data^0,1,c
  9536  000B54  EFAE  F005         	goto	i2u293_41
  9537  000B58  EFB0  F005         	goto	i2u293_40
  9538  000B5C                     i2u293_41:
  9539  000B5C  EFBB  F005         	goto	i2l422
  9540  000B60                     i2u293_40:
  9541  000B60  C01A  FFD9         	movff	USBStdFeatureReqHandler@p,fsr2l
  9542  000B64  C01B  FFDA         	movff	USBStdFeatureReqHandler@p+1,fsr2h
  9543  000B68  AEDF               	btfss	indf2,7,c
  9544  000B6A  EFB9  F005         	goto	i2u294_41
  9545  000B6E  EFBB  F005         	goto	i2u294_40
  9546  000B72                     i2u294_41:
  9547  000B72  EFF3  F005         	goto	i2l3961
  9548  000B76                     i2u294_40:
  9549  000B76                     i2l422:
  9550                           
  9551                           ;mcc_generated_files/usb/usb_device.c: 2911:                 {;mcc_generated_files/usb/u
      +                          sb_device.c: 2912:                     if(SetupPkt.EPDir == 0)
  9552  000B76  0104               	movlb	4	; () banked
  9553  000B78  BF34               	btfsc	52,7,b	;volatile
  9554  000B7A  EFC1  F005         	goto	i2u295_41
  9555  000B7E  EFC3  F005         	goto	i2u295_40
  9556  000B82                     i2u295_41:
  9557  000B82  EFD1  F005         	goto	i2l3955
  9558  000B86                     i2u295_40:
  9559  000B86                     
  9560                           ; BSR set to: 4
  9561                           ;mcc_generated_files/usb/usb_device.c: 2913:                     {;mcc_generated_files/u
      +                          sb/usb_device.c: 2914:                         ep_data_out[SetupPkt.EPNum].bits.transfer
      +                          _terminated = 0;
  9562  000B86  5134               	movf	52,w,b	;volatile
  9563  000B88  0B0F               	andlw	15
  9564  000B8A  6E15               	movwf	??_USBStdFeatureReqHandler^0,c
  9565  000B8C  6A16               	clrf	(??_USBStdFeatureReqHandler+1)^0,c
  9566  000B8E  0EDA               	movlw	low _ep_data_out
  9567  000B90  2415               	addwf	??_USBStdFeatureReqHandler^0,w,c
  9568  000B92  6ED9               	movwf	fsr2l,c
  9569  000B94  0E00               	movlw	high _ep_data_out
  9570  000B96  2016               	addwfc	(??_USBStdFeatureReqHandler+1)^0,w,c
  9571  000B98  6EDA               	movwf	fsr2h,c
  9572  000B9A  0100               	movlb	0	; () banked
  9573  000B9C  92DF               	bcf	indf2,1,c
  9574                           
  9575                           ;mcc_generated_files/usb/usb_device.c: 2915:                     }
  9576  000B9E  EFDD  F005         	goto	i2l3957
  9577  000BA2                     i2l3955:
  9578                           
  9579                           ; BSR set to: 4
  9580                           ;mcc_generated_files/usb/usb_device.c: 2917:                     {;mcc_generated_files/u
      +                          sb/usb_device.c: 2918:                         ep_data_in[SetupPkt.EPNum].bits.transfer_
      +                          terminated = 0;
  9581  000BA2  5134               	movf	52,w,b	;volatile
  9582  000BA4  0B0F               	andlw	15
  9583  000BA6  6E15               	movwf	??_USBStdFeatureReqHandler^0,c
  9584  000BA8  6A16               	clrf	(??_USBStdFeatureReqHandler+1)^0,c
  9585  000BAA  0EDD               	movlw	low _ep_data_in
  9586  000BAC  2415               	addwf	??_USBStdFeatureReqHandler^0,w,c
  9587  000BAE  6ED9               	movwf	fsr2l,c
  9588  000BB0  0E00               	movlw	high _ep_data_in
  9589  000BB2  2016               	addwfc	(??_USBStdFeatureReqHandler+1)^0,w,c
  9590  000BB4  6EDA               	movwf	fsr2h,c
  9591  000BB6  0100               	movlb	0	; () banked
  9592  000BB8  92DF               	bcf	indf2,1,c
  9593  000BBA                     i2l3957:
  9594                           
  9595                           ; BSR set to: 0
  9596                           ;mcc_generated_files/usb/usb_device.c: 2921:                     p->STAT.Val &= ~(0x80 |
      +                           0x40 | 0x04);
  9597  000BBA  C01A  FFD9         	movff	USBStdFeatureReqHandler@p,fsr2l
  9598  000BBE  C01B  FFDA         	movff	USBStdFeatureReqHandler@p+1,fsr2h
  9599  000BC2  0E3B               	movlw	59
  9600  000BC4  16DF               	andwf	indf2,f,c
  9601  000BC6                     
  9602                           ; BSR set to: 0
  9603                           ;mcc_generated_files/usb/usb_device.c: 2924:                     USER_USB_CALLBACK_EVENT
      +                          _HANDLER((USB_EVENT)EVENT_TRANSFER_TERMINATED,p,sizeof(p));
  9604  000BC6  0E00               	movlw	0
  9605  000BC8  6E0E               	movwf	(USER_USB_CALLBACK_EVENT_HANDLER@event+1)^0,c
  9606  000BCA  0E05               	movlw	5
  9607  000BCC  6E0D               	movwf	USER_USB_CALLBACK_EVENT_HANDLER@event^0,c
  9608  000BCE  C01A  F00F         	movff	USBStdFeatureReqHandler@p,USER_USB_CALLBACK_EVENT_HANDLER@pdata
  9609  000BD2  C01B  F010         	movff	USBStdFeatureReqHandler@p+1,USER_USB_CALLBACK_EVENT_HANDLER@pdata+1
  9610  000BD6  0E00               	movlw	0
  9611  000BD8  6E12               	movwf	(USER_USB_CALLBACK_EVENT_HANDLER@size+1)^0,c
  9612  000BDA  0E02               	movlw	2
  9613  000BDC  6E11               	movwf	USER_USB_CALLBACK_EVENT_HANDLER@size^0,c
  9614  000BDE  EC17  F018         	call	_USER_USB_CALLBACK_EVENT_HANDLER	;wreg free
  9615                           
  9616                           ;mcc_generated_files/usb/usb_device.c: 2925:                 }
  9617  000BE2  EFF9  F005         	goto	i2l3963
  9618  000BE6                     i2l3961:
  9619                           
  9620                           ;mcc_generated_files/usb/usb_device.c: 2927:                 {;mcc_generated_files/usb/u
      +                          sb_device.c: 2929:                     p->STAT.Val &= ~(0x80 | 0x40 | 0x04);
  9621  000BE6  C01A  FFD9         	movff	USBStdFeatureReqHandler@p,fsr2l
  9622  000BEA  C01B  FFDA         	movff	USBStdFeatureReqHandler@p+1,fsr2h
  9623  000BEE  0E3B               	movlw	59
  9624  000BF0  16DF               	andwf	indf2,f,c
  9625  000BF2                     i2l3963:
  9626                           
  9627                           ;mcc_generated_files/usb/usb_device.c: 2977:                 pUEP = (unsigned char*)(&UE
      +                          P0+SetupPkt.EPNum);
  9628  000BF2  0104               	movlb	4	; () banked
  9629  000BF4  5134               	movf	52,w,b	;volatile
  9630  000BF6  0B0F               	andlw	15
  9631  000BF8  6E15               	movwf	??_USBStdFeatureReqHandler^0,c
  9632  000BFA  6A16               	clrf	(??_USBStdFeatureReqHandler+1)^0,c
  9633  000BFC  0E6A               	movlw	106
  9634  000BFE  2415               	addwf	??_USBStdFeatureReqHandler^0,w,c
  9635  000C00  6E17               	movwf	USBStdFeatureReqHandler@pUEP^0,c
  9636  000C02  0E0F               	movlw	15
  9637  000C04  2016               	addwfc	(??_USBStdFeatureReqHandler+1)^0,w,c
  9638  000C06  6E18               	movwf	(USBStdFeatureReqHandler@pUEP+1)^0,c
  9639  000C08                     
  9640                           ; BSR set to: 4
  9641                           ;mcc_generated_files/usb/usb_device.c: 2981:             *pUEP &= ~0x0001;
  9642  000C08  C017  FFD9         	movff	USBStdFeatureReqHandler@pUEP,fsr2l
  9643  000C0C  C018  FFDA         	movff	USBStdFeatureReqHandler@pUEP+1,fsr2h
  9644  000C10  0EFE               	movlw	254
  9645  000C12  16DF               	andwf	indf2,f,c
  9646  000C14                     i2l426:
  9647  000C14  0012               	return		;funcret
  9648  000C16                     __end_of_USBStdFeatureReqHandler:
  9649                           	opt callstack 0
  9650                           
  9651 ;; *************** function _USER_USB_CALLBACK_EVENT_HANDLER *****************
  9652 ;; Defined at:
  9653 ;;		line 49 in file "mcc_generated_files/usb/usb_device_events.c"
  9654 ;; Parameters:    Size  Location     Type
  9655 ;;  event           2   12[COMRAM] enum E44
  9656 ;;  pdata           2   14[COMRAM] PTR void 
  9657 ;;		 -> RAM(2047), USTATcopy(1), USBActiveConfiguration(1), NULL(0), 
  9658 ;;		 -> BDT(48), 
  9659 ;;  size            2   16[COMRAM] unsigned short 
  9660 ;; Auto vars:     Size  Location     Type
  9661 ;;		None
  9662 ;; Return value:  Size  Location     Type
  9663 ;;                  1    wreg      _Bool 
  9664 ;; Registers used:
  9665 ;;		wreg, fsr2l, fsr2h, status,2, status,0, prodl, prodh, cstack
  9666 ;; Tracked objects:
  9667 ;;		On entry : 0/0
  9668 ;;		On exit  : 0/0
  9669 ;;		Unchanged: 0/0
  9670 ;; Data sizes:     COMRAM   BANK0   BANK1   BANK2   BANK3   BANK4   BANK5   BANK6   BANK7
  9671 ;;      Params:         6       0       0       0       0       0       0       0       0
  9672 ;;      Locals:         0       0       0       0       0       0       0       0       0
  9673 ;;      Temps:          2       0       0       0       0       0       0       0       0
  9674 ;;      Totals:         8       0       0       0       0       0       0       0       0
  9675 ;;Total ram usage:        8 bytes
  9676 ;; Hardware stack levels used:    1
  9677 ;; Hardware stack levels required when called:    3
  9678 ;; This function calls:
  9679 ;;		_CDCInitEP
  9680 ;;		_USBCheckCDCRequest
  9681 ;; This function is called by:
  9682 ;;		_USBDeviceTasks
  9683 ;;		_USBStdSetCfgHandler
  9684 ;;		_USBSuspend
  9685 ;;		_USBWakeFromSuspend
  9686 ;;		_USBCtrlTrfSetupHandler
  9687 ;;		_USBCheckStdRequest
  9688 ;;		_USBStdFeatureReqHandler
  9689 ;; This function uses a non-reentrant model
  9690 ;;
  9691                           
  9692                           	psect	text53
  9693  00302E                     __ptext53:
  9694                           	opt callstack 0
  9695  00302E                     _USER_USB_CALLBACK_EVENT_HANDLER:
  9696                           	opt callstack 7
  9697  00302E                     
  9698                           ;mcc_generated_files/usb/usb_device_events.c: 49: _Bool USER_USB_CALLBACK_EVENT_HANDLER(
      +                          USB_EVENT event, void *pdata, uint16_t size);mcc_generated_files/usb/usb_device_events.c
      +                          : 50: {;mcc_generated_files/usb/usb_device_events.c: 51:     switch( (int) event )
  9699  00302E  EF21  F018         	goto	i2l3595
  9700  003032                     i2l3589:
  9701                           
  9702                           ;mcc_generated_files/usb/usb_device_events.c: 76:             CDCInitEP();
  9703  003032  EC79  F019         	call	_CDCInitEP	;wreg free
  9704                           
  9705                           ;mcc_generated_files/usb/usb_device_events.c: 77:             break;
  9706  003036  EF5A  F018         	goto	i2l716
  9707  00303A                     i2l3591:
  9708                           
  9709                           ;mcc_generated_files/usb/usb_device_events.c: 85:             USBCheckCDCRequest();
  9710  00303A  EC78  F012         	call	_USBCheckCDCRequest	;wreg free
  9711                           
  9712                           ;mcc_generated_files/usb/usb_device_events.c: 86:             break;
  9713  00303E  EF5A  F018         	goto	i2l716
  9714  003042                     i2l3595:
  9715  003042  C00D  F013         	movff	USER_USB_CALLBACK_EVENT_HANDLER@event,??_USER_USB_CALLBACK_EVENT_HANDLER
  9716  003046  C00E  F014         	movff	USER_USB_CALLBACK_EVENT_HANDLER@event+1,??_USER_USB_CALLBACK_EVENT_HANDLER+1
  9717                           
  9718                           ; Switch on 2 bytes has been partitioned into a top level switch of size 1, and 2 sub-sw
      +                          itches
  9719                           ; Switch size 1, requested type "simple"
  9720                           ; Number of cases is 2, Range of values is 0 to 127
  9721                           ; switch strategies available:
  9722                           ; Name         Instructions Cycles
  9723                           ; simple_byte            7     4 (average)
  9724                           ;	Chosen strategy is simple_byte
  9725  00304A  5014               	movf	(??_USER_USB_CALLBACK_EVENT_HANDLER+1)^0,w,c
  9726  00304C  0A00               	xorlw	0	; case 0
  9727  00304E  B4D8               	btfsc	status,2,c
  9728  003050  EF30  F018         	goto	i2l6217
  9729  003054  0A7F               	xorlw	127	; case 127
  9730  003056  B4D8               	btfsc	status,2,c
  9731  003058  EF53  F018         	goto	i2l6219
  9732  00305C  EF5A  F018         	goto	i2l716
  9733  003060                     i2l6217:
  9734                           
  9735                           ; Switch size 1, requested type "simple"
  9736                           ; Number of cases is 8, Range of values is 1 to 117
  9737                           ; switch strategies available:
  9738                           ; Name         Instructions Cycles
  9739                           ; simple_byte           25    13 (average)
  9740                           ;	Chosen strategy is simple_byte
  9741  003060  5013               	movf	??_USER_USB_CALLBACK_EVENT_HANDLER^0,w,c
  9742  003062  0A01               	xorlw	1	; case 1
  9743  003064  B4D8               	btfsc	status,2,c
  9744  003066  EF19  F018         	goto	i2l3589
  9745  00306A  0A03               	xorlw	3	; case 2
  9746  00306C  B4D8               	btfsc	status,2,c
  9747  00306E  EF5A  F018         	goto	i2l716
  9748  003072  0A01               	xorlw	1	; case 3
  9749  003074  B4D8               	btfsc	status,2,c
  9750  003076  EF1D  F018         	goto	i2l3591
  9751  00307A  0A06               	xorlw	6	; case 5
  9752  00307C  B4D8               	btfsc	status,2,c
  9753  00307E  EF5A  F018         	goto	i2l716
  9754  003082  0A77               	xorlw	119	; case 114
  9755  003084  B4D8               	btfsc	status,2,c
  9756  003086  EF5A  F018         	goto	i2l716
  9757  00308A  0A01               	xorlw	1	; case 115
  9758  00308C  B4D8               	btfsc	status,2,c
  9759  00308E  EF5A  F018         	goto	i2l716
  9760  003092  0A07               	xorlw	7	; case 116
  9761  003094  B4D8               	btfsc	status,2,c
  9762  003096  EF5A  F018         	goto	i2l716
  9763  00309A  0A01               	xorlw	1	; case 117
  9764  00309C  B4D8               	btfsc	status,2,c
  9765  00309E  EF5A  F018         	goto	i2l716
  9766  0030A2  EF5A  F018         	goto	i2l716
  9767  0030A6                     i2l6219:
  9768                           
  9769                           ; Switch size 1, requested type "simple"
  9770                           ; Number of cases is 1, Range of values is 255 to 255
  9771                           ; switch strategies available:
  9772                           ; Name         Instructions Cycles
  9773                           ; simple_byte            4     3 (average)
  9774                           ;	Chosen strategy is simple_byte
  9775  0030A6  5013               	movf	??_USER_USB_CALLBACK_EVENT_HANDLER^0,w,c
  9776  0030A8  0AFF               	xorlw	255	; case 255
  9777  0030AA  B4D8               	btfsc	status,2,c
  9778  0030AC  EF5A  F018         	goto	i2l716
  9779  0030B0  EF5A  F018         	goto	i2l716
  9780  0030B4                     i2l716:
  9781  0030B4  0012               	return		;funcret
  9782  0030B6                     __end_of_USER_USB_CALLBACK_EVENT_HANDLER:
  9783                           	opt callstack 0
  9784                           
  9785 ;; *************** function _USBCheckCDCRequest *****************
  9786 ;; Defined at:
  9787 ;;		line 147 in file "mcc_generated_files/usb/usb_device_cdc.c"
  9788 ;; Parameters:    Size  Location     Type
  9789 ;;		None
  9790 ;; Auto vars:     Size  Location     Type
  9791 ;;		None
  9792 ;; Return value:  Size  Location     Type
  9793 ;;                  1    wreg      void 
  9794 ;; Registers used:
  9795 ;;		wreg, status,2, status,0
  9796 ;; Tracked objects:
  9797 ;;		On entry : 0/0
  9798 ;;		On exit  : 0/0
  9799 ;;		Unchanged: 0/0
  9800 ;; Data sizes:     COMRAM   BANK0   BANK1   BANK2   BANK3   BANK4   BANK5   BANK6   BANK7
  9801 ;;      Params:         0       0       0       0       0       0       0       0       0
  9802 ;;      Locals:         0       0       0       0       0       0       0       0       0
  9803 ;;      Temps:          2       0       0       0       0       0       0       0       0
  9804 ;;      Totals:         2       0       0       0       0       0       0       0       0
  9805 ;;Total ram usage:        2 bytes
  9806 ;; Hardware stack levels used:    1
  9807 ;; This function calls:
  9808 ;;		Nothing
  9809 ;; This function is called by:
  9810 ;;		_USER_USB_CALLBACK_EVENT_HANDLER
  9811 ;; This function uses a non-reentrant model
  9812 ;;
  9813                           
  9814                           	psect	text54
  9815  0024F0                     __ptext54:
  9816                           	opt callstack 0
  9817  0024F0                     _USBCheckCDCRequest:
  9818                           	opt callstack 9
  9819  0024F0                     
  9820                           ;mcc_generated_files/usb/usb_device_cdc.c: 152:     if(SetupPkt.Recipient != (0x01)) ret
      +                          urn;
  9821  0024F0  0104               	movlb	4	; () banked
  9822  0024F2  5130               	movf	48,w,b	;volatile
  9823  0024F4  0B1F               	andlw	31
  9824  0024F6  06E8               	decf	wreg,f,c
  9825  0024F8  B4D8               	btfsc	status,2,c
  9826  0024FA  EF81  F012         	goto	i2u230_41
  9827  0024FE  EF83  F012         	goto	i2u230_40
  9828  002502                     i2u230_41:
  9829  002502  EF85  F012         	goto	i2l3501
  9830  002506                     i2u230_40:
  9831  002506  EFFD  F012         	goto	i2l550
  9832  00250A                     i2l3501:
  9833                           
  9834                           ; BSR set to: 4
  9835                           ;mcc_generated_files/usb/usb_device_cdc.c: 157:     if(SetupPkt.RequestType != (0x20>>5)
      +                          ) return;
  9836  00250A  3930               	swapf	48,w,b	;volatile
  9837  00250C  32E8               	rrcf	wreg,f,c
  9838  00250E  0B03               	andlw	3
  9839  002510  06E8               	decf	wreg,f,c
  9840  002512  B4D8               	btfsc	status,2,c
  9841  002514  EF8E  F012         	goto	i2u231_41
  9842  002518  EF90  F012         	goto	i2u231_40
  9843  00251C                     i2u231_41:
  9844  00251C  EF92  F012         	goto	i2l3505
  9845  002520                     i2u231_40:
  9846  002520  EFFD  F012         	goto	i2l550
  9847  002524                     i2l3505:
  9848                           
  9849                           ; BSR set to: 4
  9850                           ;mcc_generated_files/usb/usb_device_cdc.c: 163:     if((SetupPkt.bIntfID != 0x0)&&
  9851  002524  5134               	movf	52,w,b	;volatile
  9852  002526  B4D8               	btfsc	status,2,c
  9853  002528  EF98  F012         	goto	i2u232_41
  9854  00252C  EF9A  F012         	goto	i2u232_40
  9855  002530                     i2u232_41:
  9856  002530  EFDC  F012         	goto	i2l3535
  9857  002534                     i2u232_40:
  9858  002534                     
  9859                           ; BSR set to: 4
  9860  002534  0534               	decf	52,w,b	;volatile
  9861  002536  B4D8               	btfsc	status,2,c
  9862  002538  EFA0  F012         	goto	i2u233_41
  9863  00253C  EFA2  F012         	goto	i2u233_40
  9864  002540                     i2u233_41:
  9865  002540  EFDC  F012         	goto	i2l3535
  9866  002544                     i2u233_40:
  9867  002544  EFFD  F012         	goto	i2l550
  9868  002548                     i2l3511:
  9869                           
  9870                           ; BSR set to: 4
  9871                           ;mcc_generated_files/usb/usb_device_cdc.c: 171:             inPipes[0].pSrc.bRam = (uint
      +                          8_t*)&dummy_encapsulated_cmd_response;
  9872  002548  0EEB               	movlw	low _dummy_encapsulated_cmd_response
  9873  00254A  0100               	movlb	0	; () banked
  9874  00254C  6FC2               	movwf	_inPipes& (0+255),b	;volatile
  9875  00254E  0E00               	movlw	high _dummy_encapsulated_cmd_response
  9876  002550  6FC3               	movwf	(_inPipes+1)& (0+255),b	;volatile
  9877  002552                     
  9878                           ; BSR set to: 0
  9879                           ;mcc_generated_files/usb/usb_device_cdc.c: 172:             inPipes[0].wCount.Val = 0x08
      +                          ;
  9880  002552  0E00               	movlw	0
  9881  002554  6FC7               	movwf	(_inPipes+5)& (0+255),b	;volatile
  9882  002556  0E08               	movlw	8
  9883  002558  6FC6               	movwf	(_inPipes+4)& (0+255),b	;volatile
  9884  00255A                     
  9885                           ; BSR set to: 0
  9886                           ;mcc_generated_files/usb/usb_device_cdc.c: 173:             inPipes[0].info.bits.ctrl_tr
      +                          f_mem = 0x01;
  9887  00255A  81C5               	bsf	(_inPipes+3)& (0+255),0,b	;volatile
  9888  00255C                     
  9889                           ; BSR set to: 0
  9890                           ;mcc_generated_files/usb/usb_device_cdc.c: 174:             inPipes[0].info.bits.busy = 
      +                          1;
  9891  00255C  8FC5               	bsf	(_inPipes+3)& (0+255),7,b	;volatile
  9892                           
  9893                           ;mcc_generated_files/usb/usb_device_cdc.c: 175:             break;
  9894  00255E  EFFD  F012         	goto	i2l550
  9895  002562                     i2l3519:
  9896                           
  9897                           ; BSR set to: 4
  9898                           ;mcc_generated_files/usb/usb_device_cdc.c: 178:             inPipes[0].pSrc.bRam = (uint
      +                          8_t*)&dummy_encapsulated_cmd_response;
  9899  002562  0EEB               	movlw	low _dummy_encapsulated_cmd_response
  9900  002564  0100               	movlb	0	; () banked
  9901  002566  6FC2               	movwf	_inPipes& (0+255),b	;volatile
  9902  002568  0E00               	movlw	high _dummy_encapsulated_cmd_response
  9903  00256A  6FC3               	movwf	(_inPipes+1)& (0+255),b	;volatile
  9904  00256C                     
  9905                           ; BSR set to: 0
  9906                           ;mcc_generated_files/usb/usb_device_cdc.c: 179:             inPipes[0].info.bits.busy = 
      +                          1;
  9907  00256C  8FC5               	bsf	(_inPipes+3)& (0+255),7,b	;volatile
  9908                           
  9909                           ;mcc_generated_files/usb/usb_device_cdc.c: 180:             break;
  9910  00256E  EFFD  F012         	goto	i2l550
  9911  002572                     i2l557:
  9912                           
  9913                           ; BSR set to: 4
  9914                           ;mcc_generated_files/usb/usb_device_cdc.c: 185:             outPipes[0].wCount.Val = Set
      +                          upPkt.wLength;
  9915  002572  C436 F0BE          	movff	1078,_outPipes+4	;volatile
  9916  002576  C437 F0BF          	movff	1079,_outPipes+5	;volatile
  9917  00257A                     
  9918                           ; BSR set to: 4
  9919                           ;mcc_generated_files/usb/usb_device_cdc.c: 186:             outPipes[0].pDst.bRam = (uin
      +                          t8_t*)&line_coding._byte[0];
  9920  00257A  0E47               	movlw	low _line_coding
  9921  00257C  0100               	movlb	0	; () banked
  9922  00257E  6FBA               	movwf	_outPipes& (0+255),b	;volatile
  9923  002580  0E00               	movlw	high _line_coding
  9924  002582  6FBB               	movwf	(_outPipes+1)& (0+255),b	;volatile
  9925                           
  9926                           ;mcc_generated_files/usb/usb_device_cdc.c: 187:             outPipes[0].pFunc = ((void*)
      +                          0);
  9927  002584  0E00               	movlw	0
  9928  002586  6FC0               	movwf	(_outPipes+6)& (0+255),b	;volatile
  9929  002588  0E00               	movlw	0
  9930  00258A  6FC1               	movwf	(_outPipes+7)& (0+255),b	;volatile
  9931  00258C                     
  9932                           ; BSR set to: 0
  9933                           ;mcc_generated_files/usb/usb_device_cdc.c: 188:             outPipes[0].info.bits.busy =
      +                           1;
  9934  00258C  8FBD               	bsf	(_outPipes+3)& (0+255),7,b	;volatile
  9935                           
  9936                           ;mcc_generated_files/usb/usb_device_cdc.c: 189:             break;
  9937  00258E  EFFD  F012         	goto	i2l550
  9938  002592                     i2l3527:
  9939                           
  9940                           ; BSR set to: 4
  9941                           ;mcc_generated_files/usb/usb_device_cdc.c: 192:             { inPipes[0].pSrc.bRam = (ui
      +                          nt8_t*)&line_coding; inPipes[0].wCount.Val = 0x07; inPipes[0].info.Val = 0x40 | 0x80 | 0
      +                          x01; };
  9942  002592  0E47               	movlw	low _line_coding
  9943  002594  0100               	movlb	0	; () banked
  9944  002596  6FC2               	movwf	_inPipes& (0+255),b	;volatile
  9945  002598  0E00               	movlw	high _line_coding
  9946  00259A  6FC3               	movwf	(_inPipes+1)& (0+255),b	;volatile
  9947  00259C                     
  9948                           ; BSR set to: 0
  9949  00259C  0E00               	movlw	0
  9950  00259E  6FC7               	movwf	(_inPipes+5)& (0+255),b	;volatile
  9951  0025A0  0E07               	movlw	7
  9952  0025A2  6FC6               	movwf	(_inPipes+4)& (0+255),b	;volatile
  9953  0025A4                     
  9954                           ; BSR set to: 0
  9955  0025A4  0EC1               	movlw	193
  9956  0025A6  6FC5               	movwf	(_inPipes+3)& (0+255),b	;volatile
  9957                           
  9958                           ;mcc_generated_files/usb/usb_device_cdc.c: 196:             break;
  9959  0025A8  EFFD  F012         	goto	i2l550
  9960  0025AC                     i2l559:
  9961                           
  9962                           ; BSR set to: 4
  9963                           ;mcc_generated_files/usb/usb_device_cdc.c: 199:             control_signal_bitmap._byte 
      +                          = (uint8_t)SetupPkt.wValue;
  9964  0025AC  C432 F03A          	movff	1074,_control_signal_bitmap	;volatile
  9965                           
  9966                           ;mcc_generated_files/usb/usb_device_cdc.c: 231:             inPipes[0].info.bits.busy = 
      +                          1;
  9967  0025B0  0100               	movlb	0	; () banked
  9968  0025B2  8FC5               	bsf	(_inPipes+3)& (0+255),7,b	;volatile
  9969                           
  9970                           ;mcc_generated_files/usb/usb_device_cdc.c: 232:             break;
  9971  0025B4  EFFD  F012         	goto	i2l550
  9972  0025B8                     i2l3535:
  9973                           
  9974                           ; BSR set to: 4
  9975  0025B8  5131               	movf	49,w,b	;volatile
  9976  0025BA  6E01               	movwf	??_USBCheckCDCRequest^0,c
  9977  0025BC  6A02               	clrf	(??_USBCheckCDCRequest+1)^0,c
  9978                           
  9979                           ; Switch on 2 bytes has been partitioned into a top level switch of size 1, and 1 sub-sw
      +                          itches
  9980                           ; Switch size 1, requested type "simple"
  9981                           ; Number of cases is 1, Range of values is 0 to 0
  9982                           ; switch strategies available:
  9983                           ; Name         Instructions Cycles
  9984                           ; simple_byte            4     3 (average)
  9985                           ;	Chosen strategy is simple_byte
  9986  0025BE  5002               	movf	(??_USBCheckCDCRequest+1)^0,w,c
  9987  0025C0  0A00               	xorlw	0	; case 0
  9988  0025C2  B4D8               	btfsc	status,2,c
  9989  0025C4  EFE6  F012         	goto	i2l6221
  9990  0025C8  EFFD  F012         	goto	i2l550
  9991  0025CC                     i2l6221:
  9992                           
  9993                           ; BSR set to: 4
  9994                           ; Switch size 1, requested type "simple"
  9995                           ; Number of cases is 5, Range of values is 0 to 34
  9996                           ; switch strategies available:
  9997                           ; Name         Instructions Cycles
  9998                           ; simple_byte           16     9 (average)
  9999                           ;	Chosen strategy is simple_byte
 10000  0025CC  5001               	movf	??_USBCheckCDCRequest^0,w,c
 10001  0025CE  0A00               	xorlw	0	; case 0
 10002  0025D0  B4D8               	btfsc	status,2,c
 10003  0025D2  EFA4  F012         	goto	i2l3511
 10004  0025D6  0A01               	xorlw	1	; case 1
 10005  0025D8  B4D8               	btfsc	status,2,c
 10006  0025DA  EFB1  F012         	goto	i2l3519
 10007  0025DE  0A21               	xorlw	33	; case 32
 10008  0025E0  B4D8               	btfsc	status,2,c
 10009  0025E2  EFB9  F012         	goto	i2l557
 10010  0025E6  0A01               	xorlw	1	; case 33
 10011  0025E8  B4D8               	btfsc	status,2,c
 10012  0025EA  EFC9  F012         	goto	i2l3527
 10013  0025EE  0A03               	xorlw	3	; case 34
 10014  0025F0  B4D8               	btfsc	status,2,c
 10015  0025F2  EFD6  F012         	goto	i2l559
 10016  0025F6  EFFD  F012         	goto	i2l550
 10017  0025FA                     i2l550:
 10018  0025FA  0012               	return		;funcret
 10019  0025FC                     __end_of_USBCheckCDCRequest:
 10020                           	opt callstack 0
 10021                           
 10022 ;; *************** function _CDCInitEP *****************
 10023 ;; Defined at:
 10024 ;;		line 294 in file "mcc_generated_files/usb/usb_device_cdc.c"
 10025 ;; Parameters:    Size  Location     Type
 10026 ;;		None
 10027 ;; Auto vars:     Size  Location     Type
 10028 ;;		None
 10029 ;; Return value:  Size  Location     Type
 10030 ;;                  1    wreg      void 
 10031 ;; Registers used:
 10032 ;;		wreg, fsr2l, fsr2h, status,2, status,0, prodl, prodh, cstack
 10033 ;; Tracked objects:
 10034 ;;		On entry : 0/0
 10035 ;;		On exit  : 0/0
 10036 ;;		Unchanged: 0/0
 10037 ;; Data sizes:     COMRAM   BANK0   BANK1   BANK2   BANK3   BANK4   BANK5   BANK6   BANK7
 10038 ;;      Params:         0       0       0       0       0       0       0       0       0
 10039 ;;      Locals:         0       0       0       0       0       0       0       0       0
 10040 ;;      Temps:          0       0       0       0       0       0       0       0       0
 10041 ;;      Totals:         0       0       0       0       0       0       0       0       0
 10042 ;;Total ram usage:        0 bytes
 10043 ;; Hardware stack levels used:    1
 10044 ;; Hardware stack levels required when called:    2
 10045 ;; This function calls:
 10046 ;;		_USBEnableEndpoint
 10047 ;;		i2_USBTransferOnePacket
 10048 ;; This function is called by:
 10049 ;;		_USER_USB_CALLBACK_EVENT_HANDLER
 10050 ;; This function uses a non-reentrant model
 10051 ;;
 10052                           
 10053                           	psect	text55
 10054  0032F2                     __ptext55:
 10055                           	opt callstack 0
 10056  0032F2                     _CDCInitEP:
 10057                           	opt callstack 7
 10058  0032F2                     
 10059                           ;mcc_generated_files/usb/usb_device_cdc.c: 297:     line_coding.dwDTERate = 19200;
 10060  0032F2  0E00               	movlw	0
 10061  0032F4  6E47               	movwf	_line_coding^0,c
 10062  0032F6  0E4B               	movlw	75
 10063  0032F8  6E48               	movwf	(_line_coding+1)^0,c
 10064  0032FA  0E00               	movlw	0
 10065  0032FC  6E49               	movwf	(_line_coding+2)^0,c
 10066  0032FE  0E00               	movlw	0
 10067  003300  6E4A               	movwf	(_line_coding+3)^0,c
 10068                           
 10069                           ;mcc_generated_files/usb/usb_device_cdc.c: 298:     line_coding.bCharFormat = 0x00;
 10070  003302  0E00               	movlw	0
 10071  003304  6E4B               	movwf	(_line_coding+4)^0,c
 10072                           
 10073                           ;mcc_generated_files/usb/usb_device_cdc.c: 299:     line_coding.bParityType = 0x00;
 10074  003306  0E00               	movlw	0
 10075  003308  6E4C               	movwf	(_line_coding+5)^0,c
 10076                           
 10077                           ;mcc_generated_files/usb/usb_device_cdc.c: 300:     line_coding.bDataBits = 0x08;
 10078  00330A  0E08               	movlw	8
 10079  00330C  6E4D               	movwf	(_line_coding+6)^0,c
 10080                           
 10081                           ;mcc_generated_files/usb/usb_device_cdc.c: 302:     cdc_rx_len = 0;
 10082  00330E  0E00               	movlw	0
 10083  003310  0100               	movlb	0	; () banked
 10084  003312  6FE8               	movwf	_cdc_rx_len& (0+255),b
 10085  003314                     
 10086                           ; BSR set to: 0
 10087                           ;mcc_generated_files/usb/usb_device_cdc.c: 315:     USBEnableEndpoint(1,0x02|0x10|0x08);
 10088  003314  0E1A               	movlw	26
 10089  003316  6E09               	movwf	USBEnableEndpoint@options^0,c
 10090  003318  0E01               	movlw	1
 10091  00331A  ECEA  F01A         	call	_USBEnableEndpoint
 10092  00331E                     
 10093                           ;mcc_generated_files/usb/usb_device_cdc.c: 316:     USBEnableEndpoint(2,0x02|0x04|0x10|0
      +                          x08);
 10094  00331E  0E1E               	movlw	30
 10095  003320  6E09               	movwf	USBEnableEndpoint@options^0,c
 10096  003322  0E02               	movlw	2
 10097  003324  ECEA  F01A         	call	_USBEnableEndpoint
 10098  003328                     
 10099                           ;mcc_generated_files/usb/usb_device_cdc.c: 318:     CDCDataOutHandle = USBTransferOnePac
      +                          ket(2,0,(uint8_t*)&cdc_data_rx,sizeof(cdc_data_rx));
 10100  003328  0E00               	movlw	0
 10101  00332A  6E01               	movwf	i2USBTransferOnePacket@dir^0,c
 10102  00332C  0E40               	movlw	64
 10103  00332E  6E02               	movwf	i2USBTransferOnePacket@data^0,c
 10104  003330  0E05               	movlw	5
 10105  003332  6E03               	movwf	(i2USBTransferOnePacket@data+1)^0,c
 10106  003334  0E40               	movlw	64
 10107  003336  6E04               	movwf	i2USBTransferOnePacket@len^0,c
 10108  003338  0E02               	movlw	2
 10109  00333A  EC37  F010         	call	i2_USBTransferOnePacket
 10110  00333E  C001  F0E4         	movff	?i2_USBTransferOnePacket,_CDCDataOutHandle
 10111  003342  C002  F0E5         	movff	?i2_USBTransferOnePacket+1,_CDCDataOutHandle+1
 10112  003346                     
 10113                           ;mcc_generated_files/usb/usb_device_cdc.c: 319:     CDCDataInHandle = ((void*)0);
 10114  003346  0E00               	movlw	0
 10115  003348  0100               	movlb	0	; () banked
 10116  00334A  6FE2               	movwf	_CDCDataInHandle& (0+255),b
 10117  00334C  0E00               	movlw	0
 10118  00334E  6FE3               	movwf	(_CDCDataInHandle+1)& (0+255),b
 10119  003350                     
 10120                           ; BSR set to: 0
 10121                           ;mcc_generated_files/usb/usb_device_cdc.c: 346:     cdc_trf_state = 0;
 10122  003350  0E00               	movlw	0
 10123  003352  0101               	movlb	1	; () banked
 10124  003354  6F06               	movwf	_cdc_trf_state& (0+255),b
 10125  003356                     
 10126                           ; BSR set to: 1
 10127  003356  0012               	return		;funcret
 10128  003358                     __end_of_CDCInitEP:
 10129                           	opt callstack 0
 10130                           
 10131 ;; *************** function i2_USBTransferOnePacket *****************
 10132 ;; Defined at:
 10133 ;;		line 999 in file "mcc_generated_files/usb/usb_device.c"
 10134 ;; Parameters:    Size  Location     Type
 10135 ;;  ep              1    wreg     unsigned char 
 10136 ;;  dir             1    0[COMRAM] unsigned char 
 10137 ;;  data            2    1[COMRAM] PTR unsigned char 
 10138 ;;		 -> cdc_data_tx(64), cdc_data_rx(64), NULL(0), 
 10139 ;;  len             1    3[COMRAM] unsigned char 
 10140 ;; Auto vars:     Size  Location     Type
 10141 ;;  ep              1    8[COMRAM] unsigned char 
 10142 ;;  USBTransferO    2    9[COMRAM] PTR volatile struct __BD
 10143 ;;		 -> RAM(2047), NULL(0), BDT(48), 
 10144 ;; Return value:  Size  Location     Type
 10145 ;;                  2    0[COMRAM] PTR void 
 10146 ;; Registers used:
 10147 ;;		wreg, fsr2l, fsr2h, status,2, status,0, prodl, prodh
 10148 ;; Tracked objects:
 10149 ;;		On entry : 0/0
 10150 ;;		On exit  : 0/0
 10151 ;;		Unchanged: 0/0
 10152 ;; Data sizes:     COMRAM   BANK0   BANK1   BANK2   BANK3   BANK4   BANK5   BANK6   BANK7
 10153 ;;      Params:         4       0       0       0       0       0       0       0       0
 10154 ;;      Locals:         3       0       0       0       0       0       0       0       0
 10155 ;;      Temps:          4       0       0       0       0       0       0       0       0
 10156 ;;      Totals:        11       0       0       0       0       0       0       0       0
 10157 ;;Total ram usage:       11 bytes
 10158 ;; Hardware stack levels used:    1
 10159 ;; This function calls:
 10160 ;;		Nothing
 10161 ;; This function is called by:
 10162 ;;		_CDCInitEP
 10163 ;; This function uses a non-reentrant model
 10164 ;;
 10165                           
 10166                           	psect	text56
 10167  00206E                     __ptext56:
 10168                           	opt callstack 0
 10169  00206E                     i2_USBTransferOnePacket:
 10170                           	opt callstack 8
 10171                           
 10172                           ; BSR set to: 1
 10173                           ;incstack = 0
 10174                           ;i2USBTransferOnePacket@ep stored from wreg
 10175  00206E  6E09               	movwf	i2USBTransferOnePacket@ep^0,c
 10176  002070                     
 10177                           ;mcc_generated_files/usb/usb_device.c: 999: void* USBTransferOnePacket(uint8_t ep,uint8_
      +                          t dir,uint8_t* data,uint8_t len);mcc_generated_files/usb/usb_device.c: 1000: {;mcc_gener
      +                          ated_files/usb/usb_device.c: 1001:     volatile BDT_ENTRY* handle;;mcc_generated_files/u
      +                          sb/usb_device.c: 1004:     if(dir != 0)
 10178  002070  5001               	movf	i2USBTransferOnePacket@dir^0,w,c
 10179  002072  B4D8               	btfsc	status,2,c
 10180  002074  EF3E  F010         	goto	i2u227_41
 10181  002078  EF40  F010         	goto	i2u227_40
 10182  00207C                     i2u227_41:
 10183  00207C  EF4E  F010         	goto	i2l3471
 10184  002080                     i2u227_40:
 10185  002080                     
 10186                           ;mcc_generated_files/usb/usb_device.c: 1005:     {;mcc_generated_files/usb/usb_device.c:
      +                           1007:         handle = pBDTEntryIn[ep];
 10187  002080  5009               	movf	i2USBTransferOnePacket@ep^0,w,c
 10188  002082  0D02               	mullw	2
 10189  002084  0EC8               	movlw	low _pBDTEntryIn
 10190  002086  24F3               	addwf	243,w,c
 10191  002088  6ED9               	movwf	fsr2l,c
 10192  00208A  0E00               	movlw	high _pBDTEntryIn
 10193  00208C  20F4               	addwfc	prodh,w,c
 10194  00208E  6EDA               	movwf	fsr2h,c
 10195  002090  CFDE F00A          	movff	postinc2,i2USBTransferOnePacket@handle
 10196  002094  CFDD F00B          	movff	postdec2,i2USBTransferOnePacket@handle+1
 10197                           
 10198                           ;mcc_generated_files/usb/usb_device.c: 1008:     }
 10199  002098  EF5A  F010         	goto	i2l3473
 10200  00209C                     i2l3471:
 10201                           
 10202                           ;mcc_generated_files/usb/usb_device.c: 1010:     {;mcc_generated_files/usb/usb_device.c:
      +                           1012:         handle = pBDTEntryOut[ep];
 10203  00209C  5009               	movf	i2USBTransferOnePacket@ep^0,w,c
 10204  00209E  0D02               	mullw	2
 10205  0020A0  0ECE               	movlw	low _pBDTEntryOut
 10206  0020A2  24F3               	addwf	243,w,c
 10207  0020A4  6ED9               	movwf	fsr2l,c
 10208  0020A6  0E00               	movlw	high _pBDTEntryOut
 10209  0020A8  20F4               	addwfc	prodh,w,c
 10210  0020AA  6EDA               	movwf	fsr2h,c
 10211  0020AC  CFDE F00A          	movff	postinc2,i2USBTransferOnePacket@handle
 10212  0020B0  CFDD F00B          	movff	postdec2,i2USBTransferOnePacket@handle+1
 10213  0020B4                     i2l3473:
 10214                           
 10215                           ;mcc_generated_files/usb/usb_device.c: 1017:     if(handle == 0)
 10216  0020B4  500A               	movf	i2USBTransferOnePacket@handle^0,w,c
 10217  0020B6  100B               	iorwf	(i2USBTransferOnePacket@handle+1)^0,w,c
 10218  0020B8  A4D8               	btfss	status,2,c
 10219  0020BA  EF61  F010         	goto	i2u228_41
 10220  0020BE  EF63  F010         	goto	i2u228_40
 10221  0020C2                     i2u228_41:
 10222  0020C2  EF69  F010         	goto	i2l3479
 10223  0020C6                     i2u228_40:
 10224  0020C6                     
 10225                           ;mcc_generated_files/usb/usb_device.c: 1018:     {;mcc_generated_files/usb/usb_device.c:
      +                           1019:         return 0;
 10226  0020C6  0E00               	movlw	0
 10227  0020C8  6E01               	movwf	?i2_USBTransferOnePacket^0,c
 10228  0020CA  0E00               	movlw	0
 10229  0020CC  6E02               	movwf	(?i2_USBTransferOnePacket+1)^0,c
 10230  0020CE  EFD5  F010         	goto	i2l219
 10231  0020D2                     i2l3479:
 10232                           
 10233                           ;mcc_generated_files/usb/usb_device.c: 1033:     handle->ADR = ((uint16_t)(data));
 10234  0020D2  EE20 F002          	lfsr	2,2
 10235  0020D6  500A               	movf	i2USBTransferOnePacket@handle^0,w,c
 10236  0020D8  26D9               	addwf	fsr2l,f,c
 10237  0020DA  500B               	movf	(i2USBTransferOnePacket@handle+1)^0,w,c
 10238  0020DC  22DA               	addwfc	fsr2h,f,c
 10239  0020DE  C002  FFDE         	movff	i2USBTransferOnePacket@data,postinc2
 10240  0020E2  C003  FFDD         	movff	i2USBTransferOnePacket@data+1,postdec2
 10241                           
 10242                           ;mcc_generated_files/usb/usb_device.c: 1034:     handle->CNT = len;
 10243  0020E6  EE20 F001          	lfsr	2,1
 10244  0020EA  500A               	movf	i2USBTransferOnePacket@handle^0,w,c
 10245  0020EC  26D9               	addwf	fsr2l,f,c
 10246  0020EE  500B               	movf	(i2USBTransferOnePacket@handle+1)^0,w,c
 10247  0020F0  22DA               	addwfc	fsr2h,f,c
 10248  0020F2  C004  FFDF         	movff	i2USBTransferOnePacket@len,indf2
 10249  0020F6                     
 10250                           ;mcc_generated_files/usb/usb_device.c: 1035:     handle->STAT.Val &= 0x40;
 10251  0020F6  C00A  FFD9         	movff	i2USBTransferOnePacket@handle,fsr2l
 10252  0020FA  C00B  FFDA         	movff	i2USBTransferOnePacket@handle+1,fsr2h
 10253  0020FE  0E40               	movlw	64
 10254  002100  16DF               	andwf	indf2,f,c
 10255  002102                     
 10256                           ;mcc_generated_files/usb/usb_device.c: 1036:     handle->STAT.Val |= (0x08 & 0x08);
 10257  002102  C00A  FFD9         	movff	i2USBTransferOnePacket@handle,fsr2l
 10258  002106  C00B  FFDA         	movff	i2USBTransferOnePacket@handle+1,fsr2h
 10259  00210A  0E00               	movlw	0
 10260  00210C  86DB               	bsf	plusw2,3,c
 10261  00210E                     
 10262                           ;mcc_generated_files/usb/usb_device.c: 1037:     handle->STAT.Val |= 0x80;
 10263  00210E  C00A  FFD9         	movff	i2USBTransferOnePacket@handle,fsr2l
 10264  002112  C00B  FFDA         	movff	i2USBTransferOnePacket@handle+1,fsr2h
 10265  002116  0E00               	movlw	0
 10266  002118  8EDB               	bsf	plusw2,7,c
 10267  00211A                     
 10268                           ;mcc_generated_files/usb/usb_device.c: 1040:     if(dir != 0)
 10269  00211A  5001               	movf	i2USBTransferOnePacket@dir^0,w,c
 10270  00211C  B4D8               	btfsc	status,2,c
 10271  00211E  EF93  F010         	goto	i2u229_41
 10272  002122  EF95  F010         	goto	i2u229_40
 10273  002126                     i2u229_41:
 10274  002126  EFB4  F010         	goto	i2l3491
 10275  00212A                     i2u229_40:
 10276  00212A                     
 10277                           ;mcc_generated_files/usb/usb_device.c: 1041:     {;mcc_generated_files/usb/usb_device.c:
      +                           1043:         pBDTEntryIn[ep] = (BDT_ENTRY*)(((uint16_t)pBDTEntryIn[ep]) ^ 0x0004);
 10278  00212A  5009               	movf	i2USBTransferOnePacket@ep^0,w,c
 10279  00212C  0D02               	mullw	2
 10280  00212E  0EC8               	movlw	low _pBDTEntryIn
 10281  002130  24F3               	addwf	243,w,c
 10282  002132  6ED9               	movwf	fsr2l,c
 10283  002134  0E00               	movlw	high _pBDTEntryIn
 10284  002136  20F4               	addwfc	prodh,w,c
 10285  002138  6EDA               	movwf	fsr2h,c
 10286  00213A  CFDE F005          	movff	postinc2,??i2_USBTransferOnePacket
 10287  00213E  CFDD F006          	movff	postdec2,??i2_USBTransferOnePacket+1
 10288  002142  0E04               	movlw	4
 10289  002144  1805               	xorwf	??i2_USBTransferOnePacket^0,w,c
 10290  002146  6E07               	movwf	(??i2_USBTransferOnePacket+2)^0,c
 10291  002148  5006               	movf	(??i2_USBTransferOnePacket+1)^0,w,c
 10292  00214A  6E08               	movwf	(??i2_USBTransferOnePacket+3)^0,c
 10293  00214C  5009               	movf	i2USBTransferOnePacket@ep^0,w,c
 10294  00214E  0D02               	mullw	2
 10295  002150  0EC8               	movlw	low _pBDTEntryIn
 10296  002152  24F3               	addwf	243,w,c
 10297  002154  6ED9               	movwf	fsr2l,c
 10298  002156  0E00               	movlw	high _pBDTEntryIn
 10299  002158  20F4               	addwfc	prodh,w,c
 10300  00215A  6EDA               	movwf	fsr2h,c
 10301  00215C  C007  FFDE         	movff	??i2_USBTransferOnePacket+2,postinc2
 10302  002160  C008  FFDD         	movff	??i2_USBTransferOnePacket+3,postdec2
 10303                           
 10304                           ;mcc_generated_files/usb/usb_device.c: 1044:     }
 10305  002164  EFD1  F010         	goto	i2l3493
 10306  002168                     i2l3491:
 10307                           
 10308                           ;mcc_generated_files/usb/usb_device.c: 1046:     {;mcc_generated_files/usb/usb_device.c:
      +                           1048:         pBDTEntryOut[ep] = (BDT_ENTRY*)(((uint16_t)pBDTEntryOut[ep]) ^ 0x0004);
 10309  002168  5009               	movf	i2USBTransferOnePacket@ep^0,w,c
 10310  00216A  0D02               	mullw	2
 10311  00216C  0ECE               	movlw	low _pBDTEntryOut
 10312  00216E  24F3               	addwf	243,w,c
 10313  002170  6ED9               	movwf	fsr2l,c
 10314  002172  0E00               	movlw	high _pBDTEntryOut
 10315  002174  20F4               	addwfc	prodh,w,c
 10316  002176  6EDA               	movwf	fsr2h,c
 10317  002178  CFDE F005          	movff	postinc2,??i2_USBTransferOnePacket
 10318  00217C  CFDD F006          	movff	postdec2,??i2_USBTransferOnePacket+1
 10319  002180  0E04               	movlw	4
 10320  002182  1805               	xorwf	??i2_USBTransferOnePacket^0,w,c
 10321  002184  6E07               	movwf	(??i2_USBTransferOnePacket+2)^0,c
 10322  002186  5006               	movf	(??i2_USBTransferOnePacket+1)^0,w,c
 10323  002188  6E08               	movwf	(??i2_USBTransferOnePacket+3)^0,c
 10324  00218A  5009               	movf	i2USBTransferOnePacket@ep^0,w,c
 10325  00218C  0D02               	mullw	2
 10326  00218E  0ECE               	movlw	low _pBDTEntryOut
 10327  002190  24F3               	addwf	243,w,c
 10328  002192  6ED9               	movwf	fsr2l,c
 10329  002194  0E00               	movlw	high _pBDTEntryOut
 10330  002196  20F4               	addwfc	prodh,w,c
 10331  002198  6EDA               	movwf	fsr2h,c
 10332  00219A  C007  FFDE         	movff	??i2_USBTransferOnePacket+2,postinc2
 10333  00219E  C008  FFDD         	movff	??i2_USBTransferOnePacket+3,postdec2
 10334  0021A2                     i2l3493:
 10335                           
 10336                           ;mcc_generated_files/usb/usb_device.c: 1050:     return (void*)handle;
 10337  0021A2  C00A  F001         	movff	i2USBTransferOnePacket@handle,?i2_USBTransferOnePacket
 10338  0021A6  C00B  F002         	movff	i2USBTransferOnePacket@handle+1,?i2_USBTransferOnePacket+1
 10339  0021AA                     i2l219:
 10340  0021AA  0012               	return		;funcret
 10341  0021AC                     __end_ofi2_USBTransferOnePacket:
 10342                           	opt callstack 0
 10343                           
 10344 ;; *************** function _USBEnableEndpoint *****************
 10345 ;; Defined at:
 10346 ;;		line 882 in file "mcc_generated_files/usb/usb_device.c"
 10347 ;; Parameters:    Size  Location     Type
 10348 ;;  ep              1    wreg     unsigned char 
 10349 ;;  options         1    8[COMRAM] unsigned char 
 10350 ;; Auto vars:     Size  Location     Type
 10351 ;;  ep              1   11[COMRAM] unsigned char 
 10352 ;;  p               2    9[COMRAM] PTR unsigned char 
 10353 ;;		 -> UEP0(1), 
 10354 ;; Return value:  Size  Location     Type
 10355 ;;                  1    wreg      void 
 10356 ;; Registers used:
 10357 ;;		wreg, fsr2l, fsr2h, status,2, status,0, prodl, prodh, cstack
 10358 ;; Tracked objects:
 10359 ;;		On entry : 0/0
 10360 ;;		On exit  : 0/0
 10361 ;;		Unchanged: 0/0
 10362 ;; Data sizes:     COMRAM   BANK0   BANK1   BANK2   BANK3   BANK4   BANK5   BANK6   BANK7
 10363 ;;      Params:         1       0       0       0       0       0       0       0       0
 10364 ;;      Locals:         3       0       0       0       0       0       0       0       0
 10365 ;;      Temps:          0       0       0       0       0       0       0       0       0
 10366 ;;      Totals:         4       0       0       0       0       0       0       0       0
 10367 ;;Total ram usage:        4 bytes
 10368 ;; Hardware stack levels used:    1
 10369 ;; Hardware stack levels required when called:    1
 10370 ;; This function calls:
 10371 ;;		_USBConfigureEndpoint
 10372 ;; This function is called by:
 10373 ;;		_CDCInitEP
 10374 ;; This function uses a non-reentrant model
 10375 ;;
 10376                           
 10377                           	psect	text57
 10378  0035D4                     __ptext57:
 10379                           	opt callstack 0
 10380  0035D4                     _USBEnableEndpoint:
 10381                           	opt callstack 7
 10382                           
 10383                           ;incstack = 0
 10384                           ;USBEnableEndpoint@ep stored from wreg
 10385  0035D4  6E0C               	movwf	USBEnableEndpoint@ep^0,c
 10386  0035D6                     
 10387                           ;mcc_generated_files/usb/usb_device.c: 882: void USBEnableEndpoint(uint8_t ep, uint8_t o
      +                          ptions);mcc_generated_files/usb/usb_device.c: 883: {;mcc_generated_files/usb/usb_device.
      +                          c: 884:     unsigned char* p;;mcc_generated_files/usb/usb_device.c: 888:     if(options 
      +                          & 0x04)
 10388  0035D6  A409               	btfss	USBEnableEndpoint@options^0,2,c
 10389  0035D8  EFF0  F01A         	goto	i2u221_41
 10390  0035DC  EFF2  F01A         	goto	i2u221_40
 10391  0035E0                     i2u221_41:
 10392  0035E0  EFF7  F01A         	goto	i2l3445
 10393  0035E4                     i2u221_40:
 10394  0035E4                     
 10395                           ;mcc_generated_files/usb/usb_device.c: 889:     {;mcc_generated_files/usb/usb_device.c: 
      +                          890:         USBConfigureEndpoint(ep, 0);
 10396  0035E4  0E00               	movlw	0
 10397  0035E6  6E01               	movwf	USBConfigureEndpoint@direction^0,c
 10398  0035E8  500C               	movf	USBEnableEndpoint@ep^0,w,c
 10399  0035EA  EC25  F017         	call	_USBConfigureEndpoint
 10400  0035EE                     i2l3445:
 10401                           
 10402                           ;mcc_generated_files/usb/usb_device.c: 892:     if(options & 0x02)
 10403  0035EE  A209               	btfss	USBEnableEndpoint@options^0,1,c
 10404  0035F0  EFFC  F01A         	goto	i2u222_41
 10405  0035F4  EFFE  F01A         	goto	i2u222_40
 10406  0035F8                     i2u222_41:
 10407  0035F8  EF03  F01B         	goto	i2l3449
 10408  0035FC                     i2u222_40:
 10409  0035FC                     
 10410                           ;mcc_generated_files/usb/usb_device.c: 893:     {;mcc_generated_files/usb/usb_device.c: 
      +                          894:         USBConfigureEndpoint(ep, 1);
 10411  0035FC  0E01               	movlw	1
 10412  0035FE  6E01               	movwf	USBConfigureEndpoint@direction^0,c
 10413  003600  500C               	movf	USBEnableEndpoint@ep^0,w,c
 10414  003602  EC25  F017         	call	_USBConfigureEndpoint
 10415  003606                     i2l3449:
 10416                           
 10417                           ;mcc_generated_files/usb/usb_device.c: 903:         p = (unsigned char*)(&UEP0+ep);
 10418  003606  0E6A               	movlw	106
 10419  003608  240C               	addwf	USBEnableEndpoint@ep^0,w,c
 10420  00360A  6E0A               	movwf	USBEnableEndpoint@p^0,c
 10421  00360C  6A0B               	clrf	(USBEnableEndpoint@p+1)^0,c
 10422  00360E  0E0F               	movlw	15
 10423  003610  220B               	addwfc	(USBEnableEndpoint@p+1)^0,f,c
 10424  003612                     
 10425                           ;mcc_generated_files/usb/usb_device.c: 905:     *p = options;
 10426  003612  C00A  FFD9         	movff	USBEnableEndpoint@p,fsr2l
 10427  003616  C00B  FFDA         	movff	USBEnableEndpoint@p+1,fsr2h
 10428  00361A  C009  FFDF         	movff	USBEnableEndpoint@options,indf2
 10429  00361E  0012               	return		;funcret
 10430  003620                     __end_of_USBEnableEndpoint:
 10431                           	opt callstack 0
 10432                           
 10433 ;; *************** function _USBConfigureEndpoint *****************
 10434 ;; Defined at:
 10435 ;;		line 1547 in file "mcc_generated_files/usb/usb_device.c"
 10436 ;; Parameters:    Size  Location     Type
 10437 ;;  EPNum           1    wreg     unsigned char 
 10438 ;;  direction       1    0[COMRAM] unsigned char 
 10439 ;; Auto vars:     Size  Location     Type
 10440 ;;  EPNum           1    5[COMRAM] unsigned char 
 10441 ;;  handle          2    6[COMRAM] PTR volatile struct __BD
 10442 ;;		 -> BDT(48), 
 10443 ;; Return value:  Size  Location     Type
 10444 ;;                  1    wreg      void 
 10445 ;; Registers used:
 10446 ;;		wreg, fsr2l, fsr2h, status,2, status,0, prodl, prodh
 10447 ;; Tracked objects:
 10448 ;;		On entry : 0/0
 10449 ;;		On exit  : 0/0
 10450 ;;		Unchanged: 0/0
 10451 ;; Data sizes:     COMRAM   BANK0   BANK1   BANK2   BANK3   BANK4   BANK5   BANK6   BANK7
 10452 ;;      Params:         1       0       0       0       0       0       0       0       0
 10453 ;;      Locals:         3       0       0       0       0       0       0       0       0
 10454 ;;      Temps:          4       0       0       0       0       0       0       0       0
 10455 ;;      Totals:         8       0       0       0       0       0       0       0       0
 10456 ;;Total ram usage:        8 bytes
 10457 ;; Hardware stack levels used:    1
 10458 ;; This function calls:
 10459 ;;		Nothing
 10460 ;; This function is called by:
 10461 ;;		_USBEnableEndpoint
 10462 ;; This function uses a non-reentrant model
 10463 ;;
 10464                           
 10465                           	psect	text58
 10466  002E4A                     __ptext58:
 10467                           	opt callstack 0
 10468  002E4A                     _USBConfigureEndpoint:
 10469                           	opt callstack 7
 10470                           
 10471                           ;incstack = 0
 10472                           ;USBConfigureEndpoint@EPNum stored from wreg
 10473  002E4A  6E06               	movwf	USBConfigureEndpoint@EPNum^0,c
 10474  002E4C                     
 10475                           ;mcc_generated_files/usb/usb_device.c: 1547: static void USBConfigureEndpoint(uint8_t EP
      +                          Num, uint8_t direction);mcc_generated_files/usb/usb_device.c: 1548: {;mcc_generated_file
      +                          s/usb/usb_device.c: 1549:     volatile BDT_ENTRY* handle;;mcc_generated_files/usb/usb_de
      +                          vice.c: 1553:     handle = (volatile BDT_ENTRY*)&BDT[0];
 10476  002E4C  0E00               	movlw	0
 10477  002E4E  6E07               	movwf	USBConfigureEndpoint@handle^0,c
 10478  002E50  0E04               	movlw	4
 10479  002E52  6E08               	movwf	(USBConfigureEndpoint@handle+1)^0,c
 10480  002E54                     
 10481                           ;mcc_generated_files/usb/usb_device.c: 1554:     handle += (4*EPNum+2*direction+0u);
 10482  002E54  5001               	movf	USBConfigureEndpoint@direction^0,w,c
 10483  002E56  6E02               	movwf	??_USBConfigureEndpoint^0,c
 10484  002E58  6A03               	clrf	(??_USBConfigureEndpoint+1)^0,c
 10485  002E5A  90D8               	bcf	status,0,c
 10486  002E5C  3602               	rlcf	??_USBConfigureEndpoint^0,f,c
 10487  002E5E  3603               	rlcf	(??_USBConfigureEndpoint+1)^0,f,c
 10488  002E60  5006               	movf	USBConfigureEndpoint@EPNum^0,w,c
 10489  002E62  6E04               	movwf	(??_USBConfigureEndpoint+2)^0,c
 10490  002E64  6A05               	clrf	(??_USBConfigureEndpoint+3)^0,c
 10491  002E66  90D8               	bcf	status,0,c
 10492  002E68  3604               	rlcf	(??_USBConfigureEndpoint+2)^0,f,c
 10493  002E6A  3605               	rlcf	(??_USBConfigureEndpoint+3)^0,f,c
 10494  002E6C  90D8               	bcf	status,0,c
 10495  002E6E  3604               	rlcf	(??_USBConfigureEndpoint+2)^0,f,c
 10496  002E70  3605               	rlcf	(??_USBConfigureEndpoint+3)^0,f,c
 10497  002E72  5002               	movf	??_USBConfigureEndpoint^0,w,c
 10498  002E74  2604               	addwf	(??_USBConfigureEndpoint+2)^0,f,c
 10499  002E76  5003               	movf	(??_USBConfigureEndpoint+1)^0,w,c
 10500  002E78  2205               	addwfc	(??_USBConfigureEndpoint+3)^0,f,c
 10501  002E7A  90D8               	bcf	status,0,c
 10502  002E7C  3604               	rlcf	(??_USBConfigureEndpoint+2)^0,f,c
 10503  002E7E  3605               	rlcf	(??_USBConfigureEndpoint+3)^0,f,c
 10504  002E80  90D8               	bcf	status,0,c
 10505  002E82  3604               	rlcf	(??_USBConfigureEndpoint+2)^0,f,c
 10506  002E84  3605               	rlcf	(??_USBConfigureEndpoint+3)^0,f,c
 10507  002E86  5004               	movf	(??_USBConfigureEndpoint+2)^0,w,c
 10508  002E88  2607               	addwf	USBConfigureEndpoint@handle^0,f,c
 10509  002E8A  5005               	movf	(??_USBConfigureEndpoint+3)^0,w,c
 10510  002E8C  2208               	addwfc	(USBConfigureEndpoint@handle+1)^0,f,c
 10511  002E8E                     
 10512                           ;mcc_generated_files/usb/usb_device.c: 1556:     handle->STAT.UOWN = 0;
 10513  002E8E  C007  FFD9         	movff	USBConfigureEndpoint@handle,fsr2l
 10514  002E92  C008  FFDA         	movff	USBConfigureEndpoint@handle+1,fsr2h
 10515  002E96  9EDF               	bcf	indf2,7,c
 10516  002E98                     
 10517                           ;mcc_generated_files/usb/usb_device.c: 1561:     if(direction == 0)
 10518  002E98  5001               	movf	USBConfigureEndpoint@direction^0,w,c
 10519  002E9A  A4D8               	btfss	status,2,c
 10520  002E9C  EF52  F017         	goto	i2u220_41
 10521  002EA0  EF54  F017         	goto	i2u220_40
 10522  002EA4                     i2u220_41:
 10523  002EA4  EF62  F017         	goto	i2l3435
 10524  002EA8                     i2u220_40:
 10525  002EA8                     
 10526                           ;mcc_generated_files/usb/usb_device.c: 1562:     {;mcc_generated_files/usb/usb_device.c:
      +                           1563:         pBDTEntryOut[EPNum] = handle;
 10527  002EA8  5006               	movf	USBConfigureEndpoint@EPNum^0,w,c
 10528  002EAA  0D02               	mullw	2
 10529  002EAC  0ECE               	movlw	low _pBDTEntryOut
 10530  002EAE  24F3               	addwf	243,w,c
 10531  002EB0  6ED9               	movwf	fsr2l,c
 10532  002EB2  0E00               	movlw	high _pBDTEntryOut
 10533  002EB4  20F4               	addwfc	prodh,w,c
 10534  002EB6  6EDA               	movwf	fsr2h,c
 10535  002EB8  C007  FFDE         	movff	USBConfigureEndpoint@handle,postinc2
 10536  002EBC  C008  FFDD         	movff	USBConfigureEndpoint@handle+1,postdec2
 10537                           
 10538                           ;mcc_generated_files/usb/usb_device.c: 1564:     }
 10539  002EC0  EF6E  F017         	goto	i2l3437
 10540  002EC4                     i2l3435:
 10541                           
 10542                           ;mcc_generated_files/usb/usb_device.c: 1566:     {;mcc_generated_files/usb/usb_device.c:
      +                           1567:         pBDTEntryIn[EPNum] = handle;
 10543  002EC4  5006               	movf	USBConfigureEndpoint@EPNum^0,w,c
 10544  002EC6  0D02               	mullw	2
 10545  002EC8  0EC8               	movlw	low _pBDTEntryIn
 10546  002ECA  24F3               	addwf	243,w,c
 10547  002ECC  6ED9               	movwf	fsr2l,c
 10548  002ECE  0E00               	movlw	high _pBDTEntryIn
 10549  002ED0  20F4               	addwfc	prodh,w,c
 10550  002ED2  6EDA               	movwf	fsr2h,c
 10551  002ED4  C007  FFDE         	movff	USBConfigureEndpoint@handle,postinc2
 10552  002ED8  C008  FFDD         	movff	USBConfigureEndpoint@handle+1,postdec2
 10553  002EDC                     i2l3437:
 10554                           
 10555                           ;mcc_generated_files/usb/usb_device.c: 1571:         handle->STAT.DTS = 0;
 10556  002EDC  C007  FFD9         	movff	USBConfigureEndpoint@handle,fsr2l
 10557  002EE0  C008  FFDA         	movff	USBConfigureEndpoint@handle+1,fsr2h
 10558  002EE4  9CDF               	bcf	indf2,6,c
 10559  002EE6                     
 10560                           ;mcc_generated_files/usb/usb_device.c: 1572:         (handle+1)->STAT.DTS = 1;
 10561  002EE6  EE20 F004          	lfsr	2,4
 10562  002EEA  5007               	movf	USBConfigureEndpoint@handle^0,w,c
 10563  002EEC  26D9               	addwf	fsr2l,f,c
 10564  002EEE  5008               	movf	(USBConfigureEndpoint@handle+1)^0,w,c
 10565  002EF0  22DA               	addwfc	fsr2h,f,c
 10566  002EF2  8CDF               	bsf	indf2,6,c
 10567  002EF4  0012               	return		;funcret
 10568  002EF6                     __end_of_USBConfigureEndpoint:
 10569                           	opt callstack 0
 10570                           
 10571 ;; *************** function _USBCtrlTrfOutHandler *****************
 10572 ;; Defined at:
 10573 ;;		line 2542 in file "mcc_generated_files/usb/usb_device.c"
 10574 ;; Parameters:    Size  Location     Type
 10575 ;;		None
 10576 ;; Auto vars:     Size  Location     Type
 10577 ;;		None
 10578 ;; Return value:  Size  Location     Type
 10579 ;;                  1    wreg      void 
 10580 ;; Registers used:
 10581 ;;		wreg, fsr1l, fsr1h, fsr2l, fsr2h, status,2, status,0, cstack
 10582 ;; Tracked objects:
 10583 ;;		On entry : 0/0
 10584 ;;		On exit  : 0/0
 10585 ;;		Unchanged: 0/0
 10586 ;; Data sizes:     COMRAM   BANK0   BANK1   BANK2   BANK3   BANK4   BANK5   BANK6   BANK7
 10587 ;;      Params:         0       0       0       0       0       0       0       0       0
 10588 ;;      Locals:         0       0       0       0       0       0       0       0       0
 10589 ;;      Temps:          0       0       0       0       0       0       0       0       0
 10590 ;;      Totals:         0       0       0       0       0       0       0       0       0
 10591 ;;Total ram usage:        0 bytes
 10592 ;; Hardware stack levels used:    1
 10593 ;; Hardware stack levels required when called:    2
 10594 ;; This function calls:
 10595 ;;		_USBCtrlTrfRxService
 10596 ;; This function is called by:
 10597 ;;		_USBCtrlEPService
 10598 ;; This function uses a non-reentrant model
 10599 ;;
 10600                           
 10601                           	psect	text59
 10602  003214                     __ptext59:
 10603                           	opt callstack 0
 10604  003214                     _USBCtrlTrfOutHandler:
 10605                           	opt callstack 7
 10606  003214                     
 10607                           ;mcc_generated_files/usb/usb_device.c: 2544:     if(controlTransferState == 2)
 10608  003214  0E02               	movlw	2
 10609  003216  1844               	xorwf	_controlTransferState^0,w,c	;volatile
 10610  003218  A4D8               	btfss	status,2,c
 10611  00321A  EF11  F019         	goto	i2u327_41
 10612  00321E  EF13  F019         	goto	i2u327_40
 10613  003222                     i2u327_41:
 10614  003222  EF17  F019         	goto	i2l4299
 10615  003226                     i2u327_40:
 10616  003226                     
 10617                           ;mcc_generated_files/usb/usb_device.c: 2545:     {;mcc_generated_files/usb/usb_device.c:
      +                           2546:         USBCtrlTrfRxService();
 10618  003226  ECB2  F00D         	call	_USBCtrlTrfRxService	;wreg free
 10619                           
 10620                           ;mcc_generated_files/usb/usb_device.c: 2547:     }
 10621  00322A  EF43  F019         	goto	i2l368
 10622  00322E                     i2l4299:
 10623                           
 10624                           ;mcc_generated_files/usb/usb_device.c: 2549:     {;mcc_generated_files/usb/usb_device.c:
      +                           2552:         controlTransferState = 0;
 10625  00322E  0E00               	movlw	0
 10626  003230  6E44               	movwf	_controlTransferState^0,c	;volatile
 10627                           
 10628                           ;mcc_generated_files/usb/usb_device.c: 2559:         if(BothEP0OutUOWNsSet == 0)
 10629  003232  5041               	movf	_BothEP0OutUOWNsSet^0,w,c	;volatile
 10630  003234  A4D8               	btfss	status,2,c
 10631  003236  EF1F  F019         	goto	i2u328_41
 10632  00323A  EF21  F019         	goto	i2u328_40
 10633  00323E                     i2u328_41:
 10634  00323E  EF41  F019         	goto	i2l4307
 10635  003242                     i2u328_40:
 10636  003242                     
 10637                           ;mcc_generated_files/usb/usb_device.c: 2560:         {;mcc_generated_files/usb/usb_devic
      +                          e.c: 2561:             pBDTEntryEP0OutNext->CNT = 8;
 10638  003242  EE20 F001          	lfsr	2,1
 10639  003246  5036               	movf	_pBDTEntryEP0OutNext^0,w,c
 10640  003248  26D9               	addwf	fsr2l,f,c
 10641  00324A  5037               	movf	(_pBDTEntryEP0OutNext+1)^0,w,c
 10642  00324C  22DA               	addwfc	fsr2h,f,c
 10643  00324E  0E08               	movlw	8
 10644  003250  6EDF               	movwf	indf2,c
 10645                           
 10646                           ;mcc_generated_files/usb/usb_device.c: 2562:             pBDTEntryEP0OutNext->ADR = ((ui
      +                          nt16_t)(&SetupPkt));
 10647  003252  EE20 F002          	lfsr	2,2
 10648  003256  5036               	movf	_pBDTEntryEP0OutNext^0,w,c
 10649  003258  26D9               	addwf	fsr2l,f,c
 10650  00325A  5037               	movf	(_pBDTEntryEP0OutNext+1)^0,w,c
 10651  00325C  22DA               	addwfc	fsr2h,f,c
 10652  00325E  0E30               	movlw	48
 10653  003260  6EDE               	movwf	postinc2,c
 10654  003262  0E04               	movlw	4
 10655  003264  6EDD               	movwf	postdec2,c
 10656  003266                     
 10657                           ;mcc_generated_files/usb/usb_device.c: 2563:             pBDTEntryEP0OutNext->STAT.Val =
      +                           0x00|(0x08 & 0x08)|0x04;
 10658  003266  C036  FFD9         	movff	_pBDTEntryEP0OutNext,fsr2l
 10659  00326A  C037  FFDA         	movff	_pBDTEntryEP0OutNext+1,fsr2h
 10660  00326E  0E0C               	movlw	12
 10661  003270  6EDF               	movwf	indf2,c
 10662  003272                     
 10663                           ;mcc_generated_files/usb/usb_device.c: 2564:             pBDTEntryEP0OutNext->STAT.Val |
      +                          = 0x80;
 10664  003272  C036  FFD9         	movff	_pBDTEntryEP0OutNext,fsr2l
 10665  003276  C037  FFDA         	movff	_pBDTEntryEP0OutNext+1,fsr2h
 10666  00327A  0E00               	movlw	0
 10667  00327C  8EDB               	bsf	plusw2,7,c
 10668                           
 10669                           ;mcc_generated_files/usb/usb_device.c: 2565:         }
 10670  00327E  EF43  F019         	goto	i2l368
 10671  003282                     i2l4307:
 10672                           
 10673                           ;mcc_generated_files/usb/usb_device.c: 2567:         {;mcc_generated_files/usb/usb_devic
      +                          e.c: 2568:                 BothEP0OutUOWNsSet = 0;
 10674  003282  0E00               	movlw	0
 10675  003284  6E41               	movwf	_BothEP0OutUOWNsSet^0,c	;volatile
 10676  003286                     i2l368:
 10677  003286  0012               	return		;funcret
 10678  003288                     __end_of_USBCtrlTrfOutHandler:
 10679                           	opt callstack 0
 10680                           
 10681 ;; *************** function _USBCtrlTrfRxService *****************
 10682 ;; Defined at:
 10683 ;;		line 1856 in file "mcc_generated_files/usb/usb_device.c"
 10684 ;; Parameters:    Size  Location     Type
 10685 ;;		None
 10686 ;; Auto vars:     Size  Location     Type
 10687 ;;  byteToRead      1    1[COMRAM] unsigned char 
 10688 ;;  i               1    0[COMRAM] unsigned char 
 10689 ;; Return value:  Size  Location     Type
 10690 ;;                  1    wreg      void 
 10691 ;; Registers used:
 10692 ;;		wreg, fsr1l, fsr1h, fsr2l, fsr2h, status,2, status,0, cstack
 10693 ;; Tracked objects:
 10694 ;;		On entry : 0/0
 10695 ;;		On exit  : 0/0
 10696 ;;		Unchanged: 0/0
 10697 ;; Data sizes:     COMRAM   BANK0   BANK1   BANK2   BANK3   BANK4   BANK5   BANK6   BANK7
 10698 ;;      Params:         0       0       0       0       0       0       0       0       0
 10699 ;;      Locals:         2       0       0       0       0       0       0       0       0
 10700 ;;      Temps:          0       0       0       0       0       0       0       0       0
 10701 ;;      Totals:         2       0       0       0       0       0       0       0       0
 10702 ;;Total ram usage:        2 bytes
 10703 ;; Hardware stack levels used:    1
 10704 ;; Hardware stack levels required when called:    1
 10705 ;; This function calls:
 10706 ;;		_USBCtrlEPAllowStatusStage
 10707 ;; This function is called by:
 10708 ;;		_USBCtrlTrfOutHandler
 10709 ;; This function uses a non-reentrant model
 10710 ;;
 10711                           
 10712                           	psect	text60
 10713  001B64                     __ptext60:
 10714                           	opt callstack 0
 10715  001B64                     _USBCtrlTrfRxService:
 10716                           	opt callstack 7
 10717  001B64                     
 10718                           ;mcc_generated_files/usb/usb_device.c: 1858:     uint8_t byteToRead;;mcc_generated_files
      +                          /usb/usb_device.c: 1859:     uint8_t i;;mcc_generated_files/usb/usb_device.c: 1863:     
      +                          byteToRead = pBDTEntryEP0OutCurrent->CNT;
 10719  001B64  EE20 F001          	lfsr	2,1
 10720  001B68  5038               	movf	_pBDTEntryEP0OutCurrent^0,w,c
 10721  001B6A  26D9               	addwf	fsr2l,f,c
 10722  001B6C  5039               	movf	(_pBDTEntryEP0OutCurrent+1)^0,w,c
 10723  001B6E  22DA               	addwfc	fsr2h,f,c
 10724  001B70  50DF               	movf	indf2,w,c
 10725  001B72  6E02               	movwf	USBCtrlTrfRxService@byteToRead^0,c
 10726  001B74                     
 10727                           ;mcc_generated_files/usb/usb_device.c: 1869:     if(byteToRead > outPipes[0].wCount.Val)
 10728  001B74  5002               	movf	USBCtrlTrfRxService@byteToRead^0,w,c
 10729  001B76  0100               	movlb	0	; () banked
 10730  001B78  5DBE               	subwf	(_outPipes+4)& (0+255),w,b	;volatile
 10731  001B7A  0E00               	movlw	0
 10732  001B7C  59BF               	subwfb	(_outPipes+5)& (0+255),w,b	;volatile
 10733  001B7E  B0D8               	btfsc	status,0,c
 10734  001B80  EFC4  F00D         	goto	i2u308_41
 10735  001B84  EFC6  F00D         	goto	i2u308_40
 10736  001B88                     i2u308_41:
 10737  001B88  EFC8  F00D         	goto	i2l4059
 10738  001B8C                     i2u308_40:
 10739  001B8C                     
 10740                           ; BSR set to: 0
 10741                           ;mcc_generated_files/usb/usb_device.c: 1870:     {;mcc_generated_files/usb/usb_device.c:
      +                           1871:         byteToRead = outPipes[0].wCount.Val;
 10742  001B8C  C0BE  F002         	movff	_outPipes+4,USBCtrlTrfRxService@byteToRead	;volatile
 10743  001B90                     i2l4059:
 10744                           
 10745                           ; BSR set to: 0
 10746                           ;mcc_generated_files/usb/usb_device.c: 1874:     outPipes[0].wCount.Val -= byteToRead;
 10747  001B90  5002               	movf	USBCtrlTrfRxService@byteToRead^0,w,c
 10748  001B92  5FBE               	subwf	(_outPipes+4)& (0+255),f,b	;volatile
 10749  001B94  0E00               	movlw	0
 10750  001B96  5BBF               	subwfb	(_outPipes+5)& (0+255),f,b	;volatile
 10751  001B98                     
 10752                           ; BSR set to: 0
 10753                           ;mcc_generated_files/usb/usb_device.c: 1878:     for(i=0;i<byteToRead;i++)
 10754  001B98  0E00               	movlw	0
 10755  001B9A  6E01               	movwf	USBCtrlTrfRxService@i^0,c
 10756  001B9C  EFDF  F00D         	goto	i2l4069
 10757  001BA0                     i2l4063:
 10758                           
 10759                           ; BSR set to: 0
 10760                           ;mcc_generated_files/usb/usb_device.c: 1879:     {;mcc_generated_files/usb/usb_device.c:
      +                           1880:         *outPipes[0].pDst.bRam++ = CtrlTrfData[i];
 10761  001BA0  0E38               	movlw	56
 10762  001BA2  2401               	addwf	USBCtrlTrfRxService@i^0,w,c
 10763  001BA4  6ED9               	movwf	fsr2l,c
 10764  001BA6  6ADA               	clrf	fsr2h,c
 10765  001BA8  0E04               	movlw	4
 10766  001BAA  22DA               	addwfc	fsr2h,f,c
 10767  001BAC  C0BA  FFE1         	movff	_outPipes,fsr1l	;volatile
 10768  001BB0  C0BB  FFE2         	movff	_outPipes+1,fsr1h	;volatile
 10769  001BB4  CFDF FFE7          	movff	indf2,indf1
 10770  001BB8                     
 10771                           ; BSR set to: 0
 10772  001BB8  4BBA               	infsnz	_outPipes& (0+255),f,b	;volatile
 10773  001BBA  2BBB               	incf	(_outPipes+1)& (0+255),f,b	;volatile
 10774  001BBC                     
 10775                           ; BSR set to: 0
 10776                           ;mcc_generated_files/usb/usb_device.c: 1881:     }
 10777  001BBC  2A01               	incf	USBCtrlTrfRxService@i^0,f,c
 10778  001BBE                     i2l4069:
 10779                           
 10780                           ; BSR set to: 0
 10781  001BBE  5002               	movf	USBCtrlTrfRxService@byteToRead^0,w,c
 10782  001BC0  5C01               	subwf	USBCtrlTrfRxService@i^0,w,c
 10783  001BC2  A0D8               	btfss	status,0,c
 10784  001BC4  EFE6  F00D         	goto	i2u309_41
 10785  001BC8  EFE8  F00D         	goto	i2u309_40
 10786  001BCC                     i2u309_41:
 10787  001BCC  EFD0  F00D         	goto	i2l4063
 10788  001BD0                     i2u309_40:
 10789  001BD0                     
 10790                           ; BSR set to: 0
 10791                           ;mcc_generated_files/usb/usb_device.c: 1885:     if(outPipes[0].wCount.Val > 0)
 10792  001BD0  51BE               	movf	(_outPipes+4)& (0+255),w,b	;volatile
 10793  001BD2  11BF               	iorwf	(_outPipes+5)& (0+255),w,b	;volatile
 10794  001BD4  B4D8               	btfsc	status,2,c
 10795  001BD6  EFEF  F00D         	goto	i2u310_41
 10796  001BDA  EFF1  F00D         	goto	i2u310_40
 10797  001BDE                     i2u310_41:
 10798  001BDE  EF2A  F00E         	goto	i2l4085
 10799  001BE2                     i2u310_40:
 10800  001BE2                     
 10801                           ; BSR set to: 0
 10802                           ;mcc_generated_files/usb/usb_device.c: 1886:     {;mcc_generated_files/usb/usb_device.c:
      +                           1887:         pBDTEntryEP0OutNext->CNT = 8;
 10803  001BE2  EE20 F001          	lfsr	2,1
 10804  001BE6  5036               	movf	_pBDTEntryEP0OutNext^0,w,c
 10805  001BE8  26D9               	addwf	fsr2l,f,c
 10806  001BEA  5037               	movf	(_pBDTEntryEP0OutNext+1)^0,w,c
 10807  001BEC  22DA               	addwfc	fsr2h,f,c
 10808  001BEE  0E08               	movlw	8
 10809  001BF0  6EDF               	movwf	indf2,c
 10810                           
 10811                           ;mcc_generated_files/usb/usb_device.c: 1888:         pBDTEntryEP0OutNext->ADR = ((uint16
      +                          _t)(&CtrlTrfData));
 10812  001BF2  EE20 F002          	lfsr	2,2
 10813  001BF6  5036               	movf	_pBDTEntryEP0OutNext^0,w,c
 10814  001BF8  26D9               	addwf	fsr2l,f,c
 10815  001BFA  5037               	movf	(_pBDTEntryEP0OutNext+1)^0,w,c
 10816  001BFC  22DA               	addwfc	fsr2h,f,c
 10817  001BFE  0E38               	movlw	56
 10818  001C00  6EDE               	movwf	postinc2,c
 10819  001C02  0E04               	movlw	4
 10820  001C04  6EDD               	movwf	postdec2,c
 10821  001C06                     
 10822                           ; BSR set to: 0
 10823                           ;mcc_generated_files/usb/usb_device.c: 1889:         if(pBDTEntryEP0OutCurrent->STAT.DTS
      +                           == 0)
 10824  001C06  C038  FFD9         	movff	_pBDTEntryEP0OutCurrent,fsr2l
 10825  001C0A  C039  FFDA         	movff	_pBDTEntryEP0OutCurrent+1,fsr2h
 10826  001C0E  BCDF               	btfsc	indf2,6,c
 10827  001C10  EF0C  F00E         	goto	i2u311_41
 10828  001C14  EF0E  F00E         	goto	i2u311_40
 10829  001C18                     i2u311_41:
 10830  001C18  EF1C  F00E         	goto	i2l4081
 10831  001C1C                     i2u311_40:
 10832  001C1C                     
 10833                           ; BSR set to: 0
 10834                           ;mcc_generated_files/usb/usb_device.c: 1890:         {;mcc_generated_files/usb/usb_devic
      +                          e.c: 1891:             pBDTEntryEP0OutNext->STAT.Val = 0x40|(0x08 & 0x08);
 10835  001C1C  C036  FFD9         	movff	_pBDTEntryEP0OutNext,fsr2l
 10836  001C20  C037  FFDA         	movff	_pBDTEntryEP0OutNext+1,fsr2h
 10837  001C24  0E48               	movlw	72
 10838  001C26  6EDF               	movwf	indf2,c
 10839  001C28                     
 10840                           ; BSR set to: 0
 10841                           ;mcc_generated_files/usb/usb_device.c: 1892:             pBDTEntryEP0OutNext->STAT.Val |
      +                          = 0x80;
 10842  001C28  C036  FFD9         	movff	_pBDTEntryEP0OutNext,fsr2l
 10843  001C2C  C037  FFDA         	movff	_pBDTEntryEP0OutNext+1,fsr2h
 10844  001C30  0E00               	movlw	0
 10845  001C32  8EDB               	bsf	plusw2,7,c
 10846                           
 10847                           ;mcc_generated_files/usb/usb_device.c: 1893:         }
 10848  001C34  EF53  F00E         	goto	i2l301
 10849  001C38                     i2l4081:
 10850                           
 10851                           ; BSR set to: 0
 10852                           ;mcc_generated_files/usb/usb_device.c: 1895:         {;mcc_generated_files/usb/usb_devic
      +                          e.c: 1896:             pBDTEntryEP0OutNext->STAT.Val = 0x00|(0x08 & 0x08);
 10853  001C38  C036  FFD9         	movff	_pBDTEntryEP0OutNext,fsr2l
 10854  001C3C  C037  FFDA         	movff	_pBDTEntryEP0OutNext+1,fsr2h
 10855  001C40  0E08               	movlw	8
 10856  001C42  6EDF               	movwf	indf2,c
 10857  001C44                     
 10858                           ; BSR set to: 0
 10859                           ;mcc_generated_files/usb/usb_device.c: 1897:             pBDTEntryEP0OutNext->STAT.Val |
      +                          = 0x80;
 10860  001C44  C036  FFD9         	movff	_pBDTEntryEP0OutNext,fsr2l
 10861  001C48  C037  FFDA         	movff	_pBDTEntryEP0OutNext+1,fsr2h
 10862  001C4C  0E00               	movlw	0
 10863  001C4E  8EDB               	bsf	plusw2,7,c
 10864  001C50  EF53  F00E         	goto	i2l301
 10865  001C54                     i2l4085:
 10866                           
 10867                           ; BSR set to: 0
 10868                           ;mcc_generated_files/usb/usb_device.c: 1901:     {;mcc_generated_files/usb/usb_device.c:
      +                           1905:         pBDTEntryEP0OutNext->CNT = 8;
 10869  001C54  EE20 F001          	lfsr	2,1
 10870  001C58  5036               	movf	_pBDTEntryEP0OutNext^0,w,c
 10871  001C5A  26D9               	addwf	fsr2l,f,c
 10872  001C5C  5037               	movf	(_pBDTEntryEP0OutNext+1)^0,w,c
 10873  001C5E  22DA               	addwfc	fsr2h,f,c
 10874  001C60  0E08               	movlw	8
 10875  001C62  6EDF               	movwf	indf2,c
 10876                           
 10877                           ;mcc_generated_files/usb/usb_device.c: 1906:         pBDTEntryEP0OutNext->ADR = ((uint16
      +                          _t)(&SetupPkt));
 10878  001C64  EE20 F002          	lfsr	2,2
 10879  001C68  5036               	movf	_pBDTEntryEP0OutNext^0,w,c
 10880  001C6A  26D9               	addwf	fsr2l,f,c
 10881  001C6C  5037               	movf	(_pBDTEntryEP0OutNext+1)^0,w,c
 10882  001C6E  22DA               	addwfc	fsr2h,f,c
 10883  001C70  0E30               	movlw	48
 10884  001C72  6EDE               	movwf	postinc2,c
 10885  001C74  0E04               	movlw	4
 10886  001C76  6EDD               	movwf	postdec2,c
 10887  001C78                     
 10888                           ; BSR set to: 0
 10889                           ;mcc_generated_files/usb/usb_device.c: 1910:         pBDTEntryEP0OutNext->STAT.Val = 0x0
      +                          4;
 10890  001C78  C036  FFD9         	movff	_pBDTEntryEP0OutNext,fsr2l
 10891  001C7C  C037  FFDA         	movff	_pBDTEntryEP0OutNext+1,fsr2h
 10892  001C80  0E04               	movlw	4
 10893  001C82  6EDF               	movwf	indf2,c
 10894  001C84                     
 10895                           ; BSR set to: 0
 10896                           ;mcc_generated_files/usb/usb_device.c: 1911:         pBDTEntryEP0OutNext->STAT.Val |= 0x
      +                          80;
 10897  001C84  C036  FFD9         	movff	_pBDTEntryEP0OutNext,fsr2l
 10898  001C88  C037  FFDA         	movff	_pBDTEntryEP0OutNext+1,fsr2h
 10899  001C8C  0E00               	movlw	0
 10900  001C8E  8EDB               	bsf	plusw2,7,c
 10901  001C90                     
 10902                           ; BSR set to: 0
 10903  001C90  9FBD               	bcf	(_outPipes+3)& (0+255),7,b	;volatile
 10904  001C92                     
 10905                           ; BSR set to: 0
 10906                           ;mcc_generated_files/usb/usb_device.c: 1945:         if(USBDeferStatusStagePacket == 0)
 10907  001C92  503F               	movf	_USBDeferStatusStagePacket^0,w,c	;volatile
 10908  001C94  A4D8               	btfss	status,2,c
 10909  001C96  EF4F  F00E         	goto	i2u312_41
 10910  001C9A  EF51  F00E         	goto	i2u312_40
 10911  001C9E                     i2u312_41:
 10912  001C9E  EF53  F00E         	goto	i2l301
 10913  001CA2                     i2u312_40:
 10914  001CA2                     
 10915                           ; BSR set to: 0
 10916                           ;mcc_generated_files/usb/usb_device.c: 1946:         {;mcc_generated_files/usb/usb_devic
      +                          e.c: 1947:             USBCtrlEPAllowStatusStage();
 10917  001CA2  EC83  F013         	call	_USBCtrlEPAllowStatusStage	;wreg free
 10918  001CA6                     i2l301:
 10919  001CA6  0012               	return		;funcret
 10920  001CA8                     __end_of_USBCtrlTrfRxService:
 10921                           	opt callstack 0
 10922                           
 10923 ;; *************** function _USBCtrlEPAllowStatusStage *****************
 10924 ;; Defined at:
 10925 ;;		line 1420 in file "mcc_generated_files/usb/usb_device.c"
 10926 ;; Parameters:    Size  Location     Type
 10927 ;;		None
 10928 ;; Auto vars:     Size  Location     Type
 10929 ;;		None
 10930 ;; Return value:  Size  Location     Type
 10931 ;;                  1    wreg      void 
 10932 ;; Registers used:
 10933 ;;		wreg, fsr2l, fsr2h, status,2, status,0
 10934 ;; Tracked objects:
 10935 ;;		On entry : 0/0
 10936 ;;		On exit  : 0/0
 10937 ;;		Unchanged: 0/0
 10938 ;; Data sizes:     COMRAM   BANK0   BANK1   BANK2   BANK3   BANK4   BANK5   BANK6   BANK7
 10939 ;;      Params:         0       0       0       0       0       0       0       0       0
 10940 ;;      Locals:         0       0       0       0       0       0       0       0       0
 10941 ;;      Temps:          0       0       0       0       0       0       0       0       0
 10942 ;;      Totals:         0       0       0       0       0       0       0       0       0
 10943 ;;Total ram usage:        0 bytes
 10944 ;; Hardware stack levels used:    1
 10945 ;; This function calls:
 10946 ;;		Nothing
 10947 ;; This function is called by:
 10948 ;;		_USBDeviceTasks
 10949 ;;		_USBCtrlEPServiceComplete
 10950 ;;		_USBCtrlTrfRxService
 10951 ;; This function uses a non-reentrant model
 10952 ;;
 10953                           
 10954                           	psect	text61
 10955  002706                     __ptext61:
 10956                           	opt callstack 0
 10957  002706                     _USBCtrlEPAllowStatusStage:
 10958                           	opt callstack 7
 10959  002706                     
 10960                           ;mcc_generated_files/usb/usb_device.c: 1427:     if(USBStatusStageEnabledFlag1 == 0)
 10961  002706  503E               	movf	_USBStatusStageEnabledFlag1^0,w,c	;volatile
 10962  002708  A4D8               	btfss	status,2,c
 10963  00270A  EF89  F013         	goto	i2u259_41
 10964  00270E  EF8B  F013         	goto	i2u259_40
 10965  002712                     i2u259_41:
 10966  002712  EFFB  F013         	goto	i2l249
 10967  002716                     i2u259_40:
 10968  002716                     
 10969                           ;mcc_generated_files/usb/usb_device.c: 1428:     {;mcc_generated_files/usb/usb_device.c:
      +                           1429:         USBStatusStageEnabledFlag1 = 1;
 10970  002716  0E01               	movlw	1
 10971  002718  6E3E               	movwf	_USBStatusStageEnabledFlag1^0,c	;volatile
 10972                           
 10973                           ;mcc_generated_files/usb/usb_device.c: 1430:         if(USBStatusStageEnabledFlag2 == 0)
 10974  00271A  503D               	movf	_USBStatusStageEnabledFlag2^0,w,c	;volatile
 10975  00271C  A4D8               	btfss	status,2,c
 10976  00271E  EF93  F013         	goto	i2u260_41
 10977  002722  EF95  F013         	goto	i2u260_40
 10978  002726                     i2u260_41:
 10979  002726  EFFB  F013         	goto	i2l249
 10980  00272A                     i2u260_40:
 10981  00272A                     
 10982                           ;mcc_generated_files/usb/usb_device.c: 1431:         {;mcc_generated_files/usb/usb_devic
      +                          e.c: 1432:             USBStatusStageEnabledFlag2 = 1;
 10983  00272A  0E01               	movlw	1
 10984  00272C  6E3D               	movwf	_USBStatusStageEnabledFlag2^0,c	;volatile
 10985  00272E                     
 10986                           ;mcc_generated_files/usb/usb_device.c: 1436:             if(controlTransferState == 2)
 10987  00272E  0E02               	movlw	2
 10988  002730  1844               	xorwf	_controlTransferState^0,w,c	;volatile
 10989  002732  A4D8               	btfss	status,2,c
 10990  002734  EF9E  F013         	goto	i2u261_41
 10991  002738  EFA0  F013         	goto	i2u261_40
 10992  00273C                     i2u261_41:
 10993  00273C  EFB7  F013         	goto	i2l3735
 10994  002740                     i2u261_40:
 10995  002740                     
 10996                           ;mcc_generated_files/usb/usb_device.c: 1437:             {;mcc_generated_files/usb/usb_d
      +                          evice.c: 1438:                 pBDTEntryIn[0]->CNT = 0;
 10997  002740  0100               	movlb	0	; () banked
 10998  002742  EE20 F001          	lfsr	2,1
 10999  002746  51C8               	movf	_pBDTEntryIn& (0+255),w,b
 11000  002748  26D9               	addwf	fsr2l,f,c
 11001  00274A  51C9               	movf	(_pBDTEntryIn+1)& (0+255),w,b
 11002  00274C  22DA               	addwfc	fsr2h,f,c
 11003  00274E  0E00               	movlw	0
 11004  002750  6EDF               	movwf	indf2,c
 11005  002752                     
 11006                           ; BSR set to: 0
 11007                           ;mcc_generated_files/usb/usb_device.c: 1439:                 pBDTEntryIn[0]->STAT.Val = 
      +                          0x40|(0x08 & 0x08);
 11008  002752  C0C8  FFD9         	movff	_pBDTEntryIn,fsr2l
 11009  002756  C0C9  FFDA         	movff	_pBDTEntryIn+1,fsr2h
 11010  00275A  0E48               	movlw	72
 11011  00275C  6EDF               	movwf	indf2,c
 11012  00275E                     
 11013                           ; BSR set to: 0
 11014                           ;mcc_generated_files/usb/usb_device.c: 1440:                 pBDTEntryIn[0]->STAT.Val |=
      +                           0x80;
 11015  00275E  C0C8  FFD9         	movff	_pBDTEntryIn,fsr2l
 11016  002762  C0C9  FFDA         	movff	_pBDTEntryIn+1,fsr2h
 11017  002766  0E00               	movlw	0
 11018  002768  8EDB               	bsf	plusw2,7,c
 11019                           
 11020                           ;mcc_generated_files/usb/usb_device.c: 1441:             }
 11021  00276A  EFFB  F013         	goto	i2l249
 11022  00276E                     i2l3735:
 11023  00276E  0444               	decf	_controlTransferState^0,w,c	;volatile
 11024  002770  A4D8               	btfss	status,2,c
 11025  002772  EFBD  F013         	goto	i2u262_41
 11026  002776  EFBF  F013         	goto	i2u262_40
 11027  00277A                     i2u262_41:
 11028  00277A  EFFB  F013         	goto	i2l245
 11029  00277E                     i2u262_40:
 11030  00277E                     
 11031                           ;mcc_generated_files/usb/usb_device.c: 1443:             {;mcc_generated_files/usb/usb_d
      +                          evice.c: 1444:                 BothEP0OutUOWNsSet = 0;
 11032  00277E  0E00               	movlw	0
 11033  002780  6E41               	movwf	_BothEP0OutUOWNsSet^0,c	;volatile
 11034  002782                     
 11035                           ;mcc_generated_files/usb/usb_device.c: 1449:                     pBDTEntryEP0OutCurrent-
      +                          >CNT = 8;
 11036  002782  EE20 F001          	lfsr	2,1
 11037  002786  5038               	movf	_pBDTEntryEP0OutCurrent^0,w,c
 11038  002788  26D9               	addwf	fsr2l,f,c
 11039  00278A  5039               	movf	(_pBDTEntryEP0OutCurrent+1)^0,w,c
 11040  00278C  22DA               	addwfc	fsr2h,f,c
 11041  00278E  0E08               	movlw	8
 11042  002790  6EDF               	movwf	indf2,c
 11043  002792                     
 11044                           ;mcc_generated_files/usb/usb_device.c: 1450:                     pBDTEntryEP0OutCurrent-
      +                          >ADR = ((uint16_t)(&SetupPkt));
 11045  002792  EE20 F002          	lfsr	2,2
 11046  002796  5038               	movf	_pBDTEntryEP0OutCurrent^0,w,c
 11047  002798  26D9               	addwf	fsr2l,f,c
 11048  00279A  5039               	movf	(_pBDTEntryEP0OutCurrent+1)^0,w,c
 11049  00279C  22DA               	addwfc	fsr2h,f,c
 11050  00279E  0E30               	movlw	48
 11051  0027A0  6EDE               	movwf	postinc2,c
 11052  0027A2  0E04               	movlw	4
 11053  0027A4  6EDD               	movwf	postdec2,c
 11054  0027A6                     
 11055                           ;mcc_generated_files/usb/usb_device.c: 1451:                     pBDTEntryEP0OutCurrent-
      +                          >STAT.Val = 0x04;
 11056  0027A6  C038  FFD9         	movff	_pBDTEntryEP0OutCurrent,fsr2l
 11057  0027AA  C039  FFDA         	movff	_pBDTEntryEP0OutCurrent+1,fsr2h
 11058  0027AE  0E04               	movlw	4
 11059  0027B0  6EDF               	movwf	indf2,c
 11060  0027B2                     
 11061                           ;mcc_generated_files/usb/usb_device.c: 1452:                     pBDTEntryEP0OutCurrent-
      +                          >STAT.Val |= 0x80;
 11062  0027B2  C038  FFD9         	movff	_pBDTEntryEP0OutCurrent,fsr2l
 11063  0027B6  C039  FFDA         	movff	_pBDTEntryEP0OutCurrent+1,fsr2h
 11064  0027BA  0E00               	movlw	0
 11065  0027BC  8EDB               	bsf	plusw2,7,c
 11066  0027BE                     
 11067                           ;mcc_generated_files/usb/usb_device.c: 1453:                     BothEP0OutUOWNsSet = 1;
 11068  0027BE  0E01               	movlw	1
 11069  0027C0  6E41               	movwf	_BothEP0OutUOWNsSet^0,c	;volatile
 11070  0027C2                     
 11071                           ;mcc_generated_files/usb/usb_device.c: 1457:                 pBDTEntryEP0OutNext->CNT = 
      +                          8;
 11072  0027C2  EE20 F001          	lfsr	2,1
 11073  0027C6  5036               	movf	_pBDTEntryEP0OutNext^0,w,c
 11074  0027C8  26D9               	addwf	fsr2l,f,c
 11075  0027CA  5037               	movf	(_pBDTEntryEP0OutNext+1)^0,w,c
 11076  0027CC  22DA               	addwfc	fsr2h,f,c
 11077  0027CE  0E08               	movlw	8
 11078  0027D0  6EDF               	movwf	indf2,c
 11079  0027D2                     
 11080                           ;mcc_generated_files/usb/usb_device.c: 1458:                 pBDTEntryEP0OutNext->ADR = 
      +                          ((uint16_t)(&SetupPkt));
 11081  0027D2  EE20 F002          	lfsr	2,2
 11082  0027D6  5036               	movf	_pBDTEntryEP0OutNext^0,w,c
 11083  0027D8  26D9               	addwf	fsr2l,f,c
 11084  0027DA  5037               	movf	(_pBDTEntryEP0OutNext+1)^0,w,c
 11085  0027DC  22DA               	addwfc	fsr2h,f,c
 11086  0027DE  0E30               	movlw	48
 11087  0027E0  6EDE               	movwf	postinc2,c
 11088  0027E2  0E04               	movlw	4
 11089  0027E4  6EDD               	movwf	postdec2,c
 11090  0027E6                     
 11091                           ;mcc_generated_files/usb/usb_device.c: 1459:                 pBDTEntryEP0OutNext->STAT.V
      +                          al = 0x80;
 11092  0027E6  C036  FFD9         	movff	_pBDTEntryEP0OutNext,fsr2l
 11093  0027EA  C037  FFDA         	movff	_pBDTEntryEP0OutNext+1,fsr2h
 11094  0027EE  0E80               	movlw	128
 11095  0027F0  6EDF               	movwf	indf2,c
 11096  0027F2  EFFB  F013         	goto	i2l249
 11097  0027F6                     i2l245:
 11098  0027F6                     i2l249:
 11099  0027F6  0012               	return		;funcret
 11100  0027F8                     __end_of_USBCtrlEPAllowStatusStage:
 11101                           	opt callstack 0
 11102                           
 11103 ;; *************** function _USBCtrlTrfInHandler *****************
 11104 ;; Defined at:
 11105 ;;		line 2596 in file "mcc_generated_files/usb/usb_device.c"
 11106 ;; Parameters:    Size  Location     Type
 11107 ;;		None
 11108 ;; Auto vars:     Size  Location     Type
 11109 ;;  lastDTS         1    1[COMRAM] unsigned char 
 11110 ;; Return value:  Size  Location     Type
 11111 ;;                  1    wreg      void 
 11112 ;; Registers used:
 11113 ;;		wreg, fsr1l, fsr1h, fsr2l, fsr2h, status,2, status,0, tblptrl, tblptrh, tblptru, cstack
 11114 ;; Tracked objects:
 11115 ;;		On entry : 0/0
 11116 ;;		On exit  : 0/0
 11117 ;;		Unchanged: 0/0
 11118 ;; Data sizes:     COMRAM   BANK0   BANK1   BANK2   BANK3   BANK4   BANK5   BANK6   BANK7
 11119 ;;      Params:         0       0       0       0       0       0       0       0       0
 11120 ;;      Locals:         1       0       0       0       0       0       0       0       0
 11121 ;;      Temps:          0       0       0       0       0       0       0       0       0
 11122 ;;      Totals:         1       0       0       0       0       0       0       0       0
 11123 ;;Total ram usage:        1 bytes
 11124 ;; Hardware stack levels used:    1
 11125 ;; Hardware stack levels required when called:    1
 11126 ;; This function calls:
 11127 ;;		_USBCtrlTrfTxService
 11128 ;; This function is called by:
 11129 ;;		_USBCtrlEPService
 11130 ;; This function uses a non-reentrant model
 11131 ;;
 11132                           
 11133                           	psect	text62
 11134  0025FC                     __ptext62:
 11135                           	opt callstack 0
 11136  0025FC                     _USBCtrlTrfInHandler:
 11137                           	opt callstack 8
 11138  0025FC                     
 11139                           ;mcc_generated_files/usb/usb_device.c: 2598:     uint8_t lastDTS;;mcc_generated_files/us
      +                          b/usb_device.c: 2600:     lastDTS = pBDTEntryIn[0]->STAT.DTS;
 11140  0025FC  C0C8  FFD9         	movff	_pBDTEntryIn,fsr2l
 11141  002600  C0C9  FFDA         	movff	_pBDTEntryIn+1,fsr2h
 11142  002604  0100               	movlb	0	; () banked
 11143  002606  0E00               	movlw	0
 11144  002608  BCDF               	btfsc	indf2,6,c
 11145  00260A  0E01               	movlw	1
 11146  00260C  6E02               	movwf	USBCtrlTrfInHandler@lastDTS^0,c
 11147  00260E                     
 11148                           ; BSR set to: 0
 11149                           ;mcc_generated_files/usb/usb_device.c: 2603:     pBDTEntryIn[0] = (volatile BDT_ENTRY*)(
      +                          ((uint16_t)pBDTEntryIn[0]) ^ 0x0004);
 11150  00260E  0E04               	movlw	4
 11151  002610  19C8               	xorwf	_pBDTEntryIn& (0+255),w,b
 11152  002612  6FC8               	movwf	_pBDTEntryIn& (0+255),b
 11153  002614  51C9               	movf	(_pBDTEntryIn+1)& (0+255),w,b
 11154  002616  6FC9               	movwf	(_pBDTEntryIn+1)& (0+255),b
 11155  002618                     
 11156                           ; BSR set to: 0
 11157                           ;mcc_generated_files/usb/usb_device.c: 2608:     if(USBDeviceState == ADR_PENDING_STATE)
 11158  002618  0E08               	movlw	8
 11159  00261A  1846               	xorwf	_USBDeviceState^0,w,c	;volatile
 11160  00261C  A4D8               	btfss	status,2,c
 11161  00261E  EF13  F013         	goto	i2u329_41
 11162  002622  EF15  F013         	goto	i2u329_40
 11163  002626                     i2u329_41:
 11164  002626  EF27  F013         	goto	i2l4323
 11165  00262A                     i2u329_40:
 11166  00262A                     
 11167                           ; BSR set to: 0
 11168                           ;mcc_generated_files/usb/usb_device.c: 2609:     {;mcc_generated_files/usb/usb_device.c:
      +                           2610:         UADDR = (SetupPkt.bDevADR & 0x7F);
 11169  00262A  0104               	movlb	4	; () banked
 11170  00262C  5132               	movf	50,w,b	;volatile
 11171  00262E  0B7F               	andlw	127
 11172  002630  6E63               	movwf	99,c	;volatile
 11173  002632                     
 11174                           ; BSR set to: 4
 11175                           ;mcc_generated_files/usb/usb_device.c: 2611:         if(UADDR != 0u)
 11176  002632  5063               	movf	99,w,c	;volatile
 11177  002634  B4D8               	btfsc	status,2,c
 11178  002636  EF1F  F013         	goto	i2u330_41
 11179  00263A  EF21  F013         	goto	i2u330_40
 11180  00263E                     i2u330_41:
 11181  00263E  EF25  F013         	goto	i2l4321
 11182  002642                     i2u330_40:
 11183  002642                     
 11184                           ; BSR set to: 4
 11185                           ;mcc_generated_files/usb/usb_device.c: 2612:         {;mcc_generated_files/usb/usb_devic
      +                          e.c: 2613:             USBDeviceState=ADDRESS_STATE;
 11186  002642  0E10               	movlw	16
 11187  002644  6E46               	movwf	_USBDeviceState^0,c	;volatile
 11188                           
 11189                           ;mcc_generated_files/usb/usb_device.c: 2614:         }
 11190  002646  EF27  F013         	goto	i2l4323
 11191  00264A                     i2l4321:
 11192                           
 11193                           ; BSR set to: 4
 11194                           ;mcc_generated_files/usb/usb_device.c: 2616:         {;mcc_generated_files/usb/usb_devic
      +                          e.c: 2617:             USBDeviceState=DEFAULT_STATE;
 11195  00264A  0E04               	movlw	4
 11196  00264C  6E46               	movwf	_USBDeviceState^0,c	;volatile
 11197  00264E                     i2l4323:
 11198                           
 11199                           ;mcc_generated_files/usb/usb_device.c: 2622:     if(controlTransferState == 1)
 11200  00264E  0444               	decf	_controlTransferState^0,w,c	;volatile
 11201  002650  A4D8               	btfss	status,2,c
 11202  002652  EF2D  F013         	goto	i2u331_41
 11203  002656  EF2F  F013         	goto	i2u331_40
 11204  00265A                     i2u331_41:
 11205  00265A  EF77  F013         	goto	i2l374
 11206  00265E                     i2u331_40:
 11207  00265E                     
 11208                           ;mcc_generated_files/usb/usb_device.c: 2623:     {;mcc_generated_files/usb/usb_device.c:
      +                           2624:         pBDTEntryIn[0]->ADR = ((uint16_t)(CtrlTrfData));
 11209  00265E  0100               	movlb	0	; () banked
 11210  002660  EE20 F002          	lfsr	2,2
 11211  002664  51C8               	movf	_pBDTEntryIn& (0+255),w,b
 11212  002666  26D9               	addwf	fsr2l,f,c
 11213  002668  51C9               	movf	(_pBDTEntryIn+1)& (0+255),w,b
 11214  00266A  22DA               	addwfc	fsr2h,f,c
 11215  00266C  0E38               	movlw	56
 11216  00266E  6EDE               	movwf	postinc2,c
 11217  002670  0E04               	movlw	4
 11218  002672  6EDD               	movwf	postdec2,c
 11219  002674                     
 11220                           ; BSR set to: 0
 11221                           ;mcc_generated_files/usb/usb_device.c: 2625:         USBCtrlTrfTxService();
 11222  002674  EC69  F011         	call	_USBCtrlTrfTxService	;wreg free
 11223  002678                     
 11224                           ;mcc_generated_files/usb/usb_device.c: 2631:         if(shortPacketStatus == 2)
 11225  002678  0E02               	movlw	2
 11226  00267A  1845               	xorwf	_shortPacketStatus^0,w,c	;volatile
 11227  00267C  A4D8               	btfss	status,2,c
 11228  00267E  EF43  F013         	goto	i2u332_41
 11229  002682  EF45  F013         	goto	i2u332_40
 11230  002686                     i2u332_41:
 11231  002686  EF53  F013         	goto	i2l4335
 11232  00268A                     i2u332_40:
 11233  00268A                     
 11234                           ;mcc_generated_files/usb/usb_device.c: 2632:         {;mcc_generated_files/usb/usb_devic
      +                          e.c: 2635:             pBDTEntryIn[0]->STAT.Val = 0x04;
 11235  00268A  C0C8  FFD9         	movff	_pBDTEntryIn,fsr2l
 11236  00268E  C0C9  FFDA         	movff	_pBDTEntryIn+1,fsr2h
 11237  002692  0E04               	movlw	4
 11238  002694  6EDF               	movwf	indf2,c
 11239  002696                     
 11240                           ;mcc_generated_files/usb/usb_device.c: 2636:             pBDTEntryIn[0]->STAT.Val |= 0x8
      +                          0;
 11241  002696  C0C8  FFD9         	movff	_pBDTEntryIn,fsr2l
 11242  00269A  C0C9  FFDA         	movff	_pBDTEntryIn+1,fsr2h
 11243  00269E  0E00               	movlw	0
 11244  0026A0  8EDB               	bsf	plusw2,7,c
 11245                           
 11246                           ;mcc_generated_files/usb/usb_device.c: 2637:         }
 11247  0026A2  EF82  F013         	goto	i2l382
 11248  0026A6                     i2l4335:
 11249                           
 11250                           ;mcc_generated_files/usb/usb_device.c: 2639:         {;mcc_generated_files/usb/usb_devic
      +                          e.c: 2640:             if(lastDTS == 0)
 11251  0026A6  5002               	movf	USBCtrlTrfInHandler@lastDTS^0,w,c
 11252  0026A8  A4D8               	btfss	status,2,c
 11253  0026AA  EF59  F013         	goto	i2u333_41
 11254  0026AE  EF5B  F013         	goto	i2u333_40
 11255  0026B2                     i2u333_41:
 11256  0026B2  EF69  F013         	goto	i2l4341
 11257  0026B6                     i2u333_40:
 11258  0026B6                     
 11259                           ;mcc_generated_files/usb/usb_device.c: 2641:             {;mcc_generated_files/usb/usb_d
      +                          evice.c: 2642:                 pBDTEntryIn[0]->STAT.Val = 0x40|(0x08 & 0x08);
 11260  0026B6  C0C8  FFD9         	movff	_pBDTEntryIn,fsr2l
 11261  0026BA  C0C9  FFDA         	movff	_pBDTEntryIn+1,fsr2h
 11262  0026BE  0E48               	movlw	72
 11263  0026C0  6EDF               	movwf	indf2,c
 11264  0026C2                     
 11265                           ;mcc_generated_files/usb/usb_device.c: 2643:                 pBDTEntryIn[0]->STAT.Val |=
      +                           0x80;
 11266  0026C2  C0C8  FFD9         	movff	_pBDTEntryIn,fsr2l
 11267  0026C6  C0C9  FFDA         	movff	_pBDTEntryIn+1,fsr2h
 11268  0026CA  0E00               	movlw	0
 11269  0026CC  8EDB               	bsf	plusw2,7,c
 11270                           
 11271                           ;mcc_generated_files/usb/usb_device.c: 2644:             }
 11272  0026CE  EF82  F013         	goto	i2l382
 11273  0026D2                     i2l4341:
 11274                           
 11275                           ;mcc_generated_files/usb/usb_device.c: 2646:             {;mcc_generated_files/usb/usb_d
      +                          evice.c: 2647:                 pBDTEntryIn[0]->STAT.Val = 0x00|(0x08 & 0x08);
 11276  0026D2  C0C8  FFD9         	movff	_pBDTEntryIn,fsr2l
 11277  0026D6  C0C9  FFDA         	movff	_pBDTEntryIn+1,fsr2h
 11278  0026DA  0E08               	movlw	8
 11279  0026DC  6EDF               	movwf	indf2,c
 11280  0026DE                     
 11281                           ;mcc_generated_files/usb/usb_device.c: 2648:                 pBDTEntryIn[0]->STAT.Val |=
      +                           0x80;
 11282  0026DE  C0C8  FFD9         	movff	_pBDTEntryIn,fsr2l
 11283  0026E2  C0C9  FFDA         	movff	_pBDTEntryIn+1,fsr2h
 11284  0026E6  0E00               	movlw	0
 11285  0026E8  8EDB               	bsf	plusw2,7,c
 11286  0026EA  EF82  F013         	goto	i2l382
 11287  0026EE                     i2l374:
 11288                           
 11289                           ;mcc_generated_files/usb/usb_device.c: 2653:  {;mcc_generated_files/usb/usb_device.c: 26
      +                          57:         if(outPipes[0].info.bits.busy == 1)
 11290  0026EE  0100               	movlb	0	; () banked
 11291  0026F0  AFBD               	btfss	(_outPipes+3)& (0+255),7,b	;volatile
 11292  0026F2  EF7D  F013         	goto	i2u334_41
 11293  0026F6  EF7F  F013         	goto	i2u334_40
 11294  0026FA                     i2u334_41:
 11295  0026FA  EF80  F013         	goto	i2l4347
 11296  0026FE                     i2u334_40:
 11297  0026FE                     
 11298                           ; BSR set to: 0
 11299                           ;mcc_generated_files/usb/usb_device.c: 2663:             outPipes[0].info.bits.busy = 0;
 11300  0026FE  9FBD               	bcf	(_outPipes+3)& (0+255),7,b	;volatile
 11301  002700                     i2l4347:
 11302                           
 11303                           ; BSR set to: 0
 11304                           ;mcc_generated_files/usb/usb_device.c: 2666:         controlTransferState = 0;
 11305  002700  0E00               	movlw	0
 11306  002702  6E44               	movwf	_controlTransferState^0,c	;volatile
 11307  002704                     i2l382:
 11308  002704  0012               	return		;funcret
 11309  002706                     __end_of_USBCtrlTrfInHandler:
 11310                           	opt callstack 0
 11311                           
 11312 ;; *************** function _USBCtrlTrfTxService *****************
 11313 ;; Defined at:
 11314 ;;		line 1775 in file "mcc_generated_files/usb/usb_device.c"
 11315 ;; Parameters:    Size  Location     Type
 11316 ;;		None
 11317 ;; Auto vars:     Size  Location     Type
 11318 ;;  byteToSend      1    0[COMRAM] unsigned char 
 11319 ;; Return value:  Size  Location     Type
 11320 ;;                  1    wreg      void 
 11321 ;; Registers used:
 11322 ;;		wreg, fsr1l, fsr1h, fsr2l, fsr2h, status,2, status,0, tblptrl, tblptrh, tblptru
 11323 ;; Tracked objects:
 11324 ;;		On entry : 0/0
 11325 ;;		On exit  : 0/0
 11326 ;;		Unchanged: 0/0
 11327 ;; Data sizes:     COMRAM   BANK0   BANK1   BANK2   BANK3   BANK4   BANK5   BANK6   BANK7
 11328 ;;      Params:         0       0       0       0       0       0       0       0       0
 11329 ;;      Locals:         1       0       0       0       0       0       0       0       0
 11330 ;;      Temps:          0       0       0       0       0       0       0       0       0
 11331 ;;      Totals:         1       0       0       0       0       0       0       0       0
 11332 ;;Total ram usage:        1 bytes
 11333 ;; Hardware stack levels used:    1
 11334 ;; This function calls:
 11335 ;;		Nothing
 11336 ;; This function is called by:
 11337 ;;		_USBCtrlEPAllowDataStage
 11338 ;;		_USBCtrlTrfInHandler
 11339 ;; This function uses a non-reentrant model
 11340 ;;
 11341                           
 11342                           	psect	text63
 11343  0022D2                     __ptext63:
 11344                           	opt callstack 0
 11345  0022D2                     _USBCtrlTrfTxService:
 11346                           	opt callstack 6
 11347  0022D2                     
 11348                           ;mcc_generated_files/usb/usb_device.c: 1777:     uint8_t byteToSend;;mcc_generated_files
      +                          /usb/usb_device.c: 1781:     byteToSend = 8;
 11349  0022D2  0E08               	movlw	8
 11350  0022D4  6E01               	movwf	USBCtrlTrfTxService@byteToSend^0,c
 11351  0022D6                     
 11352                           ;mcc_generated_files/usb/usb_device.c: 1782:     if(inPipes[0].wCount.Val < (uint8_t)8)
 11353  0022D6  0100               	movlb	0	; () banked
 11354  0022D8  51C7               	movf	(_inPipes+5)& (0+255),w,b	;volatile
 11355  0022DA  E107               	bnz	i2u240_41
 11356  0022DC  0E08               	movlw	8
 11357  0022DE  5DC6               	subwf	(_inPipes+4)& (0+255),w,b	;volatile
 11358  0022E0  B0D8               	btfsc	status,0,c
 11359  0022E2  EF75  F011         	goto	i2u240_41
 11360  0022E6  EF77  F011         	goto	i2u240_40
 11361  0022EA                     i2u240_41:
 11362  0022EA  EF8F  F011         	goto	i2l3619
 11363  0022EE                     i2u240_40:
 11364  0022EE                     
 11365                           ; BSR set to: 0
 11366                           ;mcc_generated_files/usb/usb_device.c: 1783:     {;mcc_generated_files/usb/usb_device.c:
      +                           1784:         byteToSend = inPipes[0].wCount.Val;
 11367  0022EE  C0C6  F001         	movff	_inPipes+4,USBCtrlTrfTxService@byteToSend	;volatile
 11368  0022F2                     
 11369                           ; BSR set to: 0
 11370                           ;mcc_generated_files/usb/usb_device.c: 1791:         if(shortPacketStatus == 0)
 11371  0022F2  5045               	movf	_shortPacketStatus^0,w,c	;volatile
 11372  0022F4  A4D8               	btfss	status,2,c
 11373  0022F6  EF7F  F011         	goto	i2u241_41
 11374  0022FA  EF81  F011         	goto	i2u241_40
 11375  0022FE                     i2u241_41:
 11376  0022FE  EF85  F011         	goto	i2l3615
 11377  002302                     i2u241_40:
 11378  002302                     
 11379                           ; BSR set to: 0
 11380                           ;mcc_generated_files/usb/usb_device.c: 1792:         {;mcc_generated_files/usb/usb_devic
      +                          e.c: 1793:             shortPacketStatus = 1;
 11381  002302  0E01               	movlw	1
 11382  002304  6E45               	movwf	_shortPacketStatus^0,c	;volatile
 11383                           
 11384                           ;mcc_generated_files/usb/usb_device.c: 1794:         }
 11385  002306  EF8F  F011         	goto	i2l3619
 11386  00230A                     i2l3615:
 11387                           
 11388                           ; BSR set to: 0
 11389  00230A  0445               	decf	_shortPacketStatus^0,w,c	;volatile
 11390  00230C  A4D8               	btfss	status,2,c
 11391  00230E  EF8B  F011         	goto	i2u242_41
 11392  002312  EF8D  F011         	goto	i2u242_40
 11393  002316                     i2u242_41:
 11394  002316  EF8F  F011         	goto	i2l3619
 11395  00231A                     i2u242_40:
 11396  00231A                     
 11397                           ; BSR set to: 0
 11398                           ;mcc_generated_files/usb/usb_device.c: 1796:         {;mcc_generated_files/usb/usb_devic
      +                          e.c: 1797:             shortPacketStatus = 2;
 11399  00231A  0E02               	movlw	2
 11400  00231C  6E45               	movwf	_shortPacketStatus^0,c	;volatile
 11401  00231E                     i2l3619:
 11402                           
 11403                           ; BSR set to: 0
 11404                           ;mcc_generated_files/usb/usb_device.c: 1803:     inPipes[0].wCount.Val -= byteToSend;
 11405  00231E  5001               	movf	USBCtrlTrfTxService@byteToSend^0,w,c
 11406  002320  5FC6               	subwf	(_inPipes+4)& (0+255),f,b	;volatile
 11407  002322  0E00               	movlw	0
 11408  002324  5BC7               	subwfb	(_inPipes+5)& (0+255),f,b	;volatile
 11409  002326                     
 11410                           ; BSR set to: 0
 11411                           ;mcc_generated_files/usb/usb_device.c: 1808:     pBDTEntryIn[0]->CNT = byteToSend;
 11412  002326  EE20 F001          	lfsr	2,1
 11413  00232A  51C8               	movf	_pBDTEntryIn& (0+255),w,b
 11414  00232C  26D9               	addwf	fsr2l,f,c
 11415  00232E  51C9               	movf	(_pBDTEntryIn+1)& (0+255),w,b
 11416  002330  22DA               	addwfc	fsr2h,f,c
 11417  002332  C001  FFDF         	movff	USBCtrlTrfTxService@byteToSend,indf2
 11418  002336                     
 11419                           ; BSR set to: 0
 11420                           ;mcc_generated_files/usb/usb_device.c: 1812:     pDst = (volatile uint8_t*)CtrlTrfData;
 11421  002336  0E38               	movlw	56
 11422  002338  6E34               	movwf	_pDst^0,c
 11423  00233A  0E04               	movlw	4
 11424  00233C  6E35               	movwf	(_pDst+1)^0,c
 11425  00233E                     
 11426                           ; BSR set to: 0
 11427                           ;mcc_generated_files/usb/usb_device.c: 1813:     if(inPipes[0].info.bits.ctrl_trf_mem ==
      +                           0x00)
 11428  00233E  B1C5               	btfsc	(_inPipes+3)& (0+255),0,b	;volatile
 11429  002340  EFA4  F011         	goto	i2u243_41
 11430  002344  EFA6  F011         	goto	i2u243_40
 11431  002348                     i2u243_41:
 11432  002348  EFE8  F011         	goto	i2l3647
 11433  00234C                     i2u243_40:
 11434  00234C  EFC3  F011         	goto	i2l3637
 11435  002350                     i2l3629:
 11436                           
 11437                           ; BSR set to: 0
 11438                           ;mcc_generated_files/usb/usb_device.c: 1816:         {;mcc_generated_files/usb/usb_devic
      +                          e.c: 1817:             *pDst++ = *inPipes[0].pSrc.bRom++;
 11439  002350  C0C2  FFF6         	movff	_inPipes,tblptrl	;volatile
 11440  002354  C0C3  FFF7         	movff	_inPipes+1,tblptrh	;volatile
 11441  002358  6AF8               	clrf	tblptru,c
 11442  00235A  C034  FFD9         	movff	_pDst,fsr2l
 11443  00235E  C035  FFDA         	movff	_pDst+1,fsr2h
 11444  002362  0E07               	movlw	(high __ramtop+-1)
 11445  002364  64F7               	cpfsgt	tblptrh,c
 11446  002366  D003               	bra	i2u244_47
 11447  002368  0008               	tblrd		*
 11448  00236A  50F5               	movf	tablat,w,c
 11449  00236C  D005               	bra	i2u244_40
 11450  00236E                     i2u244_47:
 11451  00236E  CFF6 FFE1          	movff	tblptrl,fsr1l
 11452  002372  CFF7 FFE2          	movff	tblptrh,fsr1h
 11453  002376  50E7               	movf	indf1,w,c
 11454  002378                     i2u244_40:
 11455  002378  6EDF               	movwf	indf2,c
 11456  00237A  0100               	movlb	0	; () banked
 11457  00237C  4BC2               	infsnz	_inPipes& (0+255),f,b	;volatile
 11458  00237E  2BC3               	incf	(_inPipes+1)& (0+255),f,b	;volatile
 11459  002380                     
 11460                           ; BSR set to: 0
 11461  002380  4A34               	infsnz	_pDst^0,f,c
 11462  002382  2A35               	incf	(_pDst+1)^0,f,c
 11463  002384                     
 11464                           ; BSR set to: 0
 11465                           ;mcc_generated_files/usb/usb_device.c: 1818:             byteToSend--;
 11466  002384  0601               	decf	USBCtrlTrfTxService@byteToSend^0,f,c
 11467  002386                     i2l3637:
 11468                           
 11469                           ; BSR set to: 0
 11470                           ;mcc_generated_files/usb/usb_device.c: 1815:         while(byteToSend)
 11471  002386  5001               	movf	USBCtrlTrfTxService@byteToSend^0,w,c
 11472  002388  A4D8               	btfss	status,2,c
 11473  00238A  EFC9  F011         	goto	i2u245_41
 11474  00238E  EFCB  F011         	goto	i2u245_40
 11475  002392                     i2u245_41:
 11476  002392  EFA8  F011         	goto	i2l3629
 11477  002396                     i2u245_40:
 11478  002396  EFF0  F011         	goto	i2l288
 11479  00239A                     i2l3639:
 11480                           
 11481                           ; BSR set to: 0
 11482                           ;mcc_generated_files/usb/usb_device.c: 1824:         {;mcc_generated_files/usb/usb_devic
      +                          e.c: 1825:             *pDst++ = *inPipes[0].pSrc.bRam++;
 11483  00239A  C0C2  FFF6         	movff	_inPipes,tblptrl	;volatile
 11484  00239E  C0C3  FFF7         	movff	_inPipes+1,tblptrh	;volatile
 11485  0023A2  6AF8               	clrf	tblptru,c
 11486  0023A4  C034  FFD9         	movff	_pDst,fsr2l
 11487  0023A8  C035  FFDA         	movff	_pDst+1,fsr2h
 11488  0023AC  0E07               	movlw	(high __ramtop+-1)
 11489  0023AE  64F7               	cpfsgt	tblptrh,c
 11490  0023B0  D003               	bra	i2u246_47
 11491  0023B2  0008               	tblrd		*
 11492  0023B4  50F5               	movf	tablat,w,c
 11493  0023B6  D005               	bra	i2u246_40
 11494  0023B8                     i2u246_47:
 11495  0023B8  CFF6 FFE1          	movff	tblptrl,fsr1l
 11496  0023BC  CFF7 FFE2          	movff	tblptrh,fsr1h
 11497  0023C0  50E7               	movf	indf1,w,c
 11498  0023C2                     i2u246_40:
 11499  0023C2  6EDF               	movwf	indf2,c
 11500  0023C4  0100               	movlb	0	; () banked
 11501  0023C6  4BC2               	infsnz	_inPipes& (0+255),f,b	;volatile
 11502  0023C8  2BC3               	incf	(_inPipes+1)& (0+255),f,b	;volatile
 11503  0023CA                     
 11504                           ; BSR set to: 0
 11505  0023CA  4A34               	infsnz	_pDst^0,f,c
 11506  0023CC  2A35               	incf	(_pDst+1)^0,f,c
 11507  0023CE                     
 11508                           ; BSR set to: 0
 11509                           ;mcc_generated_files/usb/usb_device.c: 1826:             byteToSend--;
 11510  0023CE  0601               	decf	USBCtrlTrfTxService@byteToSend^0,f,c
 11511  0023D0                     i2l3647:
 11512                           
 11513                           ; BSR set to: 0
 11514                           ;mcc_generated_files/usb/usb_device.c: 1823:         while(byteToSend)
 11515  0023D0  5001               	movf	USBCtrlTrfTxService@byteToSend^0,w,c
 11516  0023D2  A4D8               	btfss	status,2,c
 11517  0023D4  EFEE  F011         	goto	i2u247_41
 11518  0023D8  EFF0  F011         	goto	i2u247_40
 11519  0023DC                     i2u247_41:
 11520  0023DC  EFCD  F011         	goto	i2l3639
 11521  0023E0                     i2u247_40:
 11522  0023E0                     i2l288:
 11523                           
 11524                           ; BSR set to: 0
 11525  0023E0  0012               	return		;funcret
 11526  0023E2                     __end_of_USBCtrlTrfTxService:
 11527                           	opt callstack 0
 11528                           
 11529                           	psect	rparam
 11530  0000                     
 11531                           	psect	temp
 11532  000052                     btemp:
 11533                           	opt callstack 0
 11534  000052                     	ds	1
 11535  0000                     int$flags	set	btemp
 11536  0000                     wtemp8	set	btemp+1
 11537  0000                     ttemp5	set	btemp+1
 11538  0000                     ttemp6	set	btemp+4
 11539  0000                     ttemp7	set	btemp+8
 11540                           tosu	equ	0xFFF
 11541                           tosh	equ	0xFFE
 11542                           tosl	equ	0xFFD
 11543                           stkptr	equ	0xFFC
 11544                           pclatu	equ	0xFFB
 11545                           pclath	equ	0xFFA
 11546                           pcl	equ	0xFF9
 11547                           tblptru	equ	0xFF8
 11548                           tblptrh	equ	0xFF7
 11549                           tblptrl	equ	0xFF6
 11550                           tablat	equ	0xFF5
 11551                           prodh	equ	0xFF4
 11552                           prodl	equ	0xFF3
 11553                           indf0	equ	0xFEF
 11554                           postinc0	equ	0xFEE
 11555                           postdec0	equ	0xFED
 11556                           preinc0	equ	0xFEC
 11557                           plusw0	equ	0xFEB
 11558                           fsr0h	equ	0xFEA
 11559                           fsr0l	equ	0xFE9
 11560                           wreg	equ	0xFE8
 11561                           indf1	equ	0xFE7
 11562                           postinc1	equ	0xFE6
 11563                           postdec1	equ	0xFE5
 11564                           preinc1	equ	0xFE4
 11565                           plusw1	equ	0xFE3
 11566                           fsr1h	equ	0xFE2
 11567                           fsr1l	equ	0xFE1
 11568                           bsr	equ	0xFE0
 11569                           indf2	equ	0xFDF
 11570                           postinc2	equ	0xFDE
 11571                           postdec2	equ	0xFDD
 11572                           preinc2	equ	0xFDC
 11573                           plusw2	equ	0xFDB
 11574                           fsr2h	equ	0xFDA
 11575                           fsr2l	equ	0xFD9
 11576                           status	equ	0xFD8


Data Sizes:
    Strings     10
    Constant    173
    Data        0
    BSS         274
    Persistent  0
    Stack       0

Auto Spaces:
    Space          Size  Autos    Used
    COMRAM           94     41      81
    BANK0           160     80     147
    BANK1           256     70     237
    BANK2           256      0       0
    BANK3           256      0       0
    BANK4           192      0       0
    BANK5           128      0       0
    BANK6           256      0       0
    BANK7           256      0       0

Pointer List with Targets:

    i1sprintf@f.buffer	PTR unsigned char  size(2) Largest target is 0
		 -> buffer(BANK1[64]), 

    USER_USB_CALLBACK_EVENT_HANDLER@pdata	PTR void  size(2) Largest target is 2047
		 -> RAM(DATA[2047]), USTATcopy(COMRAM[1]), USBActiveConfiguration(COMRAM[1]), NULL(NULL[0]), 
		 -> BDT(BIGRAMl[48]), 

    strlen@s	PTR const unsigned char  size(2) Largest target is 32
		 -> dbuf(BANK1[32]), 

    strlen@a	PTR const unsigned char  size(2) Largest target is 32
		 -> dbuf(BANK1[32]), 

    sprintf@fmt	PTR const unsigned char  size(2) Largest target is 10
		 -> STR_2(CODE[10]), STR_1(CODE[10]), 

    sprintf@s	PTR unsigned char  size(2) Largest target is 64
		 -> buffer(BANK1[64]), 

    sprintf@ap	PTR void [1] size(2) Largest target is 2
		 -> ?_sprintf(BANK1[2]), 

    f.buffer	PTR unsigned char  size(2) Largest target is 64
		 -> buffer(BANK1[64]), 

    fputs@s	PTR const unsigned char  size(2) Largest target is 32
		 -> dbuf(BANK1[32]), 

    fputs@fp	PTR struct _IO_FILE size(2) Largest target is 7
		 -> sprintf@f(BANK1[6]), 

    S3034_IO_FILE$buffer	PTR unsigned char  size(2) Largest target is 64
		 -> buffer(BANK1[64]), 

    fputc@fp.buffer	PTR unsigned char  size(2) Largest target is 64
		 -> buffer(BANK1[64]), 

    fputc@fp	PTR struct _IO_FILE size(2) Largest target is 7
		 -> sprintf@f(BANK1[6]), 

    memset@dest	PTR void  size(2) Largest target is 48
		 -> USBAlternateInterface(COMRAM[2]), BDT(BIGRAMl[48]), UEP1(SFR_1[1]), 

    memset@s	PTR unsigned char  size(2) Largest target is 48
		 -> USBAlternateInterface(COMRAM[2]), BDT(BIGRAMl[48]), UEP1(SFR_1[1]), 

    memcpy@d1	PTR void  size(2) Largest target is 8
		 -> SetupPkt(BIGRAMhl[8]), 

    memcpy@d	PTR unsigned char  size(2) Largest target is 8
		 -> SetupPkt(BIGRAMhl[8]), 

    memcpy@s1	PTR const void  size(2) Largest target is 2047
		 -> CtrlTrfData(BIGRAMhl[8]), RAM(DATA[2047]), SetupPkt(BIGRAMhl[8]), 

    memcpy@s	PTR const unsigned char  size(2) Largest target is 2047
		 -> CtrlTrfData(BIGRAMhl[8]), RAM(DATA[2047]), SetupPkt(BIGRAMhl[8]), 

    vfprintf@ap	PTR PTR void  size(2) Largest target is 2
		 -> sprintf@ap(BANK1[2]), 

    vfprintf@fp	PTR struct _IO_FILE size(2) Largest target is 7
		 -> sprintf@f(BANK1[6]), 

    vfprintf@fmt	PTR const unsigned char  size(2) Largest target is 10
		 -> STR_2(CODE[10]), STR_1(CODE[10]), 

    vfprintf@cfmt	PTR unsigned char  size(2) Largest target is 10
		 -> STR_2(CODE[10]), STR_1(CODE[10]), 

    vfpfcnvrt@fp	PTR struct _IO_FILE size(2) Largest target is 7
		 -> sprintf@f(BANK1[6]), 

    vfpfcnvrt@ap	PTR PTR void  size(2) Largest target is 2
		 -> sprintf@ap(BANK1[2]), 

    vfpfcnvrt@fmt	PTR PTR unsigned char  size(2) Largest target is 2
		 -> vfprintf@cfmt(BANK1[2]), 

    ctoa@fp	PTR struct _IO_FILE size(2) Largest target is 7
		 -> sprintf@f(BANK1[6]), 

    pad@fp	PTR struct _IO_FILE size(2) Largest target is 7
		 -> sprintf@f(BANK1[6]), 

    pad@buf	PTR unsigned char  size(2) Largest target is 32
		 -> dbuf(BANK1[32]), 

    putrsUSBUSART@data	PTR const unsigned char  size(2) Largest target is 64
		 -> buffer(BANK1[64]), 

    putrsUSBUSART@pData	PTR const unsigned char  size(2) Largest target is 64
		 -> buffer(BANK1[64]), 

    getsUSBUSART@buffer	PTR unsigned char  size(2) Largest target is 64
		 -> USB_Out_Buffer(BANK1[64]), 

    CDCDataInHandle	PTR void  size(2) Largest target is 2047
		 -> RAM(DATA[2047]), NULL(NULL[0]), BDT(BIGRAMl[48]), 

    CDCDataOutHandle	PTR void  size(2) Largest target is 2047
		 -> RAM(DATA[2047]), NULL(NULL[0]), BDT(BIGRAMl[48]), 

    pCDCDst.wRom	PTR const unsigned short  size(2) Largest target is 0

    pCDCDst.bRom	PTR const unsigned char  size(2) Largest target is 0

    pCDCDst.wRam	PTR unsigned short  size(2) Largest target is 0

    pCDCDst.bRam	PTR unsigned char  size(2) Largest target is 0

    S1859_POINTER$wRom	PTR const unsigned short  size(2) Largest target is 0

    pCDCSrc.wRom	PTR const unsigned short  size(2) Largest target is 0

    S1859_POINTER$bRom	PTR const unsigned char  size(2) Largest target is 0

    pCDCSrc.bRom	PTR const unsigned char  size(2) Largest target is 0

    S1859_POINTER$wRam	PTR unsigned short  size(2) Largest target is 0

    pCDCSrc.wRam	PTR unsigned short  size(2) Largest target is 0

    S1859_POINTER$bRam	PTR unsigned char  size(2) Largest target is 0

    pCDCSrc.bRam	PTR unsigned char  size(2) Largest target is 0

    USBStdFeatureReqHandler@pUEP	PTR unsigned char  size(2) Largest target is 1
		 -> UEP0(SFR_1[1]), 

    USBStdFeatureReqHandler@p	PTR struct __BDT size(2) Largest target is 2047
		 -> RAM(DATA[2047]), NULL(NULL[0]), BDT(BIGRAMl[48]), 

    sp__memcpy	PTR void  size(2) Largest target is 8
		 -> SetupPkt(BIGRAMhl[8]), 

    USBStdGetStatusHandler@p	PTR struct __BDT size(2) Largest target is 2047
		 -> RAM(DATA[2047]), NULL(NULL[0]), BDT(BIGRAMl[48]), 

    USB_SD_Ptr	const PTR const unsigned char [3] size(2) Largest target is 52
		 -> sd002(CODE[24]), sd001(CODE[52]), sd000(CODE[4]), 

    USB_CD_Ptr	const PTR const unsigned char [1] size(2) Largest target is 67
		 -> configDescriptor1(CODE[67]), 

    pDst	PTR volatile unsigned char  size(2) Largest target is 8
		 -> CtrlTrfData(BIGRAMhl[8]), NULL(NULL[0]), 

    USBConfigureEndpoint@handle	PTR volatile struct __BDT size(2) Largest target is 48
		 -> BDT(BIGRAMl[48]), 

    pBDTEntryEP0OutCurrent	PTR volatile struct __BDT size(2) Largest target is 48
		 -> NULL(NULL[0]), BDT(BIGRAMl[48]), 

    pBDTEntryEP0OutNext	PTR volatile struct __BDT size(2) Largest target is 2047
		 -> RAM(DATA[2047]), NULL(NULL[0]), BDT(BIGRAMl[48]), 

    USBTransferOnePacket@data	PTR unsigned char  size(2) Largest target is 64
		 -> cdc_data_tx(BIGRAMhl[64]), cdc_data_rx(BIGRAMhh[64]), NULL(NULL[0]), 

    sp__USBTransferOnePacket	PTR void  size(2) Largest target is 2047
		 -> RAM(DATA[2047]), NULL(NULL[0]), BDT(BIGRAMl[48]), 

    USBTransferOnePacket@handle	PTR volatile struct __BDT size(2) Largest target is 2047
		 -> RAM(DATA[2047]), NULL(NULL[0]), BDT(BIGRAMl[48]), 

    USBEnableEndpoint@p	PTR unsigned char  size(2) Largest target is 1
		 -> UEP0(SFR_1[1]), 

    pBDTEntryOut	PTR volatile struct __BDT[3] size(2) Largest target is 2047
		 -> RAM(DATA[2047]), NULL(NULL[0]), BDT(BIGRAMl[48]), 

    pBDTEntryIn	PTR volatile struct __BDT[3] size(2) Largest target is 2047
		 -> RAM(DATA[2047]), NULL(NULL[0]), BDT(BIGRAMl[48]), 

    S227$pFunc	PTR FTN()void  size(2) Largest target is 0
		 -> NULL(NULL[0]), 

    outPipes.pFunc	PTR FTN()void  size(2) Largest target is 0
		 -> NULL(NULL[0]), 

    S217$wRam	PTR unsigned short  size(2) Largest target is 0

    outPipes.pDst.wRam	PTR unsigned short  size(2) Largest target is 0

    S217$bRam	PTR unsigned char  size(2) Largest target is 0

    outPipes.pDst.bRam	PTR unsigned char  size(2) Largest target is 0

    S193$wRom	PTR const unsigned short  size(2) Largest target is 0

    inPipes.pSrc.wRom	PTR const unsigned short  size(2) Largest target is 0

    S193$wRam	PTR unsigned short  size(2) Largest target is 0

    inPipes.pSrc.wRam	PTR unsigned short  size(2) Largest target is 0

    S193$bRom	PTR const unsigned char  size(2) Largest target is 0

    inPipes.pSrc.bRom	PTR const unsigned char  size(2) Largest target is 0

    S193$bRam	PTR unsigned char  size(2) Largest target is 0

    inPipes.pSrc.bRam	PTR unsigned char  size(2) Largest target is 0

    sp__memset	PTR void  size(2) Largest target is 48
		 -> USBAlternateInterface(COMRAM[2]), BDT(BIGRAMl[48]), UEP1(SFR_1[1]), 


Critical Paths under _main in COMRAM

    None.

Critical Paths under _ISR in COMRAM

    None.

Critical Paths under _INTERRUPT_InterruptManagerHigh in COMRAM

    _INTERRUPT_InterruptManagerHigh->_USBDeviceTasks
    _USBDeviceTasks->_USBCtrlEPService
    i2_USBDeviceInit->i2_memset
    _USBWakeFromSuspend->_USER_USB_CALLBACK_EVENT_HANDLER
    _USBSuspend->_USER_USB_CALLBACK_EVENT_HANDLER
    _USBCtrlTrfSetupHandler->_USBCheckStdRequest
    _USBCtrlEPAllowDataStage->_USBCtrlTrfTxService
    _USBCheckStdRequest->_USBStdFeatureReqHandler
    _USBStdSetCfgHandler->_USER_USB_CALLBACK_EVENT_HANDLER
    _USBStdFeatureReqHandler->_USER_USB_CALLBACK_EVENT_HANDLER
    _CDCInitEP->_USBEnableEndpoint
    _USBEnableEndpoint->_USBConfigureEndpoint
    _USBCtrlTrfOutHandler->_USBCtrlTrfRxService
    _USBCtrlTrfInHandler->_USBCtrlTrfTxService

Critical Paths under _main in BANK0

    None.

Critical Paths under _ISR in BANK0

    _ISR->i1_sprintf
    i1_sprintf->i1_vfprintf
    i1_vfprintf->i1_vfpfcnvrt
    i1_vfpfcnvrt->i1_ctoa
    i1_ctoa->i1_pad
    i1_pad->i1_fputs
    i1_fputs->i1_fputc
    i1_CDCTxService->i1_USBTransferOnePacket

Critical Paths under _INTERRUPT_InterruptManagerHigh in BANK0

    None.

Critical Paths under _main in BANK1

    _main->_USBTask
    _USBTask->_sprintf
    _sprintf->_vfprintf
    _vfprintf->_vfpfcnvrt
    _vfpfcnvrt->_ctoa
    _ctoa->_pad
    _pad->_fputs
    _fputs->_fputc
    _getsUSBUSART->_USBTransferOnePacket
    _CDCTxService->_USBTransferOnePacket
    _SYSTEM_Initialize->_USBDeviceInit
    _USBDeviceInit->_memset

Critical Paths under _ISR in BANK1

    None.

Critical Paths under _INTERRUPT_InterruptManagerHigh in BANK1

    None.

Critical Paths under _main in BANK2

    None.

Critical Paths under _ISR in BANK2

    None.

Critical Paths under _INTERRUPT_InterruptManagerHigh in BANK2

    None.

Critical Paths under _main in BANK3

    None.

Critical Paths under _ISR in BANK3

    None.

Critical Paths under _INTERRUPT_InterruptManagerHigh in BANK3

    None.

Critical Paths under _main in BANK4

    None.

Critical Paths under _ISR in BANK4

    None.

Critical Paths under _INTERRUPT_InterruptManagerHigh in BANK4

    None.

Critical Paths under _main in BANK5

    None.

Critical Paths under _ISR in BANK5

    None.

Critical Paths under _INTERRUPT_InterruptManagerHigh in BANK5

    None.

Critical Paths under _main in BANK6

    None.

Critical Paths under _ISR in BANK6

    None.

Critical Paths under _INTERRUPT_InterruptManagerHigh in BANK6

    None.

Critical Paths under _main in BANK7

    None.

Critical Paths under _ISR in BANK7

    None.

Critical Paths under _INTERRUPT_InterruptManagerHigh in BANK7

    None.

Call Graph Tables:

 ---------------------------------------------------------------------------------
 (Depth) Function   	        Calls       Base Space   Used Autos Params    Refs
 ---------------------------------------------------------------------------------
 (0) _main                                                 0     0      0   14284
                  _SYSTEM_Initialize
                            _USBTask
 ---------------------------------------------------------------------------------
 (1) _USBTask                                              3     3      0   12043
                                             67 BANK1      3     3      0
                       _CDCTxService
                       _getsUSBUSART
                      _putrsUSBUSART
                            _sprintf
 ---------------------------------------------------------------------------------
 (2) _sprintf                                             18    10      8    7191
                                             49 BANK1     18    10      8
                           _vfprintf
 ---------------------------------------------------------------------------------
 (3) _vfprintf                                             8     2      6    6512
                                             41 BANK1      8     2      6
                          _vfpfcnvrt
 ---------------------------------------------------------------------------------
 (4) _vfpfcnvrt                                           42    36      6    5958
                                             32 BANK1      9     3      6
                               _ctoa
                              _fputc
 ---------------------------------------------------------------------------------
 (5) _ctoa                                                 7     4      3    4060
                                             27 BANK1      5     2      3
                                _pad
 ---------------------------------------------------------------------------------
 (6) _pad                                                 11     5      6    3753
                                             16 BANK1     11     5      6
                              _fputc
                              _fputs
                             _strlen
 ---------------------------------------------------------------------------------
 (7) _strlen                                               4     2      2     234
                                              0 BANK1      4     2      2
 ---------------------------------------------------------------------------------
 (7) _fputs                                                7     3      4    1705
                                              9 BANK1      7     3      4
                              _fputc
 ---------------------------------------------------------------------------------
 (5) _fputc                                                9     5      4    1149
                                              0 BANK1      9     5      4
                              _putch
 ---------------------------------------------------------------------------------
 (6) _putch                                                1     1      0       0
 ---------------------------------------------------------------------------------
 (2) _putrsUSBUSART                                        5     3      2     337
                                              0 BANK1      5     3      2
 ---------------------------------------------------------------------------------
 (2) _getsUSBUSART                                         4     1      3    2292
                                             11 BANK1      4     1      3
               _USBTransferOnePacket
 ---------------------------------------------------------------------------------
 (2) _CDCTxService                                         2     2      0    2189
                                             11 BANK1      2     2      0
               _USBTransferOnePacket
 ---------------------------------------------------------------------------------
 (3) _USBTransferOnePacket                                11     7      4    1988
                                              0 BANK1     11     7      4
 ---------------------------------------------------------------------------------
 (1) _SYSTEM_Initialize                                    0     0      0    2241
               _INTERRUPT_Initialize
              _OSCILLATOR_Initialize
             _PIN_MANAGER_Initialize
                    _USBDeviceAttach
                      _USBDeviceInit
 ---------------------------------------------------------------------------------
 (2) _USBDeviceInit                                        1     1      0    2241
                                             12 BANK1      1     1      0
                             _memset
 ---------------------------------------------------------------------------------
 (3) _memset                                              12     6      6    1950
                                              0 BANK1     12     6      6
 ---------------------------------------------------------------------------------
 (2) _USBDeviceAttach                                      0     0      0       0
 ---------------------------------------------------------------------------------
 (2) _PIN_MANAGER_Initialize                               0     0      0       0
 ---------------------------------------------------------------------------------
 (2) _OSCILLATOR_Initialize                                0     0      0       0
 ---------------------------------------------------------------------------------
 (2) _INTERRUPT_Initialize                                 0     0      0       0
 ---------------------------------------------------------------------------------
 Estimated maximum stack depth 7
 ---------------------------------------------------------------------------------
 (Depth) Function   	        Calls       Base Space   Used Autos Params    Refs
 ---------------------------------------------------------------------------------
 (10) _ISR                                                13    13      0    5229
                                             67 BANK0     13    13      0
                     i1_CDCTxService
                    i1_putrsUSBUSART
                          i1_sprintf
 ---------------------------------------------------------------------------------
 (11) i1_sprintf                                          18    10      8    4086
                                             49 BANK0     18    10      8
                         i1_vfprintf
 ---------------------------------------------------------------------------------
 (12) i1_vfprintf                                          8     2      6    3710
                                             41 BANK0      8     2      6
                        i1_vfpfcnvrt
 ---------------------------------------------------------------------------------
 (13) i1_vfpfcnvrt                                        42    36      6    3405
                                             32 BANK0      9     3      6
                             i1_ctoa
                            i1_fputc
 ---------------------------------------------------------------------------------
 (14) i1_ctoa                                              7     4      3    2266
                                             27 BANK0      5     2      3
                              i1_pad
 ---------------------------------------------------------------------------------
 (15) i1_pad                                              11     5      6    2097
                                             16 BANK0     11     5      6
                            i1_fputc
                            i1_fputs
                           i1_strlen
 ---------------------------------------------------------------------------------
 (16) i1_strlen                                            4     2      2     165
                                              0 BANK0      4     2      2
 ---------------------------------------------------------------------------------
 (16) i1_fputs                                             7     3      4     877
                                              9 BANK0      7     3      4
                            i1_fputc
 ---------------------------------------------------------------------------------
 (14) i1_fputc                                             9     5      4     597
                                              0 BANK0      9     5      4
                            i1_putch
 ---------------------------------------------------------------------------------
 (15) i1_putch                                             1     1      0       0
 ---------------------------------------------------------------------------------
 (11) i1_putrsUSBUSART                                     5     3      2     199
                                              0 BANK0      5     3      2
 ---------------------------------------------------------------------------------
 (11) i1_CDCTxService                                      2     2      0     944
                                             11 BANK0      2     2      0
             i1_USBTransferOnePacket
 ---------------------------------------------------------------------------------
 (12) i1_USBTransferOnePacket                             11     7      4     743
                                              0 BANK0     11     7      4
 ---------------------------------------------------------------------------------
 Estimated maximum stack depth 16
 ---------------------------------------------------------------------------------
 (Depth) Function   	        Calls       Base Space   Used Autos Params    Refs
 ---------------------------------------------------------------------------------
 (19) _INTERRUPT_InterruptManagerHigh                     10    10      0   30801
                                             31 COMRAM    10    10      0
                     _USBDeviceTasks
 ---------------------------------------------------------------------------------
 (20) _USBDeviceTasks                                      1     1      0   30801
                                             30 COMRAM     1     1      0
          _USBCtrlEPAllowStatusStage
                   _USBCtrlEPService
      _USBIncrement1msInternalTimers
                    _USBStallHandler
                         _USBSuspend
                 _USBWakeFromSuspend
    _USER_USB_CALLBACK_EVENT_HANDLER
                    i2_USBDeviceInit
 ---------------------------------------------------------------------------------
 (21) i2_USBDeviceInit                                     1     1      0    1233
                                             12 COMRAM     1     1      0
                           i2_memset
 ---------------------------------------------------------------------------------
 (21) _USBWakeFromSuspend                                  0     0      0    3879
    _USER_USB_CALLBACK_EVENT_HANDLER
 ---------------------------------------------------------------------------------
 (21) _USBSuspend                                          0     0      0    3879
    _USER_USB_CALLBACK_EVENT_HANDLER
 ---------------------------------------------------------------------------------
 (21) _USBStallHandler                                     1     1      0       0
                                              0 COMRAM     1     1      0
 ---------------------------------------------------------------------------------
 (21) _USBIncrement1msInternalTimers                       0     0      0       0
 ---------------------------------------------------------------------------------
 (21) _USBCtrlEPService                                    1     1      0   17885
                                             29 COMRAM     1     1      0
                _USBCtrlTrfInHandler
               _USBCtrlTrfOutHandler
             _USBCtrlTrfSetupHandler
                             _memcpy
 ---------------------------------------------------------------------------------
 (22) _memcpy                                             11     5      6     410
                                              0 COMRAM    11     5      6
 ---------------------------------------------------------------------------------
 (22) _USBCtrlTrfSetupHandler                              0     0      0   17246
                 _USBCheckStdRequest
           _USBCtrlEPServiceComplete
    _USER_USB_CALLBACK_EVENT_HANDLER
 ---------------------------------------------------------------------------------
 (23) _USBCtrlEPServiceComplete                            0     0      0      92
            _USBCtrlEPAllowDataStage
          _USBCtrlEPAllowStatusStage
 ---------------------------------------------------------------------------------
 (24) _USBCtrlEPAllowDataStage                             0     0      0      92
                _USBCtrlTrfTxService
 ---------------------------------------------------------------------------------
 (23) _USBCheckStdRequest                                  2     2      0   13275
                                             27 COMRAM     2     2      0
            _USBStdFeatureReqHandler
                _USBStdGetDscHandler
             _USBStdGetStatusHandler
                _USBStdSetCfgHandler
    _USER_USB_CALLBACK_EVENT_HANDLER
 ---------------------------------------------------------------------------------
 (24) _USBStdSetCfgHandler                                 1     1      0    5000
                                             20 COMRAM     1     1      0
    _USER_USB_CALLBACK_EVENT_HANDLER
                           i2_memset
 ---------------------------------------------------------------------------------
 (22) i2_memset                                           12     6      6    1031
                                              0 COMRAM    12     6      6
 ---------------------------------------------------------------------------------
 (24) _USBStdGetStatusHandler                              4     4      0      46
                                              0 COMRAM     4     4      0
 ---------------------------------------------------------------------------------
 (24) _USBStdGetDscHandler                                 2     2      0       0
                                              0 COMRAM     2     2      0
 ---------------------------------------------------------------------------------
 (24) _USBStdFeatureReqHandler                             7     7      0    4350
                                             20 COMRAM     7     7      0
    _USER_USB_CALLBACK_EVENT_HANDLER
 ---------------------------------------------------------------------------------
 (21) _USER_USB_CALLBACK_EVENT_HANDLER                     8     2      6    3879
                                             12 COMRAM     8     2      6
                          _CDCInitEP
                 _USBCheckCDCRequest
 ---------------------------------------------------------------------------------
 (22) _USBCheckCDCRequest                                  2     2      0       0
                                              0 COMRAM     2     2      0
 ---------------------------------------------------------------------------------
 (22) _CDCInitEP                                           0     0      0    1187
                  _USBEnableEndpoint
             i2_USBTransferOnePacket
 ---------------------------------------------------------------------------------
 (23) i2_USBTransferOnePacket                             11     7      4     454
                                              0 COMRAM    11     7      4
 ---------------------------------------------------------------------------------
 (23) _USBEnableEndpoint                                   4     3      1     733
                                              8 COMRAM     4     3      1
               _USBConfigureEndpoint
 ---------------------------------------------------------------------------------
 (24) _USBConfigureEndpoint                                8     7      1     400
                                              0 COMRAM     8     7      1
 ---------------------------------------------------------------------------------
 (22) _USBCtrlTrfOutHandler                                0     0      0     114
                _USBCtrlTrfRxService
 ---------------------------------------------------------------------------------
 (23) _USBCtrlTrfRxService                                 2     2      0     114
                                              0 COMRAM     2     2      0
          _USBCtrlEPAllowStatusStage
 ---------------------------------------------------------------------------------
 (24) _USBCtrlEPAllowStatusStage                           0     0      0       0
 ---------------------------------------------------------------------------------
 (22) _USBCtrlTrfInHandler                                 1     1      0     115
                                              1 COMRAM     1     1      0
                _USBCtrlTrfTxService
 ---------------------------------------------------------------------------------
 (25) _USBCtrlTrfTxService                                 1     1      0      92
                                              0 COMRAM     1     1      0
 ---------------------------------------------------------------------------------
 Estimated maximum stack depth 25
 ---------------------------------------------------------------------------------

 Call Graph Graphs:

 _main (ROOT)
   _SYSTEM_Initialize
     _INTERRUPT_Initialize
     _OSCILLATOR_Initialize
     _PIN_MANAGER_Initialize
     _USBDeviceAttach
     _USBDeviceInit
       _memset
   _USBTask
     _CDCTxService
       _USBTransferOnePacket
     _getsUSBUSART
       _USBTransferOnePacket
     _putrsUSBUSART
     _sprintf
       _vfprintf
         _vfpfcnvrt
           _ctoa
             _pad
               _fputc
                 _putch
               _fputs
                 _fputc
                   _putch
               _strlen
           _fputc
             _putch

 _ISR (ROOT)
   i1_CDCTxService
     i1_USBTransferOnePacket
   i1_putrsUSBUSART
   i1_sprintf
     i1_vfprintf
       i1_vfpfcnvrt
         i1_ctoa
           i1_pad
             i1_fputc
               i1_putch
             i1_fputs
               i1_fputc
                 i1_putch
             i1_strlen
         i1_fputc
           i1_putch

 _INTERRUPT_InterruptManagerHigh (ROOT)
   _USBDeviceTasks
     _USBCtrlEPAllowStatusStage
     _USBCtrlEPService
       _USBCtrlTrfInHandler
         _USBCtrlTrfTxService
       _USBCtrlTrfOutHandler
         _USBCtrlTrfRxService
           _USBCtrlEPAllowStatusStage
       _USBCtrlTrfSetupHandler
         _USBCheckStdRequest
           _USBStdFeatureReqHandler
             _USER_USB_CALLBACK_EVENT_HANDLER
               _CDCInitEP
                 _USBEnableEndpoint
                   _USBConfigureEndpoint
                 i2_USBTransferOnePacket
               _USBCheckCDCRequest
           _USBStdGetDscHandler
           _USBStdGetStatusHandler
           _USBStdSetCfgHandler
             _USER_USB_CALLBACK_EVENT_HANDLER
               _CDCInitEP
                 _USBEnableEndpoint
                   _USBConfigureEndpoint
                 i2_USBTransferOnePacket
               _USBCheckCDCRequest
             i2_memset
           _USER_USB_CALLBACK_EVENT_HANDLER
             _CDCInitEP
               _USBEnableEndpoint
                 _USBConfigureEndpoint
               i2_USBTransferOnePacket
             _USBCheckCDCRequest
         _USBCtrlEPServiceComplete
           _USBCtrlEPAllowDataStage
             _USBCtrlTrfTxService
           _USBCtrlEPAllowStatusStage
         _USER_USB_CALLBACK_EVENT_HANDLER
           _CDCInitEP
             _USBEnableEndpoint
               _USBConfigureEndpoint
             i2_USBTransferOnePacket
           _USBCheckCDCRequest
       _memcpy
     _USBIncrement1msInternalTimers
     _USBStallHandler
     _USBSuspend
       _USER_USB_CALLBACK_EVENT_HANDLER
         _CDCInitEP
           _USBEnableEndpoint
             _USBConfigureEndpoint
           i2_USBTransferOnePacket
         _USBCheckCDCRequest
     _USBWakeFromSuspend
       _USER_USB_CALLBACK_EVENT_HANDLER
         _CDCInitEP
           _USBEnableEndpoint
             _USBConfigureEndpoint
           i2_USBTransferOnePacket
         _USBCheckCDCRequest
     _USER_USB_CALLBACK_EVENT_HANDLER
       _CDCInitEP
         _USBEnableEndpoint
           _USBConfigureEndpoint
         i2_USBTransferOnePacket
       _USBCheckCDCRequest
     i2_USBDeviceInit
       i2_memset

 Address spaces:
Name               Size   Autos  Total    Cost      Usage
BIGRAMl            3FF      0       0      23        0.0%
BIGRAMhh           280      0       0      21        0.0%
EEDATA             100      0       0       0        0.0%
BITBANK7           100      0       0      19        0.0%
BANK7              100      0       0      20        0.0%
BITBANK6           100      0       0      17        0.0%
BANK6              100      0       0      18        0.0%
BITBANK3           100      0       0      10        0.0%
BANK3              100      0       0      11        0.0%
BITBANK2           100      0       0       8        0.0%
BANK2              100      0       0       9        0.0%
BITBANK1           100      0       0       6        0.0%
BANK1              100     46      ED       7       92.6%
BIGRAMhl            C0      0       0      22        0.0%
BITBANK4            C0      0       0      12        0.0%
BANK4               C0      0       0      13        0.0%
BITBANK0            A0      0       0       4        0.0%
BANK0               A0     50      93       5       91.9%
BITBANK5            80      0       0      15        0.0%
BANK5               80      0       0      16        0.0%
BITCOMRAM           5E      0       0       0        0.0%
COMRAM              5E     29      51       1       86.2%
BITSFR_1             0      0       0     200        0.0%
SFR_1                0      0       0     200        0.0%
BITSFR               0      0       0     200        0.0%
SFR                  0      0       0     200        0.0%
STACK                0      0       0       2        0.0%
NULL                 0      0       0       0        0.0%
ABS                  0      0     1D1      14        0.0%
DATA                 0      0     1D1       3        0.0%
CODE                 0      0       0       0        0.0%


Microchip Technology PIC18 Macro Assembler V2.10 build 88905656 
Symbol Table                                                                                   Mon Mar 20 15:40:22 2023

                              _USB_SD_Ptr 0801                                        l39 3770  
                                      bsr 000FE0                       __end_ofi1_vfpfcnvrt 1764  
                           _USBDeviceInit 18C6                        __size_of_CDCInitEP 0066  
                            __CFG_CP0$OFF 000000                              __CFG_CP1$OFF 000000  
                            __CFG_CP2$OFF 000000                              __CFG_CP3$OFF 000000  
    USER_USB_CALLBACK_EVENT_HANDLER@event 000D      USER_USB_CALLBACK_EVENT_HANDLER@pdata 000F  
                                     l241 36F0                                       l219 1DE8  
             __end_of_USBStdGetDscHandler 15FC                                       l238 36DE  
                                     l239 36DC                                       l183 1A16  
                                     l178 192E                                       l610 0F04  
                                     l604 0FF2                                       l605 0E88  
                                     l492 2F9C                                       l661 38E2  
                                     l741 29F8                                       l582 29AE  
                                     l744 2A3C                                       l753 34D6  
                                     l746 2A7A                                       l691 38D2  
                                     l764 3414                                       _BDT 000400  
                                     l597 319E                                       l765 341C  
                                     l694 38AE                                       l758 18C4  
                                     l697 38BC                                       _GIE 007F97  
                            __CFG_CPB$OFF 000000                              __CFG_CPD$OFF 000000  
                                     _ISR 0018                                       _UIE 000F64  
                                     _UIR 000F65                                       _pad 29B0  
                              _USBSuspend 384C                      USBStdSetCfgHandler@i 0015  
                                     prod 000FF3                                       wreg 000FE8  
                          _USBDeviceTasks 0C16                            _USBDeviceState 0046  
                   ??_USBCtrlTrfRxService 0001                  __size_ofi2_USBDeviceInit 014C  
                          ??_getsUSBUSART 01B5                  USBEnableEndpoint@options 0009  
                            __CFG_LVP$OFF 000000                                      ?_ISR 0001  
                                    l1449 1310                                      l1482 3582  
                                    l1467 2B46                                      l1475 3666  
                                    l1491 37AA                USBConfigureEndpoint@handle 0007  
                                    l1485 38E4                                      l6021 388A  
                                    l6013 387A                                      l6023 388C  
                                    l6015 387E                                      l6025 388E  
                                    l6017 3882                                      l5331 2ACA  
                                    l5323 2A7C                                      l5411 3492  
                                    l6027 3890                                      l6019 3886  
                                    l5333 2B00                                      l5325 2A90  
                                    l5341 3640                                      l5413 349E  
                                    l6029 3892                                      ?_pad 01B7  
                                    l5511 1254                                      l5503 11BA  
                                    l5327 2AA2                                      l5343 3646  
                                    l5351 379C                                      l5415 34AA  
                                    l5521 12B4                                      l5505 11C6  
                                    l5329 2AAC                                      l5337 3620  
                                    l5345 3772                                      l5417 34AE  
                                    l5409 347E                                      l5611 374C  
                                    l5523 12E8                                      l5515 126E  
                                    l5531 1CAC                                      l5339 362E  
                                    l5347 377E                                      l5371 29C0  
                                    l5419 34B2                                      l5451 17A8  
                                    l5613 374E                                      l5701 36D4  
                                    l5525 12F4                                      l5517 129A  
                                    l5509 11FC                                      l5621 18C6  
                                    l5533 1CBE                                      l5349 3784  
                                    l5381 2A18                                      l5373 29D4  
                                    l5461 181E                                      l5453 17AC  
                                    l5445 1764                                      l5615 3754  
                                    l5703 36D6                                      l5527 12FA  
                                    l5631 18FA                                      l5623 18C8  
                                    l5551 1D58                                      l5543 1D10  
                                    l5535 1CDA                                      l5711 28FA  
                                    l5383 2A1E                                      l5375 29E4  
                                    l5463 1842                                      l5471 1872  
                                    l5455 17D0                                      l5447 1788  
                                    l5617 3756                                      l5609 3734  
                                    l5705 36EC                                      l5529 12FE  
                                    l5641 191C                                      l5633 18FE  
                                    l5625 18D4                                      l5553 1D68  
                                    l5545 1D34                                      l5537 1CF2  
                                    l5801 0F1E                                      l5721 2970  
                                    l5713 2910                                      l5385 2A4C  
                                    l5377 29F0                                      l5369 29B0  
                                    l5473 1880                                      l5465 1850  
                                    l5457 1802                                      l5449 1796  
                                    l5561 33BC                                      l5619 376E  
                                    l5651 1938                                      l5643 191E  
                                    l5627 18F2                                      l5555 1DA6  
                                    l5547 1D40                                      l5539 1D04  
                                    l5811 0F50                                      l5723 2974  
                                    l5715 2930                                      l5707 28E2  
                                    l5387 2A60                                      l5379 2A04  
                                    l5467 1864                                      l5563 33C4  
                                    l5731 3532                                      l5661 195A  
                                    l5653 193A                                      l5645 1930  
                                    l5629 18F6                                      l5557 1DE0  
                                    l5549 1D4C                                      l5821 0F88  
                                    l5805 0F32                                      l5813 0F54  
                                    l5725 298A                                      l5717 2944  
                                    l5709 28E8                                      l5477 188C  
                                    l5565 33D2                                      l5733 3544  
                                    l5901 2F72                                      l5671 19B4  
                                    l5655 1940                                      l5647 1934  
                                    l5639 1904                                      l5831 0FCC  
                                    l5815 0F6A                                      l5807 0F46  
                                    l5823 0F8C                                      l5719 294E  
                                    l5727 29AA                                      l5751 314A  
                                    l5743 312C                                      l5479 18B2  
                                    l5567 33F8                                      l5735 354C  
                                    l5903 2F80                                      l5681 19E4  
                                    l5673 19C4                                      l5657 1944  
                                    l5649 1936                                      l5833 0FD0  
                                    l5817 0F7E                                      l5825 0F9E  
                                    l5809 0F4C                                      l5761 3184  
                                    l5753 3152                                      l5745 312E  
                                    l5737 3554                                      l5905 2F98  
                                    l5499 119A                                      l5691 19FC  
                                    l5683 19EE                                      l5675 19C6  
                                    l5667 1974                                      l5659 194C  
                                    l5827 0FB0                                      l5819 0F84  
                                    l5835 0FF0                                      l5771 0E3E  
                                    l5763 318C                                      l5755 3154  
                                    l5747 3140                                      l5739 3570  
                                    l5837 38D4                                      l5693 1A0C  
                                    l5685 19F2                                      l5677 19D6  
                                    l5669 19A4                                      l5829 0FC4  
                                    l5781 0E84                                      l5773 0E40  
                                    l5765 3190                                      l5749 3146  
                                    l5839 389E                                      l5695 1A12  
                                    l5687 19F6                                      l5679 19E0  
                                    l5791 0ED8                                      l5783 0E98  
                                    l5775 0E54                                      l5767 3196  
                                    l5759 3168                                      l5697 36B0  
                                    l5689 19F8                                      l5881 38C2  
                                    l5793 0EE8                                      l5785 0E9E  
                                    l5777 0E6A                                      l5769 319C  
                                    l5699 36C0                                      l5883 38C6  
                                    l5795 0EFA                                      l5787 0EB0  
                                    l5779 0E70                                      l5891 2F06  
                                    l5885 38CA                                      l5797 0F08  
                                    l5789 0ECE                                      l5893 2F18  
                                    l5887 38CE                                      l5879 38BE  
                                    l5799 0F1A                                      l5895 2F2E  
                                    l5897 2F3E                                      l5889 2EF6  
                                    l5899 2F4E                                      STR_1 08AE  
                                    STR_2 08AE                                      _LATA 000F89  
                                    _LATB 000F8A                                      _LATC 000F8B  
                                    _LATD 000F8C                                      _LATE 000F8D  
                                    u4400 2ACA                                      u5040 2F06  
                                    _IPEN 007E87                                      u4401 2AC6  
                                    u5041 2F02                                      u4410 2B00  
                                    u5050 2F14                                      u4411 2AFC  
                                    u5051 2F10                                      u4420 3666  
                                    u4500 2A3C                                      u5060 2F3E  
                                    u4421 3662                                      u4501 2A38  
                                    u5061 2F3A                                      u4430 379C  
                                    u4510 2A4C                                      u5070 2F4E  
                                    u4431 3798                                      u4511 2A48  
                                    u5071 2F4A                                      u4600 17D0  
                                    u4601 17CC                                      u4610 1842  
                                    u4611 183E                                      _PEIE 007F96  
                                    u4700 1D68                                      u4380 2A90  
                                    u4540 3492                                      u4701 1D64  
                                    u4381 2A8C                                      u4541 348E  
                                    u5317 2F8C                                      u4630 11B6  
                                    u4390 2AA2                                      u4710 3414  
                                    u4631 11B2                                      u4391 2A9E  
                                    u4711 3410                                      u4640 11F8  
                                    u4800 28FA                                      u4480 29C0  
                                    u4641 11F4                                      u4801 28F6  
                                    u4481 29BC                                      u4650 126A  
                                    u4810 2910                                      u4490 29E4  
                                    u4651 1266                                      u4811 290C  
                                    u4491 29E0                                      u4660 12B0  
                                    u4900 0E98                                      u4820 2930  
                                    u4661 12AC                                      u4901 0E94  
                                    u4821 292C                                      u4670 1310  
                                    u4750 192E                                      u4910 0EB0  
                                    u4830 298A                                      u4590 1788  
                                    u4671 130C                                      u4751 192A  
                                    u4911 0EAC                                      u4831 2986  
                                    u4591 1784                                      u4760 195A  
                                    u4680 1CBE                                      u4920 0EE8  
                                    u4840 3140                                      u4761 1956  
                                    u4681 1CBA                                      u4921 0EE4  
                                    u4841 313C                                      u4770 19D6  
                                    u4690 1D04                                      u4930 0EFA  
                                    u4850 3164                                      u4771 19D2  
                                    u4691 1D00                                      u4931 0EF6  
                                    u4851 3160                                      u4780 36C0  
                                    u4940 0F2E                                      u4860 3184  
                                    u4781 36BC                                      u4941 0F2A  
                                    u4861 3180                                      u4790 36EC  
                                    u4950 0F66                                      u4870 0E54  
                                    u4791 36E8                                      u4951 0F62  
                                    u4871 0E50                     ??_USBCtrlTrfTxService 0001  
                                    u4960 0F9E                                      u4880 0E6A  
                                    u4961 0F9A                                      u4881 0E66  
                                    u4970 0FB0                                      u4890 0E84  
                                    u4971 0FAC                                      u4891 0E80  
                                    u4980 0FC4                                      u4981 0FC0  
                                    u4990 38BC                                      u4991 38B8  
                                    _UCFG 000F62                                      _UEP0 000F6A  
                                    _UEP1 000F6B                                      _UEIE 000F66  
                                    _UEIR 000F67                                      _UCON 000F60  
                                    _WPUB 000F85                           _CDCDataInHandle 00E2  
  USBStdFeatureReqHandler@current_ep_data 0019                                      _pDst 0034  
                                    _dbuf 0187                                      _cont 0032  
                                    _ctoa 347E                                      _main 387A  
                ??i2_USBTransferOnePacket 0005                                      _prec 0104  
                                    _nout 0100                                      pad@i 01BE  
                                    pad@p 01BB                                      fsr1h 000FE2  
                                    fsr2h 000FDA                                      indf1 000FE7  
                             _BaudRateGen 002A                                      indf2 000FDF  
                                    fsr1l 000FE1                                      pad@w 01C0  
                                    fsr2l 000FD9                           _USBDeviceAttach 36B0  
                                    btemp 0052                             __CFG_BORV$190 000000  
                         __end_of_USBTask 2F9E                                      prodh 000FF4  
                                    prodl 000FF3                                      start 011C  
                           __CFG_IESO$OFF 000000                           __end_ofi1_fputc 2C14  
                         __end_ofi1_fputs 36B0                           __end_ofi1_putch 38E8  
              __end_of_USBCheckStdRequest 22D2                    ??_USBCtrlTrfOutHandler 0003  
                           __CFG_MCLRE$ON 000000                              ___param_bank 000000  
               ??_USBStdFeatureReqHandler 0015                                i1_vfprintf 3288  
                  __size_of_putrsUSBUSART 0074                        i1putrsUSBUSART@len 0064  
                                   ??_ISR 00A3                         ??i1_putrsUSBUSART 0062  
                ??_USBStdGetStatusHandler 0001                                     ??_pad 01BD  
                          ?_USBDeviceInit 0001            __size_of_OSCILLATOR_Initialize 0020  
                           i1vfpfcnvrt@ap 0084                             i1vfpfcnvrt@fp 0080  
           __end_of_OSCILLATOR_Initialize 38BE                                     ?_ctoa 01C2  
                                   ?_main 0001         __size_of_USBCtrlEPServiceComplete 0142  
                                   _T0CON 000FD5                    __end_of_USBDeviceTasks 0E3E  
                                   _LATC0 007C58                 ?_USBCtrlEPServiceComplete 0001  
                          __CFG_DEBUG$OFF 000000                                     i1l219 1F2A  
                                   i1l503 00E4                                     i2l200 0E3A  
                                   i2l201 0DA4                                     i1l610 10BA  
                                   i1l604 1198                                     i2l301 1CA6  
                                   i2l213 361E                                     i1l605 103E  
                                   i2l322 15FA                                     i2l330 240C  
                                   i2l219 21AA                                     i2l403 0904  
                                   i2l331 2414                                     i2l260 2EF4  
                                   i2l308 28E0                                     i2l245 27F6  
                                   i2l341 347C                                     i1l741 2C5C  
                                   i2l422 0B76                                     i2l414 0AC8  
                                   i2l326 23F0                                     i2l350 3732  
                                   i2l190 0E3C                                     i2l255 2E48  
                                   i2l263 1FC8                                     i2l431 3818  
                                   i2l183 1B62                                     i2l336 24EE  
                                   i2l344 3878                                     i1l744 2CA0  
                                   i2l249 27F6                                     i2l329 24D0  
                                   i2l273 206C                                     i2l361 302C  
                                   i1l753 33BA                                     i2l426 0C14  
                                   i2l178 1A7C                                     i1l746 2CDC  
                                   i2l339 347A                                     i1l764 32E8  
                                   i2l381 26FE                                     i2l189 0C76  
                                   i1l597 3212                                     i1l765 32F0  
                                   i2l382 2704                                     i2l374 26EE  
                                   i2l550 25FA                                     i2l358 2D94  
                                   i1l758 1762                                     i2l199 0D92  
                                   i2l288 23E0                                     i2l368 3286  
                                   i2l386 22D0                                     i2l299 1C90  
                                   i2l563 3356                                     i2l716 30B4  
                                   i2l388 21C8                                     i2l557 2572  
                                   i2l397 2224                                     i2l559 25AC  
                                   i2l668 3100                                     _UADDR 000F63  
                            vfpfcnvrt@fmt 01C9                                     _TMR0H 000FD7  
                                   _TMR0L 000FD6                                     _USBIE 007D1A  
                                   _USBIF 007D22                                     _USBIP 007D2A  
                                   _TRISA 000F92                                     _TRISB 000F93  
                                   _TRISC 000F94                                     _TRISD 000F95  
                                   _TRISE 000F96                                     _USTAT 000F61  
                                   i1_pad 2C14                             __CFG_WRT0$OFF 000000  
      __size_of_USBCtrlEPAllowStatusStage 00F2                             __CFG_WRT1$OFF 000000  
                           __CFG_WRT2$OFF 000000                             __CFG_WRT3$OFF 000000  
                          __CFG_EBTR0$OFF 000000                            __CFG_FCMEN$OFF 000000  
                          __CFG_EBTR1$OFF 000000                            __CFG_EBTR2$OFF 000000  
                          __CFG_EBTR3$OFF 000000           __end_of_USBCtrlEPAllowDataStage 2E4A  
                                   _sd000 08AA                                     _sd001 084C  
                                   _sd002 0880                             __CFG_WRTB$OFF 000000  
          ?_USBIncrement1msInternalTimers 0001                             __CFG_WRTC$OFF 000000  
                           __CFG_WRTD$OFF 000000                            __CFG_EBTRB$OFF 000000  
                                   _flags 00E0                   __size_ofi1_CDCTxService 01A6  
                                   _fputc 2A7C                                     _fputs 3620  
                                   pad@fp 01B7                                     _width 0102  
                                   ctoa@c 01C4                                     _putch 38E4  
                                   ctoa@w 01C5                                     tablat 000FF5  
                                   plusw2 000FDB                         __end_of_CDCInitEP 3358  
                                   ttemp5 0053                                     ttemp6 0056  
                                   ttemp7 005A                                     status 000FD8  
                          __CFG_T3CMX$RC0 000000                                     wtemp8 0053  
                         __end_of_sprintf 3584                            __CFG_ICPRT$OFF 000000  
                        __end_ofi2_memset 1488                          __end_ofi1_strlen 37E6  
            __size_of_USBStdSetCfgHandler 00EA                               i1_vfpfcnvrt 15FC  
                         __initialization 381A                              __end_of_ctoa 34D8  
                            __end_of_main 389E                             i1vfprintf@fmt 008B  
                   _control_signal_bitmap 003A                       i1putrsUSBUSART@data 0060  
                          __CFG_PCLKEN$ON 000000                                i1sprintf@f 009D  
                              i1sprintf@s 0091                 __size_of_USBCtrlEPService 00B8  
                                  ??_ctoa 01C5                                    ??_main 01ED  
                      __size_ofi1_sprintf 005A                             __activetblptr 000002  
                         ?_USBDeviceTasks 0001                               ?_USBSuspend 0001  
                                  ?i1_pad 0070                            __CFG_SDOMX$RB3 000000  
                          i1vfpfcnvrt@fmt 0082                           __CFG_CCP2MX$RC1 000000  
                            _cdc_mem_type 00E6                             _putrsUSBUSART 312C  
                 __end_of_USBDeviceAttach 36F2                          _CDCDataOutHandle 00E4  
                                  ?_fputc 01A7                                    _ACTCON 000FB5  
                                  ?_fputs 01B0                                    _ANSELA 000F5B  
                                  ?_putch 0001                                    _ANSELB 000F5C  
                                  _ANSELC 000F5D                                    _ANSELD 000F5E  
                                  _ANSELE 000F5F                                 ??_USBTask 01EA  
                         getsUSBUSART@len 01B4                     __size_of_CDCTxService 01B6  
                                  i1l1482 3530                                    i1l1467 2C12  
                                  i1l1475 36AE                                    i1l1491 37E4  
                                  i1l1485 38E6                                    i1l6001 34D8  
                                  i1l6003 34EA                                    i1l6005 34F2  
                                  i1l6007 34FA                                    i1l6031 004E  
                                  i1l5401 37B8                                    i1l6009 351E  
                                  i1l6041 00B6                                    i1l6033 005C  
                                  i1l5403 37BE                                    i1l6051 00E2  
                                  i1l6043 00C4                                    i1l6035 006C  
                                  i1l5405 37D6                                    i1l6045 00C8  
                                  i1l6037 007E                                    i1l5431 2C54  
                                  i1l5423 2C14                                    i1l6047 00DA  
                                  i1l6039 0090                                    i1l5361 2B78  
                                  i1l5441 2CC2                                    i1l5433 2C68  
                                  i1l5425 2C24                                    i1l5601 172A  
                                  i1l6049 00DE                                    i2l4011 1F64  
                                  i2l4003 1F2C                                    i1l5363 2B96  
                                  i1l5355 2B48                                    i1l5435 2C7C  
                                  i1l5427 2C38                                    i1l5603 1750  
                                  i2l4101 21CC                                    i2l4021 1FB8  
                                  i2l4013 1F68                                    i2l4005 1F3E  
                                  i2l1445 35D2                                    i1l5365 2BCC  
                                  i1l5357 2B5C                                    i1l5437 2C82  
                                  i1l5429 2C48                                    i2l4111 21F0  
                                  i2l4103 21D4                                    i2l4031 1FF8  
                                  i2l4023 1FD8                                    i2l4007 1F4C  
                                  i2l4015 1F70                                    i1l5359 2B6E  
                                  i1l5391 3668                                    i1l5439 2CAE  
                                  i2l1449 1486                                    i2l4121 2218  
                                  i2l4113 21F4                                    i2l4105 21DC  
                                  i2l4041 2038                                    i2l4033 2008  
                                  i2l4025 1FEC                                    i2l4017 1F94  
                                  i2l4009 1F60                                    i1l5393 3676  
                                  i2l4123 221A                                    i2l4115 21FA  
                                  i2l4107 21E4                                    i2l4043 2044  
                                  i2l4027 1FF0                                    i2l4035 2010  
                                  i2l4019 1FA0                                    i1l5395 3688  
                                  i1l5491 338A                                    i1l5571 1620  
                                  i2l4061 1B98                                    i2l4053 1B64  
                                  i2l4301 3242                                    i2l3501 250A  
                                  i2l4125 221E                                    i2l4117 2202  
                                  i2l4109 21EE                                    i2l4133 225E  
                                  i2l4045 2050                                    i2l4037 2014  
                                  i2l4029 1FF4                                    i1l5397 368E  
                                  i1l5493 338E                                    i1l5485 3358  
                                  i1l5581 169C                                    i1l5573 162E  
                          __CFG_WDTEN$OFF 000000                                    i2l4311 260E  
                                  i2l4071 1BD0                                    i2l4063 1BA0  
                                  i2l4055 1B74                                    i2l4303 3266  
                                  i2l3431 2E98                                    i2l3511 2548  
                                  i2l4127 2228                                    i2l4119 220A  
                                  i2l4047 2054                                    i2l4039 2024  
                                  i1l5911 31B4                                    i1l5399 37AC  
                                  i1l5495 3394                                    i1l5487 336C  
                                  i1l5591 1700                                    i1l5575 1640  
                                  i2l4321 264A                                    i2l4313 2618  
                                  i2l4081 1C38                                    i2l4073 1BE2  
                                  i2l4065 1BB8                                    i2l4057 1B8C  
                                  i2l4305 3272                                    i2l3433 2EA8  
                                  i2l3425 2E4C                                    i2l3441 35D6  
                                  i2l3521 256C                                    i2l3513 2552  
                                  i2l3505 2524                                    i2l4129 223E  
                                  i2l4049 2058                                    i1l5841 1DEE  
                                  i1l5913 31BA                                    i1l5489 3378  
                                  i1l5585 16B8                                    i1l5577 1644  
                                  i1l5569 15FC                                    i2l3611 22F2  
                                  i2l4331 268A                                    i2l4315 262A  
                                  i2l4323 264E                                    i2l4091 1C90  
                                  i2l4083 1C44                                    i2l4075 1C06  
                                  i2l4067 1BBC                                    i2l4059 1B90  
                                  i2l4307 3282                                    i2l3435 2EC4  
                                  i2l3427 2E54                                    i2l3451 3612  
                                  i2l3443 35E4                                    i2l3531 25A4  
                                  i2l3523 257A                                    i2l3515 255A  
                                  i2l3507 2534                                    i1l5843 1E00  
                                  i1l5931 320A                                    i1l5923 31DE  
                                  i1l5915 31C0                                    i1l5907 31A0  
                                  i1l5587 16DC                                    i1l5595 170E  
                                  i1l5579 1668                                    i2l3621 2326  
                                  i2l3613 2302                                    i2l3605 22D2  
                                  i2l4341 26D2                                    i2l4333 2696  
                                  i2l4325 265E                                    i2l4317 2632  
                                  i2l4309 25FC                                    i2l4093 1C92  
                                  i2l4077 1C1C                                    i2l4085 1C54  
                                  i2l4069 1BBE                                    i2l3437 2EDC  
                                  i2l3429 2E8E                                    i2l3445 35EE  
                                  i2l3525 258C                                    i2l3517 255C  
                                  i2l3701 1474                                    i2l4261 35A4  
                                  i2l4501 384E                                    i1l5861 1E9A  
                                  i1l5853 1E52                                    i1l5845 1E1C  
                                  i1l5941 1020                                    i1l5933 3210  
                                  i1l5925 31FA                                    i1l5917 31C8  
                                  i1l5909 31A2                                    i1l5597 171C  
                                  i1l5589 16EA                                    i2l3631 237A  
                                  i2l3623 2336                                    i2l3615 230A  
                                  i2l3607 22D6                                    i2l4343 26DE  
                                  i2l4335 26A6                                    i2l4327 2674  
                                  i2l4319 2642                                    i2l4095 1CA2  
                                  i2l4087 1C78                                    i2l4079 1C28  
                                  i2l3439 2EE6                                    i2l3447 35FC  
                                  i2l3471 209C                                    i2l3551 3346  
                                  i2l3543 32F2                                    i2l3527 2592  
                                  i2l3519 2562                                    i2l3535 25B8  
                                  i2l4271 2FB6                                    i2l4263 35A8  
                                  i2l4511 37E6                                    i2l4503 3850  
                                  i1l5863 1EAA                                    i1l5855 1E76  
                                  i1l5847 1E34                                    i1l5951 1066  
                                  i1l5943 1026                                    i1l5935 0FF4  
                                  i1l5927 3202                                    i1l5919 31CA  
                                  i1l5871 3288                                    i2l3641 23C4  
                                  i2l3633 2380                                    i2l3625 233E  
                                  i2l3617 231A                                    i2l3609 22EE  
                                  i2l4345 26FE                                    i2l4337 26B6  
                                  i2l4329 2678                                    i2l3721 2706  
                                  i2l4089 1C84                                    i2l3449 3606  
                                  i2l3481 20F6                                    i2l3473 20B4  
                                  i2l3553 3350                                    i2l3545 3314  
                                  i2l3529 259C                                    i2l3801 2894  
                                  i2l4097 21AC                                    i2l4281 2FF0  
                                  i2l4273 2FC2                                    i2l4265 35B4  
                                  i2l4257 3584                                    i2l4513 37F2  
                                  i2l4521 341E                                    i2l4505 3852  
                                  i1l5865 1EE8                                    i1l5857 1E82  
                                  i1l5849 1E46                                    i1l5961 10BE  
                                  i1l5953 1086                                    i1l5945 103A  
                                  i1l5937 0FF6                                    i1l5929 3206  
                                  i1l5873 3290                                    i2l3643 23CA  
                                  i2l3635 2384                                    i2l3619 231E  
                                  i2l4347 2700                                    i2l4339 26C2  
                                  i2l3731 2752                                    i2l3723 2716  
                                  i2l3491 2168                                    i2l3483 2102  
                                  i2l3475 20C6                                    i2l3467 2070  
                                  i2l3547 331E                                    i2l3811 28C0  
                                  i2l3803 289C                                    i2l6211 2272  
                                  i2l4291 300C                                    i2l4283 2FF4  
                                  i2l4275 2FCE                                    i2l4259 3598  
                                  i2l4267 35B8                                    i2l4515 3804  
                                  i2l4531 3478                                    i2l4523 342C  
                                  i2l4507 3858                                    i1l5867 1F22  
                                  i1l5859 1E8E                                    i1l5971 10F8  
                                  i1l5963 10CC                                    i1l5955 1090  
                                  i1l5947 104E                                    i1l5939 100A  
                                  i1l5875 329E                                    i2l3645 23CE  
                                  i2l3629 2350                                    i2l3637 2386  
                                  i2l3741 2792                                    i2l3733 275E  
                                  i2l3725 272A                                    i2l3493 21A2  
                                  i2l3485 210E                                    i2l3469 2080  
                                  i2l3549 3328                                    i2l6221 25CC  
                                  i2l3901 0952                                    i2l3821 14B0  
                                  i2l6213 24B2                                    i2l3813 28DC  
                                  i2l3805 28A4                                    i2l4293 3028  
                                  i2l4285 2FFC                                    i2l4277 2FDA  
                                  i2l4269 2F9E                                    i2l4541 2D1C  
                                  i2l4533 2CDE                                    i2l4517 3806  
                                  i2l4525 3446                                    i2l4509 385C  
                                  i2l4701 1A1A                                    i2l5181 30FE  
                                  i1l5981 112A                                    i1l5973 10FC  
                                  i1l5965 10D0                                    i1l5957 10A0  
                                  i1l5949 1054                                    i1l5877 32CC  
                                  i2l3639 239A                                    i2l3647 23D0  
                                  i2l3751 27D2                                    i2l3743 27A6  
                                  i2l3735 276E                                    i2l3727 272E  
                                  i2l4295 3214                                    i2l3487 211A  
                                  i2l3479 20D2                                    i2l3591 303A  
                                  i2l3911 09D0                                    i2l3903 0964  
                                  i2l6215 15DC                                    i2l3831 154E  
                                  i2l3823 14BC                                    i2l3815 1488  
                                  i2l3671 1312                                    i2l3807 28A8  
                                  i2l4287 3000                                    i2l4279 2FE4  
                                  i2l4543 2D26                                    i2l4551 2D7C  
                                  i2l4535 2CE2                                    i2l4519 3816  
                                  i2l4527 3460                                    i2l4711 1A4E  
                                  i2l4703 1A26                                    i2l5175 30DE  
                                  i1l5991 1154                                    i1l5983 112E  
                                  i1l5975 1100                                    i1l5959 10B2  
                                  i2l3753 27E6                                    i2l3745 27B2  
                                  i2l3737 277E                                    i2l3729 2740  
                                  i2l4297 3226                                    i2l3489 212A  
                                  i2l3497 24F0                                    i2l6217 3060  
                                  i2l3921 0A1E                                    i2l3913 09E8  
                                  i2l3905 0978                                    i2l3841 15BC  
                                  i2l3833 1558                                    i2l3825 14CC  
                                  i2l3817 149C                                    i2l3681 1372  
                                  i2l3809 28B8                                    i2l3761 2DD4  
                                  i2l4289 3008                                    i2l4553 2D90  
                                  i2l4545 2D44                                    i2l4537 2CF8  
                                  i2l4529 346C                                    i2l4721 1A6C  
                                  i2l4705 1A42                                    i2l5177 30EC  
                                  i1l5993 1166                                    i1l5985 1132  
                                  i1l5969 10E4                                    i1l5977 1102  
                               ??i1_fputc 0064                                    i2l3747 27BE  
                                  i2l3739 2782                                    i2l4299 322E  
                                  i2l6219 30A6                                    i2l3595 3042  
                                  i2l3587 302E                                    i2l3931 0A94  
                                  i2l3923 0A40                                    i2l3915 09F6  
                                  i2l3907 0996                                    i2l3835 1568  
                                  i2l3827 14E8                                    i2l3819 14A6  
                                  i2l3851 23E2                                    i2l3683 13CA  
                                  i2l3675 1330                                    i2l3771 2E1A  
                                  i2l3763 2DE0                                    i2l3755 2D96  
                                  i2l4547 2D6C                                    i2l4539 2D14  
                                  i2l4491 3716                                    i2l4731 1A88  
                                  i2l4723 1A7E                                    i2l4707 1A46  
                                  i2l5179 30FA                                    i1l5995 1170  
                                  i1l5979 1116                                    i1l5987 1134  
                                  i2l3749 27C2                                    i2l3589 3032  
                                  i2l3941 0B10                                    i2l3933 0AB0  
                                  i2l3925 0A5E                                    i2l3917 0A06  
                                  i2l3909 09B2                                    i2l3837 1584  
                                  i2l3829 151A                                    i2l3845 15C6  
                                  i2l3861 244A                                    i2l3693 142A  
                                  i2l3677 133C                                    i2l3781 2834  
                                  i2l3773 2E30                                    i2l3765 2DF0  
                                  i2l3757 2D9E                                    i2l4549 2D74  
                                  i2l4493 371C                                    i2l4485 36F2  
                                  i2l4733 1A8E                                    i2l4725 1A82  
                                  i2l4717 1A52                                    i2l4709 1A4A  
                                  i2l4901 0DD0                                    i2l4821 0C3A  
                                  i2l4813 0C16                                    i1l5997 1176  
                                  i1l5989 1144                                    i2l3951 0B60  
                                  i2l3943 0B1C                                    i2l3927 0A70  
                                  i2l3935 0AE4                                    i2l3919 0A10  
                                  i2l3839 15B2                                    i2l3863 2468  
                                  i2l3855 23F4                                    i2l3871 249C  
                                  i2l3695 145E                                    i2l3687 13E4  
                                  i2l3791 285A                                    i2l3783 2836  
                                  i2l3775 2E3C                                    i2l3767 2E0E  
                                  i2l3759 2DB0                                    i2l4495 371E  
                                  i2l4487 36F8                                    i2l4751 1B10  
                                  i2l4735 1A92                                    i2l4727 1A84  
                                  i2l4719 1A6A                                    i2l4911 0E28  
                                  i2l4903 0DE4                                    i2l4831 0C62  
                                  i2l4815 0C26                                    i2l4823 0C40  
                                  i1l5999 1196                                    i2l3953 0B86  
                                  i2l3961 0BE6                                    i2l3945 0B3C  
                                  i2l3937 0AEE                                    i2l3929 0A86  
                                  i2l3873 24E0                                    i2l3865 247E  
                                  i2l3857 2404                                    i2l3697 146A  
                                  i2l3689 1410                                    i2l3793 285C  
                                  i2l3777 27F8                                    i2l3769 2E16  
                                  i2l4497 372C                                    i2l4489 3714  
                                  i2l4761 1B3A                                    i2l4753 1B12  
                                  i2l4745 1AC0                                    i2l4737 1A9A  
                                  i2l4729 1A86                                    i2l4913 0E2A  
                                  i2l4905 0DF4                                    i2l4841 0C98  
                                  i2l4833 0C70                                    i2l4825 0C4E  
                                  i2l4817 0C34                                    i2l3963 0BF2  
                                  i2l3955 0BA2                                    i2l3947 0B48  
                                  i2l3939 0B04                                    i2l3891 08F8  
                                  i2l3883 08BA                                    i2l3875 24E8  
                                  i2l3867 2494                                    i2l3859 2428  
                                  i2l3699 1470                                    i2l3795 286C  
                                  i2l3779 27FC                                    i2l4499 384C  
                                  i2l4771 1B58                                    i2l4763 1B3E  
                                  i2l4755 1B22                                    i2l4747 1AF0  
                                  i2l4739 1AA8                                    i2l4907 0E04  
                                  i2l4851 0CBE                                    i2l4843 0C9C  
                                  i2l4835 0C84                                    i2l4827 0C5C  
                                  i2l4819 0C38                                    i2l3965 0C08  
                                  i2l3957 0BBA                                    i2l3949 0B52  
                                  i2l3893 0900                                    i2l3885 08CC  
                                  i2l3877 24EA                                    i2l3797 2888  
                                  i2l3789 283A                                    i2l4773 1B5E  
                                  i2l4765 1B42                                    i2l4757 1B2C  
                                  i2l4749 1B00                                    i2l4909 0E0C  
                                  i2l4861 0CFC                                    i2l4853 0CCC  
                                  i2l4837 0C92                                    i2l4845 0C9E  
                                  i2l4829 0C5E                                    i2l3959 0BC6  
                                  i2l3895 0914                                    i2l3887 08E0  
                                  i2l3799 288A                                    i2l4767 1B44  
                                  i2l4759 1B30                                    i2l4871 0D30  
                                  i2l4863 0D0C                                    i2l4855 0CDA  
                                  i2l4847 0CAC                                    i2l4839 0C96  
                                  i2l3897 0928                                    i2l3889 08E4  
                                  i2l4769 1B48                                    i2l4881 0D78  
                                  i2l4873 0D3E                                    i2l4865 0D0E  
                                  i2l4857 0CF6                                    i2l4849 0CBA  
                               ??i1_fputs 006D                                    i2l3899 093C  
                                  i2l4699 1A18                                    i2l4883 0D7C  
                                  i2l4875 0D42                                    i2l4867 0D1E  
                                  i2l4859 0CF8                                    i2l4893 0DB2  
                                  i2l4885 0D8C                                    i2l4877 0D50  
                                  i2l4869 0D22                                    i2l4895 0DB6  
                                  i2l4887 0DA0                                    i2l4879 0D5E  
                                  i2l4897 0DC0                                    i2l4899 0DC2  
                                  _OSCCON 000FD3                                 ??i1_putch 0060  
                                  _PLLRDY 007E97                             CDCTxService@i 01B2  
                                  _TMR0IE 007F95                                    _TMR0IF 007F92  
                                  _TMR0IP 007F8A                                    _TMR0ON 007EAF  
            i1USBTransferOnePacket@handle 0069                  i2USBTransferOnePacket@ep 0009  
                       ??i2_USBDeviceInit 000D           __size_ofi2_USBTransferOnePacket 013E  
                                  i1_ctoa 3358                                    i1pad@i 0077  
                                  i1pad@p 0074                                    i1pad@w 0079  
                       _shortPacketStatus 0045                            __CFG_XINST$OFF 000000  
                         USBDeviceTasks@i 001F                              vfprintf@cfmt 01D6  
             USBStdFeatureReqHandler@pUEP 0017                               ?i1_vfprintf 0089  
                USBTransferOnePacket@data 01A8                USBCtrlTrfInHandler@lastDTS 0002  
                         ??_USBDeviceInit 01B3                            __CFG_STVREN$ON 000000  
                    __end_of_getsUSBUSART 29B0                                    _buffer 0107  
                       _USBEnableEndpoint 35D4           __size_of_USBStdGetStatusHandler 010E  
                                  _memcpy 3584                                    _memset 119A  
                                  clear_0 3820                                    clear_1 382C  
                                  clear_2 3838                                    pad@buf 01B9  
                      ?_USBEnableEndpoint 0009                                    ctoa@fp 01C2  
                                  _strlen 3772             __size_of_USBTransferOnePacket 0142  
                                  fputc@c 01A7                                    fputs@c 01B4  
                                  fputs@i 01B5                                    fputs@s 01B0  
                            _CDCTxService 0E3E                              __mediumconst 0000  
                                  tblptrh 000FF7                                    tblptrl 000FF6  
                                  tblptru 000FF8                            ?_putrsUSBUSART 01A7  
                     ??_USBEnableEndpoint 000A                                    putch@c 0001  
                        __end_of_vfprintf 341E                                 ??_sprintf 01E0  
                             _CtrlTrfData 000438             __size_of_INTERRUPT_Initialize 0010  
                    _controlTransferState 0044                      __CFG_LS48MHZ$SYS48X8 000000  
        ??_INTERRUPT_InterruptManagerHigh 0020           ?_INTERRUPT_InterruptManagerHigh 0001  
                       _SYSTEM_Initialize 38BE                                __accesstop 0060  
                 __end_of__initialization 383E                i1USBTransferOnePacket@data 0061  
                         __CFG_PBADEN$OFF 000000                        ?_SYSTEM_Initialize 0001  
                       __end_ofi1_sprintf 3532                             ___rparam_used 000001  
                __size_of_USBStallHandler 0060                       __size_of_USBSuspend 002E  
                           __end_ofi1_pad 2CDE                            __pcstackCOMRAM 0001  
               __end_of_USBEnableEndpoint 3620                          __CFG_nPWRTEN$OFF 000000  
                           __end_of_sd000 08AE                             __end_of_sd001 0880  
                           __end_of_sd002 0898                       ??_SYSTEM_Initialize 01B4  
        __size_of_USBCtrlEPAllowDataStage 00B4                            i1vfprintf@cfmt 008F  
                           __end_of_fputc 2B48                             __end_of_fputs 3668  
           __size_of_USBConfigureEndpoint 00AC                             __end_of_putch 38E6  
             __end_of_USBCtrlTrfInHandler 2706                      i1putrsUSBUSART@pData 0062  
                  i2_USBTransferOnePacket 206E                                   ??i1_pad 0076  
                              _cdc_notice 00B0                               i1sprintf@ap 009B  
                               ?i2_memset 0001                                _cdc_rx_len 00E8  
                              _cdc_tx_len 00E7                                 ?i1_strlen 0060  
                          i1_CDCTxService 0FF4                  ??_USBCtrlTrfSetupHandler 001E  
                 _USBTicksSinceSuspendEnd 00E9                            _USB_Out_Buffer 0147  
                        ?_USBDeviceAttach 0001                                   ??_fputc 01AB  
               __end_of_SYSTEM_Initialize 38D4                                   ??_fputs 01B4  
                     __size_ofi1_vfprintf 006A                    _USBStdGetStatusHandler 23E2  
                                 ??_putch 01A7                                __pbssBANK0 00B0  
                              __pbssBANK1 0100                           i1_putrsUSBUSART 31A0  
                                 ?i1_ctoa 007B               __size_of_USBWakeFromSuspend 0042  
                             _pBDTEntryIn 00C8          __end_of_USBCtrlEPServiceComplete 206E  
                         i1CDCTxService@i 006B               __size_of_USBCheckCDCRequest 010C  
                       __CFG_PLLSEL$PLL3X 000000                      USBCtrlTrfRxService@i 0001  
                                 ?_memcpy 0001                                   ?_memset 01A7  
                              _device_dsc 0898                          _USBCtrlEPService 2CDE  
                              _ep_data_in 00DD                                   ?_strlen 01A7  
             __end_of_USBCtrlTrfRxService 1CA8                        _USBCheckStdRequest 21AC  
                       _configDescriptor1 0809                           ??_putrsUSBUSART 01A9  
                  __end_ofi1_CDCTxService 119A                                ??i2_memset 0007  
             __end_of_USBCtrlTrfTxService 23E2                       _USBStdSetCfgHandler 27F8  
                                 _OSCCON2 000FD2                        __size_of_vfpfcnvrt 0162  
                                 _OSCTUNE 000F9B                                ??i1_strlen 0062  
                     ?_USBCheckStdRequest 0001              __size_of_USBStdGetDscHandler 0174  
                                 _UIEbits 000F64                                   _USBTask 2EF6  
                                 _UIRbits 000F65                                   i1_fputc 2B48  
                                 i1_fputs 3668                                   i1pad@fp 0070  
                           _cdc_trf_state 0106                                   i1ctoa@c 007D  
                                 i1_putch 38E6                                   i1ctoa@w 007E  
                ??i1_USBTransferOnePacket 0064                           __size_ofi1_ctoa 0064  
                                 _pCDCDst 00D4                                   _pCDCSrc 00D7  
                   __size_of_getsUSBUSART 00CE                                   __Hparam 0000  
         ??_USBIncrement1msInternalTimers 0001                      ?_USBStdSetCfgHandler 0001  
                               _CDCInitEP 32F2                              ?i1_vfpfcnvrt 0080  
                                 __Lparam 0000                __size_of_USBEnableEndpoint 004C  
                    ??_USBCheckStdRequest 001C             __size_of_USBCtrlTrfOutHandler 0074  
                        ??_USBDeviceTasks 001F                         ??_USBStallHandler 0001  
                               ?_vfprintf 01D0                              __psmallconst 0800  
                                 __pcinit 381A                        getsUSBUSART@buffer 01B2  
                         __size_of_memcpy 0050                           __size_of_memset 0178  
               __end_of_configDescriptor1 084C                                   __ramtop 0800  
                                 __ptext0 387A                                   __ptext1 2EF6  
                                 __ptext2 3532                                   __ptext3 33BC  
                                 __ptext4 1764                                   __ptext5 347E  
                                 __ptext6 29B0                                   __ptext7 3772  
                                 __ptext8 3620                                   __ptext9 2A7C  
                            i2memset@dest 0001                                   _inPipes 00C2  
             _USBDeferOUTDataStagePackets 003B                           __size_of_strlen 003A  
                            __size_of_ISR 0104                     _OSCILLATOR_Initialize 389E  
                            ??_USBSuspend 0015                              __size_of_pad 00CC  
                         ?i1_CDCTxService 0001                  ??_PIN_MANAGER_Initialize 01A7  
                         i2_USBDeviceInit 1A18                          i2USBDeviceInit@i 000D  
                 __end_ofi1_putrsUSBUSART 3214                        __end_of_USB_CD_Ptr 0809  
              __size_of_SYSTEM_Initialize 0016                                   _sprintf 3532  
         __size_of_USBCtrlTrfSetupHandler 0090                            __pintcode_body 30B6  
                    end_of_initialization 383E                              _getsUSBUSART 28E2  
                      __end_of_USB_SD_Ptr 0807                                   memcpy@d 0007  
                                 memcpy@n 0005                                   memcpy@s 0009  
                     _pBDTEntryEP0OutNext 0036                                   fputc@fp 01A9  
                                 memset@c 01A9                                   memset@k 01AF  
                                 memset@n 01AB                                   memset@s 01B1  
                           __Lmediumconst 0000                                   int_func 30B6  
                                 fputs@fp 01B2                           _USB1msTickCount 002E  
         _dummy_encapsulated_cmd_response 00EB                  ?_USBStdFeatureReqHandler 0001  
                   ??_USBStdSetCfgHandler 0015                                ?_CDCInitEP 0001  
                            ??i1_vfprintf 008F                        __end_of_USBSuspend 387A  
                       __end_of_vfpfcnvrt 18C6                   _USBCtrlEPAllowDataStage 2D96  
                                 postdec2 000FDD                                   postinc0 000FEE  
                                 postinc1 000FE6                                   postinc2 000FDE  
                              ??_vfprintf 01D6                  _USBCtrlEPServiceComplete 1F2C  
                                 strlen@a 01A9                                   strlen@s 01A7  
              _USBStatusStageEnabledFlag1 003E                _USBStatusStageEnabledFlag2 003D  
                      USBEnableEndpoint@p 000A                        _BothEP0OutUOWNsSet 0041  
               USBConfigureEndpoint@EPNum 0006                ?_USBCtrlEPAllowStatusStage 0001  
                      __end_ofi1_vfprintf 32F2       USER_USB_CALLBACK_EVENT_HANDLER@size 0011  
                               _USTATcopy 0050                  i1USBTransferOnePacket@ep 0068  
            __end_of_USBTransferOnePacket 1DEA           __size_ofi1_USBTransferOnePacket 0142  
                          __end_ofi1_ctoa 33BC                                 i1_sprintf 34D8  
                  _USBCtrlTrfSetupHandler 2F9E              __end_of_INTERRUPT_Initialize 38E4  
                            i1vfpfcnvrt@c 0088                   ?i2_USBTransferOnePacket 0001  
                   __end_of_USBDeviceInit 1A18     __end_of_USBIncrement1msInternalTimers 381A  
  __size_of_USBIncrement1msInternalTimers 0034             _USBIncrement1msInternalTimers 37E6  
                             vfpfcnvrt@ap 01CB                               vfpfcnvrt@fp 01C7  
                               i1fputc@fp 0062                                 i1fputs@fp 006B  
                 __end_ofi2_USBDeviceInit 1B64                                 i2memset@c 0003  
                               i2memset@k 0009                                 i2memset@n 0005  
                               i2memset@s 000B                            __end_of_memcpy 35D4  
                  ?_OSCILLATOR_Initialize 0001                        putrsUSBUSART@pData 01A9  
                          __end_of_memset 1312                         _USBBusIsSuspended 00EA  
                          __end_of_strlen 37AC                       start_initialization 381A  
                 ?_USBStdGetStatusHandler 0001                               __end_of_ISR 011C  
           USBCtrlTrfRxService@byteToRead 0002           __size_of_PIN_MANAGER_Initialize 003E  
                            i1vfprintf@ap 008D                               __end_of_pad 2A7C  
                            i1vfprintf@fp 0089                          ?i1_putrsUSBUSART 0060  
                             _cdc_data_rx 000540                               _cdc_data_tx 000500  
                       __size_ofi2_memset 0176              __end_of_USBConfigureEndpoint 2EF6  
         __end_of_USBStdFeatureReqHandler 0C16                                 i1strlen@a 0062  
                               i1strlen@s 0060                         __size_ofi1_strlen 003A  
       __end_of_USBCtrlEPAllowStatusStage 27F8                  __end_of_USBCtrlEPService 2D96  
                         __CFG_nLPBOR$OFF 000000                                  ??i1_ctoa 007E  
               ??_USBCtrlEPAllowDataStage 0002                              i1sprintf@fmt 0093  
                            i1sprintf@ret 0099                               ??_CDCInitEP 000D  
                          USBDeviceInit@i 01B3                    _pBDTEntryEP0OutCurrent 0038  
                             vfprintf@fmt 01D2                   USBTransferOnePacket@dir 01A7  
                 USBTransferOnePacket@len 01AA            __end_ofi2_USBTransferOnePacket 21AC  
                              ?i1_sprintf 0091                      __size_ofi1_vfpfcnvrt 0168  
                     _USBStdGetDscHandler 1488                                  ??_memcpy 0007  
                                ??_memset 01AD                                memset@dest 01A7  
                             USBTask@READ 01EC                    i1_USBTransferOnePacket 1DEA  
                                ??_strlen 01A9                    _USBActiveConfiguration 0051  
          __end_of_USBStdGetStatusHandler 24F0                 i1USBTransferOnePacket@dir 0060  
               i1USBTransferOnePacket@len 0063                               __pbssCOMRAM 002A  
                           __pcstackBANK0 0060                             __pcstackBANK1 01A7  
            __size_of_USBCtrlTrfInHandler 010A                      ?_USBStdGetDscHandler 0001  
                                ?_USBTask 0001                                  ?i1_fputc 0060  
                                ?i1_fputs 0069                                  ?i1_putch 0001  
              __end_of_USBWakeFromSuspend 3734                           _USBStallHandler 341E  
                            _pBDTEntryOut 00CE                __end_of_USBCheckCDCRequest 25FC  
                __size_of_USBDeviceAttach 0042                    _PIN_MANAGER_Initialize 3734  
                               __pintcode 0008                          ??i1_CDCTxService 006B  
                             __pintcodelo 0018                          ?i2_USBDeviceInit 0001  
                       __size_of_vfprintf 0062                      _USBTransferOnePacket 1CA8  
                             __smallconst 0800                            __size_ofi1_pad 00CA  
                   __end_of_putrsUSBUSART 31A0              __end_of_USBCtrlTrfOutHandler 3288  
                   ??_USBStdGetDscHandler 0001                               _ep_data_out 00DA  
                                ?_sprintf 01D8              __size_of_USBCtrlTrfRxService 0144  
                          __size_of_fputc 00CC                            __size_of_fputs 0048  
           USBConfigureEndpoint@direction 0001                            __size_of_putch 0002  
                    _INTERRUPT_Initialize 38D4              __size_of_USBCtrlTrfTxService 0110  
              ??_USBCtrlEPServiceComplete 0002                                  _IPR3bits 000FA5  
                                _PIE3bits 000FA3                                  i1u500_20 1E00  
                                i1u500_21 1DFC                                  i1u501_20 1E46  
                                i1u501_21 1E42                                  i1u502_20 1EAA  
                                i1u510_20 31FA                                  i1u502_21 1EA6  
                                i1u510_21 31F6                                  i1u511_20 100A  
                                i1u503_20 32E8                                  i1u511_21 1006  
                                i1u503_21 32E4                                  i1u520_20 1144  
                                i1u512_20 1020                                  i1u520_21 1140  
                                i1u512_21 101C                                  i1u521_20 1154  
                                i1u513_20 103A                                  i1u521_21 1150  
                                i1u513_21 1036                                  i1u522_20 1166  
                                i1u514_20 104E                                  i1u522_21 1162  
                                i1u514_21 104A                                  i1u515_20 1066  
                                i1u523_20 005C                                  i1u515_21 1062  
                                i1u523_21 0058                                  i1u516_20 10A0  
                                i1u508_20 31B4                                  i1u444_20 2B5C  
                                i1u452_20 36AE                                  i1u524_20 006C  
                                i1u516_21 109C                                  i1u508_21 31B0  
                                i1u444_21 2B58                                  i1u452_21 36AA  
                                i1u524_21 0068                                  i2u220_40 2EA8  
                                i2u220_41 2EA4                                  i1u517_20 10B2  
                                i1u509_20 31DA                                  i1u445_20 2B6E  
                                i1u453_20 37D6                                  i1u525_20 007A  
                                i1u517_21 10AE                                  i1u509_21 31D6  
                                i1u445_21 2B6A                                  i1u453_21 37D2  
                                i1u525_21 0076                                  i2u221_40 35E4  
                                i2u301_40 1F3E                                  i2u221_41 35E0  
                                i2u301_41 1F3A                                  i1u518_20 10E0  
                                i1u446_20 2B96                                  i1u462_20 336C  
                                i1u526_20 0090                                  i1u518_21 10DC  
                                i1u446_21 2B92                                  i1u462_21 3368  
                                i1u526_21 008C                                  i2u310_40 1BE2  
                                i2u222_40 35FC                                  i2u230_40 2506  
                                i2u302_40 1F4C                                  i2u310_41 1BDE  
                                i2u222_41 35F8                                  i2u230_41 2502  
                                i2u302_41 1F48                                  i1u519_20 1112  
                                i1u447_20 2BCC                                  i1u455_20 2C24  
                                i1u527_20 00D8                                  i1u519_21 110E  
                                i1u447_21 2BC8                                  i1u455_21 2C20  
                                i1u527_21 00D2                                  i2u311_40 1C1C  
                                i2u231_40 2520                                  i2u303_40 1F60  
                                i2u311_41 1C18                                  i2u231_41 251C  
                                i2u303_41 1F5C                                  i1u456_20 2C48  
                                i1u472_20 1620                                  i1u456_21 2C44  
                                i1u472_21 161C                                  i2u240_40 22EE  
                                i2u312_40 1CA2                                  i2u232_40 2534  
                                i2u304_40 1FD8                                  i2u400_40 0DD0  
                                i2u240_41 22EA                                  i2u312_41 1C9E  
                                i2u232_41 2530                                  i2u304_41 1FD4  
                                i2u400_41 0DCC                                  i1u528_25 00DA  
                                i1u457_20 2CA0                                  i1u473_20 1668  
                                i1u457_21 2C9C                                  i1u473_21 1664  
                                i2u241_40 2302                                  i2u233_40 2544  
                                i2u313_40 21C4                                  i2u305_40 1FEC  
                                i2u401_40 0E04                                  i2u241_41 22FE  
                                i2u233_41 2540                                  i2u313_41 21C0  
                                i2u305_41 1FE8                                  i2u401_41 0E00  
                                i1u458_20 2CAE                                  i1u474_20 16DC  
                                i1u458_21 2CAA                                  i1u474_21 16D8  
                                i2u242_40 231A                                  i2u330_40 2642  
                                i2u306_40 2008                                  i2u402_40 0E3A  
                                i2u242_41 2316                                  i2u330_41 263E  
                                i2u306_41 2004                                  i2u402_41 0E36  
                                i2u243_40 234C                                  i2u331_40 265E  
                                i2u227_40 2080                                  i2u307_40 2068  
                                i2u243_41 2348                                  i2u331_41 265A  
                                i2u227_41 207C                                  i2u307_41 2064  
                                i2u244_40 2378                                  i2u332_40 268A  
                                i2u260_40 272A                                  i2u308_40 1B8C  
                                i2u228_40 20C6                                  i2u252_40 132C  
                                i2u332_41 2686                                  i2u260_41 2726  
                                i2u308_41 1B88                                  i2u228_41 20C2  
                                i2u252_41 1328                                  i2u244_47 236E  
                                i2u245_40 2396                                  i2u333_40 26B6  
                                i2u261_40 2740                                  i2u309_40 1BD0  
                                i2u229_40 212A                                  i2u253_40 136E  
                                i2u245_41 2392                                  i2u333_41 26B2  
                                i2u261_41 273C                                  i2u309_41 1BCC  
                                i2u229_41 2126                                  i2u253_41 136A  
                                i2u246_40 23C2                                  i2u334_40 26FE  
                                i2u262_40 277E                                  i2u270_40 1546  
                                i2u254_40 13E0                                  i2u326_40 35D2  
                                i2u350_40 2D90                                  i2u342_40 372C  
                                i2u334_41 26FA                                  i2u262_41 277A  
                                i2u254_41 13DC                                  i2u326_41 35CE  
                                i2u350_41 2D8C                                  i2u342_41 3728  
                                i2u246_47 23B8                                  i2u270_47 153C  
                                i2u247_40 23E0                                  i2u327_40 3226  
                                i2u271_40 1568                                  i2u255_40 1426  
                                i2u263_40 2DB0                                  i2u343_40 3804  
                                i2u247_41 23DC                                  i2u327_41 3222  
                                i2u271_41 1564                                  i2u255_41 1422  
                                i2u263_41 2DAC                                  i2u343_41 3800  
                                i2u328_40 3242                                  i2u280_40 08F8  
                                i2u272_40 15A4                                  i2u256_40 1486  
                                i2u264_40 2E0E                                  i2u344_40 3816  
                                i2u328_41 323E                                  i2u280_41 08F4  
                                i2u256_41 1482                                  i2u264_41 2E0A  
                                i2u344_41 3812                                  i2u272_47 159A  
                                i2u329_40 262A                                  i2u281_40 0914  
                                i2u273_40 2404                                  i2u265_40 286C  
                                i2u345_40 342C                                  i2u329_41 2626  
                                i2u281_41 0910                                  i2u273_41 2400  
                                i2u265_41 2868                                  i2u345_41 3428  
                                i2u290_40 0A86                                  i2u282_40 0928  
                                i2u274_40 2428                                  i2u266_40 28B8  
                                i2u346_40 3446                                  i2u290_41 0A82  
                                i2u282_41 0924                                  i2u274_41 2424  
                                i2u266_41 28B4                                  i2u346_41 3442  
                                i2u259_40 2716                                  i2u291_40 0A94  
                                i2u283_40 093C                                  i2u267_40 149C  
                                i2u275_40 247E                                  i2u347_40 3460  
                                i2u259_41 2712                                  i2u291_41 0A90  
                                i2u283_41 0938                                  i2u267_41 1498  
                                i2u275_41 247A                                  i2u347_41 345C  
                                i2u292_40 0B04                                  i2u284_40 0952  
                                i2u268_40 14CC                                  i2u276_40 2494  
                                i2u348_40 2CF8                                  i2u380_40 0C26  
                                i2u436_40 30EC                                  i2u292_41 0B00  
                                i2u284_41 094E                                  i2u268_41 14C8  
                                i2u276_41 2490                                  i2u348_41 2CF4  
                                i2u380_41 0C22                                  i2u436_41 30E8  
                                i2u293_40 0B60                                  i2u285_40 0964  
                                i2u269_40 1516                                  i2u277_40 24E0  
                                i2u349_40 2D44                                  i2u373_40 1A7C  
                                i2u381_40 0C34                                  i2u437_40 30FA  
                                i2u293_41 0B5C                                  i2u285_41 0960  
                                i2u277_41 24DC                                  i2u349_41 2D40  
                                i2u373_41 1A78                                  i2u381_41 0C30  
                                i2u437_41 30F6                                  _PIR3bits 000FA4  
                                i2u269_47 150C                                  i2u294_40 0B76  
                                i2u286_40 0978                                  i2u278_40 08CC  
                                i2u374_40 1AA8                                  i2u390_40 0CDA  
                                i2u382_40 0C4E                                  i2u294_41 0B72  
                                i2u286_41 0974                                  i2u278_41 08C8  
                                i2u374_41 1AA4                                  i2u390_41 0CD6  
                                i2u382_41 0C4A                                  i2u295_40 0B86  
                                i2u287_40 09F6                                  i2u279_40 08E0  
                                i2u375_40 1B22                                  i2u391_40 0D0C  
                                i2u383_40 0C5C                                  i2u295_41 0B82  
                                i2u287_41 09F2                                  i2u279_41 08DC  
                                i2u375_41 1B1E                                  i2u391_41 0D08  
                                i2u383_41 0C58                                  i2u288_40 0A1E  
                                i2u392_40 0D1E                                  i2u384_40 0C70  
                                i2u288_41 0A1A                                  i2u392_41 0D1A  
                                i2u384_41 0C6C                                  i2u289_40 0A70  
                                i2u393_40 0D30                                  i2u385_40 0C84  
                                i2u289_41 0A6C                                  i2u393_41 0D2C  
                                i2u385_41 0C80                                  i2u394_40 0D3E  
                                i2u386_40 0C92                                  i2u394_41 0D3A  
                                i2u386_41 0C8E                                  i2u395_40 0D50  
                                i2u387_40 0CAC                                  i2u395_41 0D4C  
                                i2u387_41 0CA8                                  i2u396_40 0D5E  
                                i2u388_40 0CBA                                  i2u396_41 0D5A  
                                i2u388_41 0CB6                                  i2u397_40 0D8C  
                                i2u389_40 0CCC                                  i2u397_41 0D88  
                                i2u389_41 0CC8                                  i2u398_40 0DA0  
                                i2u398_41 0D9C                                  i2u399_40 0DB2  
                                i2u399_41 0DAE                               ??i1_sprintf 0099  
                                _RCONbits 000FD0                          __CFG_WDTPS$32768 000000  
                                _UEP0bits 000F6A                _USBDeferINDataStagePackets 003C  
             __size_of_USBCheckStdRequest 0126                                  _UCONbits 000F60  
                    _USBConfigureEndpoint 2E4A                                 _vfpfcnvrt 1764  
        __size_of_USBStdFeatureReqHandler 035C                     ?_USBTransferOnePacket 01A7  
                           ?_CDCTxService 0001                              _RemoteWakeup 0043  
                                i2_memset 1312                         __CFG_CFGPLLEN$OFF 000000  
                                i1pad@buf 0072                                  i1ctoa@fp 007B  
                                i1_strlen 37AC                   __end_of_USBStallHandler 347E  
                              vfpfcnvrt@c 01CF                                  i1fputc@c 0060  
                                i1fputs@c 006D                                  i1fputs@i 006E  
                             _INTCON2bits 000FF1                                  i1fputs@s 0069  
                   ?_INTERRUPT_Initialize 0001                         putrsUSBUSART@data 01A7  
             ??_USBCtrlEPAllowStatusStage 0001               __end_of_USBStdSetCfgHandler 28E2  
                        __size_of_USBTask 00A8                          __size_ofi1_fputc 00CC  
                        __size_ofi1_fputs 0048                          __size_ofi1_putch 0002  
                      __end_of_device_dsc 08AA                   ?_USBCtrlTrfSetupHandler 0001  
                 USBStdGetStatusHandler@p 0003                                  __Hrparam 0000  
                               memcpy@tmp 000B                                vfprintf@ap 01D4  
                                __Lrparam 0000                                vfprintf@fp 01D0  
                  USBTransferOnePacket@ep 01AF                        __CFG_BOREN$SBORDIS 000000  
                                _SetupPkt 000430                   ??_OSCILLATOR_Initialize 01A7  
                   ?_USBConfigureEndpoint 0001                         ??_USBDeviceAttach 01A7  
                              ?_vfpfcnvrt 01C7                               _line_coding 0047  
                          ??_CDCTxService 01B2                                sprintf@fmt 01DA  
                 __size_of_USBDeviceTasks 0228                                  __ptext10 38E4  
                                __ptext11 312C                                  __ptext20 389E  
                                __ptext12 28E2                                  __ptext21 38D4  
                                __ptext13 0E3E                                  __ptext30 2B48  
                                __ptext14 1CA8                                  __ptext31 38E6  
                                __ptext23 34D8                                  __ptext15 38BE  
                                __ptext40 341E                                  __ptext32 31A0  
                                __ptext24 3288                                  __ptext16 18C6  
                                __ptext41 37E6                                  __ptext33 0FF4  
                                __ptext25 15FC                                  __ptext17 119A  
                                __ptext50 23E2                                  __ptext42 2CDE  
                                __ptext34 1DEA                                  __ptext26 3358  
                                __ptext18 36B0                                  __ptext51 1488  
                                __ptext43 3584                                  __ptext27 2C14  
                                __ptext19 3734                                  __ptext60 1B64  
                                __ptext52 08BA                                  __ptext44 2F9E  
                                __ptext36 0C16                                  __ptext28 37AC  
                                __ptext61 2706                                  __ptext53 302E  
                                __ptext45 1F2C                                  __ptext37 1A18  
                                __ptext29 3668                                  __ptext62 25FC  
                                __ptext54 24F0                                  __ptext46 2D96  
                                __ptext38 36F2                                  __ptext63 22D2  
                                __ptext55 32F2                                  __ptext47 21AC  
                                __ptext39 384C                                  __ptext56 206E  
                                __ptext48 27F8                                  __ptext57 35D4  
                                __ptext49 1312                                  __ptext58 2E4A  
                                __ptext59 3214                          __size_of_sprintf 0052  
                           __size_of_ctoa 005A            __end_of_USBCtrlTrfSetupHandler 302E  
                           __size_of_main 0024                         ?_USBCtrlEPService 0001  
                      ??_USBCtrlEPService 001E                       _USBCtrlTrfInHandler 25FC  
                                _outPipes 00BA                      _USBCtrlTrfOutHandler 3214  
                                int$flags 0052                   ?i1_USBTransferOnePacket 0060  
               _USBCtrlEPAllowStatusStage 2706                                  _vfprintf 33BC  
                  ??_USBTransferOnePacket 01AB                          putrsUSBUSART@len 01AB  
               _USBDeferStatusStagePacket 003F                  CDCTxService@byte_to_send 01B3  
                              _INTCONbits 000FF2                      ?_USBCtrlTrfInHandler 0001  
                                memcpy@d1 0001                                  memcpy@s1 0003  
           USBCtrlTrfTxService@byteToSend 0001                    ??_INTERRUPT_Initialize 01A7  
                        ?_USBStallHandler 0001                  USBStdFeatureReqHandler@p 001A  
                                intlevel1 0000                                  intlevel2 0000  
                               sprintf@ap 01E2                    __size_of_USBDeviceInit 0152  
 __end_of_USER_USB_CALLBACK_EVENT_HANDLER 30B6  __size_of_USER_USB_CALLBACK_EVENT_HANDLER 0088  
       ??_USER_USB_CALLBACK_EVENT_HANDLER 0013          ?_USER_USB_CALLBACK_EVENT_HANDLER 000D  
         _USER_USB_CALLBACK_EVENT_HANDLER 302E              i2USBTransferOnePacket@handle 000A  
                 ?_PIN_MANAGER_Initialize 0001                  __size_ofi1_putrsUSBUSART 0074  
                           ??i1_vfpfcnvrt 0086                i2USBTransferOnePacket@data 0002  
          __end_ofi1_USBTransferOnePacket 1F2C                    ??_USBConfigureEndpoint 0002  
                   ?_USBCtrlTrfOutHandler 0001                i1CDCTxService@byte_to_send 006C  
                    __CFG_CPUDIV$NOCLKDIV 000000                       _USBCtrlTrfRxService 1B64  
                      _USBWakeFromSuspend 36F2                   _USBStdFeatureReqHandler 08BA  
                             ??_vfpfcnvrt 01CD                        _USBCheckCDCRequest 24F0  
                     _USBCtrlTrfTxService 22D2    __end_of_INTERRUPT_InterruptManagerHigh 312C  
 __size_of_INTERRUPT_InterruptManagerHigh 3124            _INTERRUPT_InterruptManagerHigh 0008  
                                sprintf@f 01E4                                  sprintf@s 01D8  
                     ?_USBWakeFromSuspend 0001                     ??_USBCtrlTrfInHandler 0002  
                   _USBAlternateInterface 004E                       ?_USBCheckCDCRequest 0001  
               i2USBTransferOnePacket@dir 0001                 i2USBTransferOnePacket@len 0004  
                     USBEnableEndpoint@ep 000C                           _endpoint_number 0042  
                    ?_USBCtrlTrfRxService 0001                             ?_getsUSBUSART 01B2  
                      __CFG_FOSC$INTOSCIO 000000            __end_of_PIN_MANAGER_Initialize 3772  
                ?_USBCtrlEPAllowDataStage 0001                      ?_USBCtrlTrfTxService 0001  
            _USBStatusStageTimeoutCounter 0040                      ??_USBWakeFromSuspend 0015  
              USBTransferOnePacket@handle 01B0                      __end_of_CDCTxService 0FF4  
                    ??_USBCheckCDCRequest 0001                                _USB_CD_Ptr 0807  
